ARM GAS  C:\Users\nosak\AppData\Local\Temp\ccW0fACx.s 			page 1


   1              		.syntax unified
   2              		.cpu cortex-m3
   3              		.fpu softvfp
   4              		.eabi_attribute 20, 1
   5              		.eabi_attribute 21, 1
   6              		.eabi_attribute 23, 3
   7              		.eabi_attribute 24, 1
   8              		.eabi_attribute 25, 1
   9              		.eabi_attribute 26, 1
  10              		.eabi_attribute 30, 1
  11              		.eabi_attribute 34, 1
  12              		.eabi_attribute 18, 4
  13              		.thumb
  14              		.file	"cyfitter_cfg.c"
  15              		.text
  16              	.Ltext0:
  17              		.cfi_sections	.debug_frame
  18              		.section	.text.CyClockStartupError,"ax",%progbits
  19              		.align	2
  20              		.thumb
  21              		.thumb_func
  22              		.type	CyClockStartupError, %function
  23              	CyClockStartupError:
  24              	.LFB3:
  25              		.file 1 ".\\Generated_Source\\PSoC5\\cyfitter_cfg.c"
   1:.\Generated_Source\PSoC5/cyfitter_cfg.c **** /*******************************************************************************
   2:.\Generated_Source\PSoC5/cyfitter_cfg.c **** * File Name: cyfitter_cfg.c
   3:.\Generated_Source\PSoC5/cyfitter_cfg.c **** * 
   4:.\Generated_Source\PSoC5/cyfitter_cfg.c **** * PSoC Creator  3.3 CP3
   5:.\Generated_Source\PSoC5/cyfitter_cfg.c **** *
   6:.\Generated_Source\PSoC5/cyfitter_cfg.c **** * Description:
   7:.\Generated_Source\PSoC5/cyfitter_cfg.c **** * This file contains device initialization code.
   8:.\Generated_Source\PSoC5/cyfitter_cfg.c **** * Except for the user defined sections in CyClockStartupError(), this file should not be modified.
   9:.\Generated_Source\PSoC5/cyfitter_cfg.c **** * This file is automatically generated by PSoC Creator.
  10:.\Generated_Source\PSoC5/cyfitter_cfg.c **** *
  11:.\Generated_Source\PSoC5/cyfitter_cfg.c **** ********************************************************************************
  12:.\Generated_Source\PSoC5/cyfitter_cfg.c **** * Copyright (c) 2007-2016 Cypress Semiconductor.  All rights reserved.
  13:.\Generated_Source\PSoC5/cyfitter_cfg.c **** * You may use this file only in accordance with the license, terms, conditions, 
  14:.\Generated_Source\PSoC5/cyfitter_cfg.c **** * disclaimers, and limitations in the end user license agreement accompanying 
  15:.\Generated_Source\PSoC5/cyfitter_cfg.c **** * the software package with which this file was provided.
  16:.\Generated_Source\PSoC5/cyfitter_cfg.c **** ********************************************************************************/
  17:.\Generated_Source\PSoC5/cyfitter_cfg.c **** 
  18:.\Generated_Source\PSoC5/cyfitter_cfg.c **** #include <string.h>
  19:.\Generated_Source\PSoC5/cyfitter_cfg.c **** #include "cytypes.h"
  20:.\Generated_Source\PSoC5/cyfitter_cfg.c **** #include "cydevice_trm.h"
  21:.\Generated_Source\PSoC5/cyfitter_cfg.c **** #include "cyfitter.h"
  22:.\Generated_Source\PSoC5/cyfitter_cfg.c **** #include "CyLib.h"
  23:.\Generated_Source\PSoC5/cyfitter_cfg.c **** #include "cyfitter_cfg.h"
  24:.\Generated_Source\PSoC5/cyfitter_cfg.c **** 
  25:.\Generated_Source\PSoC5/cyfitter_cfg.c **** #define CY_NEED_CYCLOCKSTARTUPERROR 1
  26:.\Generated_Source\PSoC5/cyfitter_cfg.c **** 
  27:.\Generated_Source\PSoC5/cyfitter_cfg.c **** 
  28:.\Generated_Source\PSoC5/cyfitter_cfg.c **** #if defined(__GNUC__) || defined(__ARMCC_VERSION)
  29:.\Generated_Source\PSoC5/cyfitter_cfg.c ****     #define CYPACKED 
  30:.\Generated_Source\PSoC5/cyfitter_cfg.c ****     #define CYPACKED_ATTR __attribute__ ((packed))
  31:.\Generated_Source\PSoC5/cyfitter_cfg.c ****     #define CYALIGNED __attribute__ ((aligned))
  32:.\Generated_Source\PSoC5/cyfitter_cfg.c ****     #define CY_CFG_UNUSED __attribute__ ((unused))
ARM GAS  C:\Users\nosak\AppData\Local\Temp\ccW0fACx.s 			page 2


  33:.\Generated_Source\PSoC5/cyfitter_cfg.c ****     #ifndef CY_CFG_SECTION
  34:.\Generated_Source\PSoC5/cyfitter_cfg.c ****         #define CY_CFG_SECTION __attribute__ ((section(".psocinit")))
  35:.\Generated_Source\PSoC5/cyfitter_cfg.c ****     #endif
  36:.\Generated_Source\PSoC5/cyfitter_cfg.c ****     
  37:.\Generated_Source\PSoC5/cyfitter_cfg.c ****     #if defined(__ARMCC_VERSION)
  38:.\Generated_Source\PSoC5/cyfitter_cfg.c ****         #define CY_CFG_MEMORY_BARRIER() __memory_changed()
  39:.\Generated_Source\PSoC5/cyfitter_cfg.c ****     #else
  40:.\Generated_Source\PSoC5/cyfitter_cfg.c ****         #define CY_CFG_MEMORY_BARRIER() __sync_synchronize()
  41:.\Generated_Source\PSoC5/cyfitter_cfg.c ****     #endif
  42:.\Generated_Source\PSoC5/cyfitter_cfg.c ****     
  43:.\Generated_Source\PSoC5/cyfitter_cfg.c **** #elif defined(__ICCARM__)
  44:.\Generated_Source\PSoC5/cyfitter_cfg.c ****     #include <intrinsics.h>
  45:.\Generated_Source\PSoC5/cyfitter_cfg.c **** 
  46:.\Generated_Source\PSoC5/cyfitter_cfg.c ****     #define CYPACKED __packed
  47:.\Generated_Source\PSoC5/cyfitter_cfg.c ****     #define CYPACKED_ATTR 
  48:.\Generated_Source\PSoC5/cyfitter_cfg.c ****     #define CYALIGNED _Pragma("data_alignment=4")
  49:.\Generated_Source\PSoC5/cyfitter_cfg.c ****     #define CY_CFG_UNUSED _Pragma("diag_suppress=Pe177")
  50:.\Generated_Source\PSoC5/cyfitter_cfg.c ****     #define CY_CFG_SECTION _Pragma("location=\".psocinit\"")
  51:.\Generated_Source\PSoC5/cyfitter_cfg.c ****     
  52:.\Generated_Source\PSoC5/cyfitter_cfg.c ****     #define CY_CFG_MEMORY_BARRIER() __DMB()
  53:.\Generated_Source\PSoC5/cyfitter_cfg.c ****     
  54:.\Generated_Source\PSoC5/cyfitter_cfg.c **** #else
  55:.\Generated_Source\PSoC5/cyfitter_cfg.c ****     #error Unsupported toolchain
  56:.\Generated_Source\PSoC5/cyfitter_cfg.c **** #endif
  57:.\Generated_Source\PSoC5/cyfitter_cfg.c **** 
  58:.\Generated_Source\PSoC5/cyfitter_cfg.c **** 
  59:.\Generated_Source\PSoC5/cyfitter_cfg.c **** CY_CFG_UNUSED
  60:.\Generated_Source\PSoC5/cyfitter_cfg.c **** static void CYMEMZERO(void *s, size_t n);
  61:.\Generated_Source\PSoC5/cyfitter_cfg.c **** CY_CFG_UNUSED
  62:.\Generated_Source\PSoC5/cyfitter_cfg.c **** static void CYMEMZERO(void *s, size_t n)
  63:.\Generated_Source\PSoC5/cyfitter_cfg.c **** {
  64:.\Generated_Source\PSoC5/cyfitter_cfg.c **** 	(void)memset(s, 0, n);
  65:.\Generated_Source\PSoC5/cyfitter_cfg.c **** }
  66:.\Generated_Source\PSoC5/cyfitter_cfg.c **** CY_CFG_UNUSED
  67:.\Generated_Source\PSoC5/cyfitter_cfg.c **** static void CYCONFIGCPY(void *dest, const void *src, size_t n);
  68:.\Generated_Source\PSoC5/cyfitter_cfg.c **** CY_CFG_UNUSED
  69:.\Generated_Source\PSoC5/cyfitter_cfg.c **** static void CYCONFIGCPY(void *dest, const void *src, size_t n)
  70:.\Generated_Source\PSoC5/cyfitter_cfg.c **** {
  71:.\Generated_Source\PSoC5/cyfitter_cfg.c **** 	(void)memcpy(dest, src, n);
  72:.\Generated_Source\PSoC5/cyfitter_cfg.c **** }
  73:.\Generated_Source\PSoC5/cyfitter_cfg.c **** CY_CFG_UNUSED
  74:.\Generated_Source\PSoC5/cyfitter_cfg.c **** static void CYCONFIGCPYCODE(void *dest, const void *src, size_t n);
  75:.\Generated_Source\PSoC5/cyfitter_cfg.c **** CY_CFG_UNUSED
  76:.\Generated_Source\PSoC5/cyfitter_cfg.c **** static void CYCONFIGCPYCODE(void *dest, const void *src, size_t n)
  77:.\Generated_Source\PSoC5/cyfitter_cfg.c **** {
  78:.\Generated_Source\PSoC5/cyfitter_cfg.c **** 	(void)memcpy(dest, src, n);
  79:.\Generated_Source\PSoC5/cyfitter_cfg.c **** }
  80:.\Generated_Source\PSoC5/cyfitter_cfg.c **** 
  81:.\Generated_Source\PSoC5/cyfitter_cfg.c **** 
  82:.\Generated_Source\PSoC5/cyfitter_cfg.c **** 
  83:.\Generated_Source\PSoC5/cyfitter_cfg.c **** /* Clock startup error codes                                                   */
  84:.\Generated_Source\PSoC5/cyfitter_cfg.c **** #define CYCLOCKSTART_NO_ERROR    0u
  85:.\Generated_Source\PSoC5/cyfitter_cfg.c **** #define CYCLOCKSTART_XTAL_ERROR  1u
  86:.\Generated_Source\PSoC5/cyfitter_cfg.c **** #define CYCLOCKSTART_32KHZ_ERROR 2u
  87:.\Generated_Source\PSoC5/cyfitter_cfg.c **** #define CYCLOCKSTART_PLL_ERROR   3u
  88:.\Generated_Source\PSoC5/cyfitter_cfg.c **** 
  89:.\Generated_Source\PSoC5/cyfitter_cfg.c **** #ifdef CY_NEED_CYCLOCKSTARTUPERROR
ARM GAS  C:\Users\nosak\AppData\Local\Temp\ccW0fACx.s 			page 3


  90:.\Generated_Source\PSoC5/cyfitter_cfg.c **** /*******************************************************************************
  91:.\Generated_Source\PSoC5/cyfitter_cfg.c **** * Function Name: CyClockStartupError
  92:.\Generated_Source\PSoC5/cyfitter_cfg.c **** ********************************************************************************
  93:.\Generated_Source\PSoC5/cyfitter_cfg.c **** * Summary:
  94:.\Generated_Source\PSoC5/cyfitter_cfg.c **** *  If an error is encountered during clock configuration (crystal startup error,
  95:.\Generated_Source\PSoC5/cyfitter_cfg.c **** *  PLL lock error, etc.), the system will end up here.  Unless reimplemented by
  96:.\Generated_Source\PSoC5/cyfitter_cfg.c **** *  the customer, this function will stop in an infinite loop.
  97:.\Generated_Source\PSoC5/cyfitter_cfg.c **** *
  98:.\Generated_Source\PSoC5/cyfitter_cfg.c **** * Parameters:
  99:.\Generated_Source\PSoC5/cyfitter_cfg.c **** *   void
 100:.\Generated_Source\PSoC5/cyfitter_cfg.c **** *
 101:.\Generated_Source\PSoC5/cyfitter_cfg.c **** * Return:
 102:.\Generated_Source\PSoC5/cyfitter_cfg.c **** *   void
 103:.\Generated_Source\PSoC5/cyfitter_cfg.c **** *
 104:.\Generated_Source\PSoC5/cyfitter_cfg.c **** *******************************************************************************/
 105:.\Generated_Source\PSoC5/cyfitter_cfg.c **** CY_CFG_UNUSED
 106:.\Generated_Source\PSoC5/cyfitter_cfg.c **** static void CyClockStartupError(uint8 errorCode);
 107:.\Generated_Source\PSoC5/cyfitter_cfg.c **** CY_CFG_UNUSED
 108:.\Generated_Source\PSoC5/cyfitter_cfg.c **** static void CyClockStartupError(uint8 errorCode)
 109:.\Generated_Source\PSoC5/cyfitter_cfg.c **** {
  26              		.loc 1 109 0
  27              		.cfi_startproc
  28              		@ Volatile: function does not return.
  29              		@ args = 0, pretend = 0, frame = 0
  30              		@ frame_needed = 0, uses_anonymous_args = 0
  31              		@ link register save eliminated.
  32              	.LVL0:
  33              	.L2:
 110:.\Generated_Source\PSoC5/cyfitter_cfg.c ****     /* To remove the compiler warning if errorCode not used.                */
 111:.\Generated_Source\PSoC5/cyfitter_cfg.c ****     errorCode = errorCode;
 112:.\Generated_Source\PSoC5/cyfitter_cfg.c **** 
 113:.\Generated_Source\PSoC5/cyfitter_cfg.c ****     /* `#START CyClockStartupError` */
 114:.\Generated_Source\PSoC5/cyfitter_cfg.c **** 
 115:.\Generated_Source\PSoC5/cyfitter_cfg.c ****     /* If we have a clock startup error (bad MHz crystal, PLL lock, etc.),  */
 116:.\Generated_Source\PSoC5/cyfitter_cfg.c ****     /* we will end up here to allow the customer to implement something to  */
 117:.\Generated_Source\PSoC5/cyfitter_cfg.c ****     /* deal with the clock condition.                                       */
 118:.\Generated_Source\PSoC5/cyfitter_cfg.c **** 
 119:.\Generated_Source\PSoC5/cyfitter_cfg.c ****     /* `#END` */
 120:.\Generated_Source\PSoC5/cyfitter_cfg.c **** 
 121:.\Generated_Source\PSoC5/cyfitter_cfg.c ****     /* If nothing else, stop here since the clocks have not started         */
 122:.\Generated_Source\PSoC5/cyfitter_cfg.c ****     /* correctly.                                                           */
 123:.\Generated_Source\PSoC5/cyfitter_cfg.c ****     while(1) {}
  34              		.loc 1 123 0 discriminator 1
  35 0000 FEE7     		b	.L2
  36              		.cfi_endproc
  37              	.LFE3:
  38              		.size	CyClockStartupError, .-CyClockStartupError
  39 0002 00BF     		.section	.text.cfg_write_bytes32,"ax",%progbits
  40              		.align	2
  41              		.thumb
  42              		.thumb_func
  43              		.type	cfg_write_bytes32, %function
  44              	cfg_write_bytes32:
  45              	.LFB4:
 124:.\Generated_Source\PSoC5/cyfitter_cfg.c **** }
 125:.\Generated_Source\PSoC5/cyfitter_cfg.c **** #endif
 126:.\Generated_Source\PSoC5/cyfitter_cfg.c **** 
ARM GAS  C:\Users\nosak\AppData\Local\Temp\ccW0fACx.s 			page 4


 127:.\Generated_Source\PSoC5/cyfitter_cfg.c **** #define CY_CFG_BASE_ADDR_COUNT 44u
 128:.\Generated_Source\PSoC5/cyfitter_cfg.c **** CYPACKED typedef struct
 129:.\Generated_Source\PSoC5/cyfitter_cfg.c **** {
 130:.\Generated_Source\PSoC5/cyfitter_cfg.c **** 	uint8 offset;
 131:.\Generated_Source\PSoC5/cyfitter_cfg.c **** 	uint8 value;
 132:.\Generated_Source\PSoC5/cyfitter_cfg.c **** } CYPACKED_ATTR cy_cfg_addrvalue_t;
 133:.\Generated_Source\PSoC5/cyfitter_cfg.c **** 
 134:.\Generated_Source\PSoC5/cyfitter_cfg.c **** #define cy_cfg_addr_table ((const uint32 CYFAR *)0x48000000u)
 135:.\Generated_Source\PSoC5/cyfitter_cfg.c **** #define cy_cfg_data_table ((const cy_cfg_addrvalue_t CYFAR *)0x480000B0u)
 136:.\Generated_Source\PSoC5/cyfitter_cfg.c **** 
 137:.\Generated_Source\PSoC5/cyfitter_cfg.c **** /* UDB_0_5_1_CONFIG Address: CYDEV_UCFG_B0_P7_U1_BASE Size (bytes): 128 */
 138:.\Generated_Source\PSoC5/cyfitter_cfg.c **** #define BS_UDB_0_5_1_CONFIG_VAL ((const uint8 CYFAR *)0x480011F0u)
 139:.\Generated_Source\PSoC5/cyfitter_cfg.c **** 
 140:.\Generated_Source\PSoC5/cyfitter_cfg.c **** /* UCFG_BCTL0 Address: CYREG_BCTL0_MDCLK_EN Size (bytes): 16 */
 141:.\Generated_Source\PSoC5/cyfitter_cfg.c **** #define BS_UCFG_BCTL0_VAL ((const uint8 CYFAR *)0x48001270u)
 142:.\Generated_Source\PSoC5/cyfitter_cfg.c **** 
 143:.\Generated_Source\PSoC5/cyfitter_cfg.c **** /* IOPINS0_0 Address: CYREG_PRT0_DM0 Size (bytes): 8 */
 144:.\Generated_Source\PSoC5/cyfitter_cfg.c **** #define BS_IOPINS0_0_VAL ((const uint8 CYFAR *)0x48001280u)
 145:.\Generated_Source\PSoC5/cyfitter_cfg.c **** 
 146:.\Generated_Source\PSoC5/cyfitter_cfg.c **** /* IOPINS0_7 Address: CYREG_PRT12_DR Size (bytes): 10 */
 147:.\Generated_Source\PSoC5/cyfitter_cfg.c **** #define BS_IOPINS0_7_VAL ((const uint8 CYFAR *)0x48001288u)
 148:.\Generated_Source\PSoC5/cyfitter_cfg.c **** 
 149:.\Generated_Source\PSoC5/cyfitter_cfg.c **** /* IOPINS1_7 Address: CYREG_PRT12_DR + 0x0000000Bu Size (bytes): 5 */
 150:.\Generated_Source\PSoC5/cyfitter_cfg.c **** #define BS_IOPINS1_7_VAL ((const uint8 CYFAR *)0x48001294u)
 151:.\Generated_Source\PSoC5/cyfitter_cfg.c **** 
 152:.\Generated_Source\PSoC5/cyfitter_cfg.c **** /* IOPINS0_8 Address: CYREG_PRT15_DR Size (bytes): 10 */
 153:.\Generated_Source\PSoC5/cyfitter_cfg.c **** #define BS_IOPINS0_8_VAL ((const uint8 CYFAR *)0x4800129Cu)
 154:.\Generated_Source\PSoC5/cyfitter_cfg.c **** 
 155:.\Generated_Source\PSoC5/cyfitter_cfg.c **** /* IOPINS0_1 Address: CYREG_PRT1_DR Size (bytes): 10 */
 156:.\Generated_Source\PSoC5/cyfitter_cfg.c **** #define BS_IOPINS0_1_VAL ((const uint8 CYFAR *)0x480012A8u)
 157:.\Generated_Source\PSoC5/cyfitter_cfg.c **** 
 158:.\Generated_Source\PSoC5/cyfitter_cfg.c **** /* IOPINS0_2 Address: CYREG_PRT2_DR Size (bytes): 10 */
 159:.\Generated_Source\PSoC5/cyfitter_cfg.c **** #define BS_IOPINS0_2_VAL ((const uint8 CYFAR *)0x480012B4u)
 160:.\Generated_Source\PSoC5/cyfitter_cfg.c **** 
 161:.\Generated_Source\PSoC5/cyfitter_cfg.c **** /* IOPINS0_3 Address: CYREG_PRT3_DR Size (bytes): 10 */
 162:.\Generated_Source\PSoC5/cyfitter_cfg.c **** #define BS_IOPINS0_3_VAL ((const uint8 CYFAR *)0x480012C0u)
 163:.\Generated_Source\PSoC5/cyfitter_cfg.c **** 
 164:.\Generated_Source\PSoC5/cyfitter_cfg.c **** /* IOPINS0_4 Address: CYREG_PRT4_DR Size (bytes): 10 */
 165:.\Generated_Source\PSoC5/cyfitter_cfg.c **** #define BS_IOPINS0_4_VAL ((const uint8 CYFAR *)0x480012CCu)
 166:.\Generated_Source\PSoC5/cyfitter_cfg.c **** 
 167:.\Generated_Source\PSoC5/cyfitter_cfg.c **** /* IOPINS0_5 Address: CYREG_PRT5_DR Size (bytes): 10 */
 168:.\Generated_Source\PSoC5/cyfitter_cfg.c **** #define BS_IOPINS0_5_VAL ((const uint8 CYFAR *)0x480012D8u)
 169:.\Generated_Source\PSoC5/cyfitter_cfg.c **** 
 170:.\Generated_Source\PSoC5/cyfitter_cfg.c **** /* IOPINS0_6 Address: CYREG_PRT6_DM0 Size (bytes): 8 */
 171:.\Generated_Source\PSoC5/cyfitter_cfg.c **** #define BS_IOPINS0_6_VAL ((const uint8 CYFAR *)0x480012E4u)
 172:.\Generated_Source\PSoC5/cyfitter_cfg.c **** 
 173:.\Generated_Source\PSoC5/cyfitter_cfg.c **** 
 174:.\Generated_Source\PSoC5/cyfitter_cfg.c **** /*******************************************************************************
 175:.\Generated_Source\PSoC5/cyfitter_cfg.c **** * Function Name: cfg_write_bytes32
 176:.\Generated_Source\PSoC5/cyfitter_cfg.c **** ********************************************************************************
 177:.\Generated_Source\PSoC5/cyfitter_cfg.c **** * Summary:
 178:.\Generated_Source\PSoC5/cyfitter_cfg.c **** *  This function is used for setting up the chip configuration areas that
 179:.\Generated_Source\PSoC5/cyfitter_cfg.c **** *  contain relatively sparse data.
 180:.\Generated_Source\PSoC5/cyfitter_cfg.c **** *
 181:.\Generated_Source\PSoC5/cyfitter_cfg.c **** * Parameters:
 182:.\Generated_Source\PSoC5/cyfitter_cfg.c **** *   void
 183:.\Generated_Source\PSoC5/cyfitter_cfg.c **** *
ARM GAS  C:\Users\nosak\AppData\Local\Temp\ccW0fACx.s 			page 5


 184:.\Generated_Source\PSoC5/cyfitter_cfg.c **** * Return:
 185:.\Generated_Source\PSoC5/cyfitter_cfg.c **** *   void
 186:.\Generated_Source\PSoC5/cyfitter_cfg.c **** *
 187:.\Generated_Source\PSoC5/cyfitter_cfg.c **** *******************************************************************************/
 188:.\Generated_Source\PSoC5/cyfitter_cfg.c **** static void cfg_write_bytes32(const uint32 addr_table[], const cy_cfg_addrvalue_t data_table[]);
 189:.\Generated_Source\PSoC5/cyfitter_cfg.c **** static void cfg_write_bytes32(const uint32 addr_table[], const cy_cfg_addrvalue_t data_table[])
 190:.\Generated_Source\PSoC5/cyfitter_cfg.c **** {
  46              		.loc 1 190 0
  47              		.cfi_startproc
  48              		@ args = 0, pretend = 0, frame = 0
  49              		@ frame_needed = 0, uses_anonymous_args = 0
  50              		@ link register save eliminated.
  51              	.LVL1:
  52 0000 F0B4     		push	{r4, r5, r6, r7}
  53              		.cfi_def_cfa_offset 16
  54              		.cfi_offset 4, -16
  55              		.cfi_offset 5, -12
  56              		.cfi_offset 6, -8
  57              		.cfi_offset 7, -4
  58              	.LVL2:
 191:.\Generated_Source\PSoC5/cyfitter_cfg.c **** 	/* For 32-bit little-endian architectures */
 192:.\Generated_Source\PSoC5/cyfitter_cfg.c **** 	uint32 i, j = 0u;
  59              		.loc 1 192 0
  60 0002 0022     		movs	r2, #0
 193:.\Generated_Source\PSoC5/cyfitter_cfg.c **** 	for (i = 0u; i < CY_CFG_BASE_ADDR_COUNT; i++)
  61              		.loc 1 193 0
  62 0004 1746     		mov	r7, r2
  63 0006 11E0     		b	.L4
  64              	.LVL3:
  65              	.L7:
  66              	.LBB2:
 194:.\Generated_Source\PSoC5/cyfitter_cfg.c **** 	{
 195:.\Generated_Source\PSoC5/cyfitter_cfg.c **** 		uint32 baseAddr = addr_table[i];
  67              		.loc 1 195 0
  68 0008 50F82760 		ldr	r6, [r0, r7, lsl #2]
  69              	.LVL4:
 196:.\Generated_Source\PSoC5/cyfitter_cfg.c **** 		uint8 count = (uint8)baseAddr;
  70              		.loc 1 196 0
  71 000c F3B2     		uxtb	r3, r6
  72              	.LVL5:
 197:.\Generated_Source\PSoC5/cyfitter_cfg.c **** 		baseAddr &= 0xFFFFFF00u;
  73              		.loc 1 197 0
  74 000e 26F0FF06 		bic	r6, r6, #255
  75              	.LVL6:
 198:.\Generated_Source\PSoC5/cyfitter_cfg.c **** 		while (count != 0u)
  76              		.loc 1 198 0
  77 0012 08E0     		b	.L5
  78              	.L6:
 199:.\Generated_Source\PSoC5/cyfitter_cfg.c **** 		{
 200:.\Generated_Source\PSoC5/cyfitter_cfg.c **** 			CY_SET_XTND_REG8((void CYFAR *)(baseAddr + data_table[j].offset), data_table[j].value);
  79              		.loc 1 200 0
  80 0014 01EB4205 		add	r5, r1, r2, lsl #1
  81 0018 11F81240 		ldrb	r4, [r1, r2, lsl #1]	@ zero_extendqisi2
  82 001c 6D78     		ldrb	r5, [r5, #1]	@ zero_extendqisi2
  83 001e A555     		strb	r5, [r4, r6]
 201:.\Generated_Source\PSoC5/cyfitter_cfg.c **** 			j++;
  84              		.loc 1 201 0
ARM GAS  C:\Users\nosak\AppData\Local\Temp\ccW0fACx.s 			page 6


  85 0020 0132     		adds	r2, r2, #1
  86              	.LVL7:
 202:.\Generated_Source\PSoC5/cyfitter_cfg.c **** 			count--;
  87              		.loc 1 202 0
  88 0022 013B     		subs	r3, r3, #1
  89              	.LVL8:
  90 0024 DBB2     		uxtb	r3, r3
  91              	.LVL9:
  92              	.L5:
 198:.\Generated_Source\PSoC5/cyfitter_cfg.c **** 		{
  93              		.loc 1 198 0
  94 0026 002B     		cmp	r3, #0
  95 0028 F4D1     		bne	.L6
  96              	.LBE2:
 193:.\Generated_Source\PSoC5/cyfitter_cfg.c **** 	{
  97              		.loc 1 193 0 discriminator 2
  98 002a 0137     		adds	r7, r7, #1
  99              	.LVL10:
 100              	.L4:
 193:.\Generated_Source\PSoC5/cyfitter_cfg.c **** 	{
 101              		.loc 1 193 0 is_stmt 0 discriminator 1
 102 002c 2B2F     		cmp	r7, #43
 103 002e EBD9     		bls	.L7
 203:.\Generated_Source\PSoC5/cyfitter_cfg.c **** 		}
 204:.\Generated_Source\PSoC5/cyfitter_cfg.c **** 	}
 205:.\Generated_Source\PSoC5/cyfitter_cfg.c **** }
 104              		.loc 1 205 0 is_stmt 1
 105 0030 F0BC     		pop	{r4, r5, r6, r7}
 106              		.cfi_restore 7
 107              		.cfi_restore 6
 108              		.cfi_restore 5
 109              		.cfi_restore 4
 110              		.cfi_def_cfa_offset 0
 111              	.LVL11:
 112 0032 7047     		bx	lr
 113              		.cfi_endproc
 114              	.LFE4:
 115              		.size	cfg_write_bytes32, .-cfg_write_bytes32
 116              		.section	.text.CYMEMZERO,"ax",%progbits
 117              		.align	2
 118              		.thumb
 119              		.thumb_func
 120              		.type	CYMEMZERO, %function
 121              	CYMEMZERO:
 122              	.LFB0:
  63:.\Generated_Source\PSoC5/cyfitter_cfg.c **** 	(void)memset(s, 0, n);
 123              		.loc 1 63 0
 124              		.cfi_startproc
 125              		@ args = 0, pretend = 0, frame = 0
 126              		@ frame_needed = 0, uses_anonymous_args = 0
 127              	.LVL12:
 128 0000 08B5     		push	{r3, lr}
 129              		.cfi_def_cfa_offset 8
 130              		.cfi_offset 3, -8
 131              		.cfi_offset 14, -4
 132 0002 0A46     		mov	r2, r1
  64:.\Generated_Source\PSoC5/cyfitter_cfg.c **** }
ARM GAS  C:\Users\nosak\AppData\Local\Temp\ccW0fACx.s 			page 7


 133              		.loc 1 64 0
 134 0004 0021     		movs	r1, #0
 135              	.LVL13:
 136 0006 FFF7FEFF 		bl	memset
 137              	.LVL14:
 138 000a 08BD     		pop	{r3, pc}
 139              		.cfi_endproc
 140              	.LFE0:
 141              		.size	CYMEMZERO, .-CYMEMZERO
 142              		.section	.text.ClockSetup,"ax",%progbits
 143              		.align	2
 144              		.thumb
 145              		.thumb_func
 146              		.type	ClockSetup, %function
 147              	ClockSetup:
 148              	.LFB5:
 206:.\Generated_Source\PSoC5/cyfitter_cfg.c **** 
 207:.\Generated_Source\PSoC5/cyfitter_cfg.c **** /*******************************************************************************
 208:.\Generated_Source\PSoC5/cyfitter_cfg.c **** * Function Name: ClockSetup
 209:.\Generated_Source\PSoC5/cyfitter_cfg.c **** ********************************************************************************
 210:.\Generated_Source\PSoC5/cyfitter_cfg.c **** *
 211:.\Generated_Source\PSoC5/cyfitter_cfg.c **** * Summary:
 212:.\Generated_Source\PSoC5/cyfitter_cfg.c **** *  Performs the initialization of all of the clocks in the device based on the
 213:.\Generated_Source\PSoC5/cyfitter_cfg.c **** *  settings in the Clock tab of the DWR.  This includes enabling the requested
 214:.\Generated_Source\PSoC5/cyfitter_cfg.c **** *  clocks and setting the necessary dividers to produce the desired frequency. 
 215:.\Generated_Source\PSoC5/cyfitter_cfg.c **** *
 216:.\Generated_Source\PSoC5/cyfitter_cfg.c **** * Parameters:
 217:.\Generated_Source\PSoC5/cyfitter_cfg.c **** *  void
 218:.\Generated_Source\PSoC5/cyfitter_cfg.c **** *
 219:.\Generated_Source\PSoC5/cyfitter_cfg.c **** * Return:
 220:.\Generated_Source\PSoC5/cyfitter_cfg.c **** *  void
 221:.\Generated_Source\PSoC5/cyfitter_cfg.c **** *
 222:.\Generated_Source\PSoC5/cyfitter_cfg.c **** *******************************************************************************/
 223:.\Generated_Source\PSoC5/cyfitter_cfg.c **** static void ClockSetup(void);
 224:.\Generated_Source\PSoC5/cyfitter_cfg.c **** static void ClockSetup(void)
 225:.\Generated_Source\PSoC5/cyfitter_cfg.c **** {
 149              		.loc 1 225 0
 150              		.cfi_startproc
 151              		@ args = 0, pretend = 0, frame = 0
 152              		@ frame_needed = 0, uses_anonymous_args = 0
 153 0000 38B5     		push	{r3, r4, r5, lr}
 154              		.cfi_def_cfa_offset 16
 155              		.cfi_offset 3, -16
 156              		.cfi_offset 4, -12
 157              		.cfi_offset 5, -8
 158              		.cfi_offset 14, -4
 226:.\Generated_Source\PSoC5/cyfitter_cfg.c **** 	uint8 x32TrHold;
 227:.\Generated_Source\PSoC5/cyfitter_cfg.c **** 	uint32 timeout;
 228:.\Generated_Source\PSoC5/cyfitter_cfg.c **** 	uint8 pllLock;
 229:.\Generated_Source\PSoC5/cyfitter_cfg.c **** 
 230:.\Generated_Source\PSoC5/cyfitter_cfg.c **** 	x32TrHold = CY_GET_XTND_REG8((void CYFAR *)CYREG_X32_TR);
 159              		.loc 1 230 0
 160 0002 4A4A     		ldr	r2, .L24
 161 0004 1578     		ldrb	r5, [r2]	@ zero_extendqisi2
 162 0006 EDB2     		uxtb	r5, r5
 163              	.LVL15:
 231:.\Generated_Source\PSoC5/cyfitter_cfg.c **** 
ARM GAS  C:\Users\nosak\AppData\Local\Temp\ccW0fACx.s 			page 8


 232:.\Generated_Source\PSoC5/cyfitter_cfg.c **** 	/* Configure Digital Clocks based on settings from Clock DWR */
 233:.\Generated_Source\PSoC5/cyfitter_cfg.c **** 	CY_SET_XTND_REG16((void CYFAR *)(CYREG_CLKDIST_DCFG0_CFG0), 0x0000u);
 164              		.loc 1 233 0
 165 0008 0021     		movs	r1, #0
 166 000a 494B     		ldr	r3, .L24+4
 167 000c 1980     		strh	r1, [r3]	@ movhi
 234:.\Generated_Source\PSoC5/cyfitter_cfg.c **** 	CY_SET_XTND_REG8((void CYFAR *)(CYREG_CLKDIST_DCFG0_CFG0 + 0x2u), 0x19u);
 168              		.loc 1 234 0
 169 000e 1921     		movs	r1, #25
 170 0010 0233     		adds	r3, r3, #2
 171 0012 1970     		strb	r1, [r3]
 235:.\Generated_Source\PSoC5/cyfitter_cfg.c **** 	CY_SET_XTND_REG16((void CYFAR *)(CYREG_CLKDIST_DCFG1_CFG0), 0x0007u);
 172              		.loc 1 235 0
 173 0014 0721     		movs	r1, #7
 174 0016 0233     		adds	r3, r3, #2
 175 0018 1980     		strh	r1, [r3]	@ movhi
 236:.\Generated_Source\PSoC5/cyfitter_cfg.c **** 	CY_SET_XTND_REG8((void CYFAR *)(CYREG_CLKDIST_DCFG1_CFG0 + 0x2u), 0x18u);
 176              		.loc 1 236 0
 177 001a 1823     		movs	r3, #24
 178 001c 4549     		ldr	r1, .L24+8
 179 001e 0B70     		strb	r3, [r1]
 237:.\Generated_Source\PSoC5/cyfitter_cfg.c **** 	CY_SET_XTND_REG16((void CYFAR *)(CYREG_CLKDIST_DCFG2_CFG0), 0x001Fu);
 180              		.loc 1 237 0
 181 0020 1F20     		movs	r0, #31
 182 0022 0231     		adds	r1, r1, #2
 183 0024 0880     		strh	r0, [r1]	@ movhi
 238:.\Generated_Source\PSoC5/cyfitter_cfg.c **** 	CY_SET_XTND_REG8((void CYFAR *)(CYREG_CLKDIST_DCFG2_CFG0 + 0x2u), 0x18u);
 184              		.loc 1 238 0
 185 0026 0231     		adds	r1, r1, #2
 186 0028 0B70     		strb	r3, [r1]
 239:.\Generated_Source\PSoC5/cyfitter_cfg.c **** 	CY_SET_XTND_REG16((void CYFAR *)(CYREG_CLKDIST_DCFG3_CFG0), 0x0027u);
 187              		.loc 1 239 0
 188 002a 2720     		movs	r0, #39
 189 002c 0231     		adds	r1, r1, #2
 190 002e 0880     		strh	r0, [r1]	@ movhi
 240:.\Generated_Source\PSoC5/cyfitter_cfg.c **** 	CY_SET_XTND_REG8((void CYFAR *)(CYREG_CLKDIST_DCFG3_CFG0 + 0x2u), 0x18u);
 191              		.loc 1 240 0
 192 0030 0231     		adds	r1, r1, #2
 193 0032 0B70     		strb	r3, [r1]
 241:.\Generated_Source\PSoC5/cyfitter_cfg.c **** 	CY_SET_XTND_REG16((void CYFAR *)(CYREG_CLKDIST_DCFG4_CFG0), 0x008Au);
 194              		.loc 1 241 0
 195 0034 8A20     		movs	r0, #138
 196 0036 0231     		adds	r1, r1, #2
 197 0038 0880     		strh	r0, [r1]	@ movhi
 242:.\Generated_Source\PSoC5/cyfitter_cfg.c **** 	CY_SET_XTND_REG8((void CYFAR *)(CYREG_CLKDIST_DCFG4_CFG0 + 0x2u), 0x18u);
 198              		.loc 1 242 0
 199 003a 0231     		adds	r1, r1, #2
 200 003c 0B70     		strb	r3, [r1]
 243:.\Generated_Source\PSoC5/cyfitter_cfg.c **** 
 244:.\Generated_Source\PSoC5/cyfitter_cfg.c **** 	/* Configure ILO based on settings from Clock DWR */
 245:.\Generated_Source\PSoC5/cyfitter_cfg.c **** 	CY_SET_XTND_REG8((void CYFAR *)(CYREG_SLOWCLK_ILO_CR0), 0x06u);
 201              		.loc 1 245 0
 202 003e 0621     		movs	r1, #6
 203 0040 3D4B     		ldr	r3, .L24+12
 204 0042 1970     		strb	r1, [r3]
 246:.\Generated_Source\PSoC5/cyfitter_cfg.c **** 
 247:.\Generated_Source\PSoC5/cyfitter_cfg.c **** 	/* Configure XTAL 32kHz based on settings from Clock DWR */
ARM GAS  C:\Users\nosak\AppData\Local\Temp\ccW0fACx.s 			page 9


 248:.\Generated_Source\PSoC5/cyfitter_cfg.c **** 	CY_SET_XTND_REG8((void CYFAR *)(CYREG_SLOWCLK_X32_TST), 0xF3u);
 205              		.loc 1 248 0
 206 0044 F321     		movs	r1, #243
 207 0046 0A33     		adds	r3, r3, #10
 208 0048 1970     		strb	r1, [r3]
 249:.\Generated_Source\PSoC5/cyfitter_cfg.c **** 	CY_SET_XTND_REG8((void CYFAR *)(CYREG_X32_TR), 0x03u);
 209              		.loc 1 249 0
 210 004a 0323     		movs	r3, #3
 211 004c 1370     		strb	r3, [r2]
 250:.\Generated_Source\PSoC5/cyfitter_cfg.c **** 	CY_SET_XTND_REG8((void CYFAR *)(CYREG_SLOWCLK_X32_CFG), 0x84u);
 212              		.loc 1 250 0
 213 004e 8422     		movs	r2, #132
 214 0050 3A4B     		ldr	r3, .L24+16
 215 0052 1A70     		strb	r2, [r3]
 251:.\Generated_Source\PSoC5/cyfitter_cfg.c **** 	CY_SET_XTND_REG8((void CYFAR *)(CYREG_SLOWCLK_X32_CR), 0x05u);
 216              		.loc 1 251 0
 217 0054 0522     		movs	r2, #5
 218 0056 013B     		subs	r3, r3, #1
 219 0058 1A70     		strb	r2, [r3]
 220              	.LVL16:
 252:.\Generated_Source\PSoC5/cyfitter_cfg.c **** 	/* Wait up to 1000000us for the XTAL 32kHz to lock */
 253:.\Generated_Source\PSoC5/cyfitter_cfg.c **** 	for (timeout = 1000000u / 10u; (timeout > 0u) && ((CY_GET_XTND_REG8((void CYFAR *)CYREG_SLOWCLK_X3
 221              		.loc 1 253 0
 222 005a 394C     		ldr	r4, .L24+20
 223 005c 04E0     		b	.L12
 224              	.LVL17:
 225              	.L14:
 254:.\Generated_Source\PSoC5/cyfitter_cfg.c **** 	{ 
 255:.\Generated_Source\PSoC5/cyfitter_cfg.c **** 		
 256:.\Generated_Source\PSoC5/cyfitter_cfg.c **** 		CyDelayCycles(10u * 48u); /* Delay 10us based on 48MHz clock */
 226              		.loc 1 256 0 discriminator 4
 227 005e 4FF4F070 		mov	r0, #480
 228 0062 FFF7FEFF 		bl	CyDelayCycles
 229              	.LVL18:
 253:.\Generated_Source\PSoC5/cyfitter_cfg.c **** 	{ 
 230              		.loc 1 253 0 discriminator 4
 231 0066 013C     		subs	r4, r4, #1
 232              	.LVL19:
 233              	.L12:
 253:.\Generated_Source\PSoC5/cyfitter_cfg.c **** 	{ 
 234              		.loc 1 253 0 is_stmt 0 discriminator 1
 235 0068 24B1     		cbz	r4, .L13
 253:.\Generated_Source\PSoC5/cyfitter_cfg.c **** 	{ 
 236              		.loc 1 253 0 discriminator 3
 237 006a 364B     		ldr	r3, .L24+24
 238 006c 1B78     		ldrb	r3, [r3]	@ zero_extendqisi2
 239 006e 13F0200F 		tst	r3, #32
 240 0072 F4D0     		beq	.L14
 241              	.L13:
 257:.\Generated_Source\PSoC5/cyfitter_cfg.c **** 	}
 258:.\Generated_Source\PSoC5/cyfitter_cfg.c **** 	CY_SET_XTND_REG8((void CYFAR *)(CYREG_X32_TR), (x32TrHold));
 242              		.loc 1 258 0 is_stmt 1
 243 0074 2D4B     		ldr	r3, .L24
 244 0076 1D70     		strb	r5, [r3]
 259:.\Generated_Source\PSoC5/cyfitter_cfg.c **** 
 260:.\Generated_Source\PSoC5/cyfitter_cfg.c **** 	/* Configure XTAL based on settings from Clock DWR */
 261:.\Generated_Source\PSoC5/cyfitter_cfg.c **** 	CY_SET_XTND_REG16((void CYFAR *)(CYREG_FASTCLK_XMHZ_CFG0), 0x3313u);
ARM GAS  C:\Users\nosak\AppData\Local\Temp\ccW0fACx.s 			page 10


 245              		.loc 1 261 0
 246 0078 43F21332 		movw	r2, #13075
 247 007c A3F28643 		subw	r3, r3, #1158
 248 0080 1A80     		strh	r2, [r3]	@ movhi
 262:.\Generated_Source\PSoC5/cyfitter_cfg.c **** 	CY_SET_XTND_REG8((void CYFAR *)(CYREG_FASTCLK_XMHZ_CSR), 0x05u);
 249              		.loc 1 262 0
 250 0082 023B     		subs	r3, r3, #2
 251 0084 0522     		movs	r2, #5
 252 0086 1A70     		strb	r2, [r3]
 263:.\Generated_Source\PSoC5/cyfitter_cfg.c **** 	/* Wait up to 130000us for the XTAL to lock */
 264:.\Generated_Source\PSoC5/cyfitter_cfg.c **** 	CY_GET_XTND_REG8((void CYFAR *)CYREG_FASTCLK_XMHZ_CSR);
 253              		.loc 1 264 0
 254 0088 1B78     		ldrb	r3, [r3]	@ zero_extendqisi2
 255              	.LVL20:
 265:.\Generated_Source\PSoC5/cyfitter_cfg.c **** 	for (timeout = 130000u / 10u; (timeout > 0u) && ((CY_GET_XTND_REG8((void CYFAR *)CYREG_FASTCLK_XMH
 256              		.loc 1 265 0
 257 008a 43F2C824 		movw	r4, #13000
 258 008e 04E0     		b	.L15
 259              	.LVL21:
 260              	.L17:
 266:.\Generated_Source\PSoC5/cyfitter_cfg.c **** 	{ 
 267:.\Generated_Source\PSoC5/cyfitter_cfg.c **** 		
 268:.\Generated_Source\PSoC5/cyfitter_cfg.c **** 		CyDelayCycles(10u * 48u); /* Delay 10us based on 48MHz clock */
 261              		.loc 1 268 0 discriminator 4
 262 0090 4FF4F070 		mov	r0, #480
 263 0094 FFF7FEFF 		bl	CyDelayCycles
 264              	.LVL22:
 265:.\Generated_Source\PSoC5/cyfitter_cfg.c **** 	for (timeout = 130000u / 10u; (timeout > 0u) && ((CY_GET_XTND_REG8((void CYFAR *)CYREG_FASTCLK_XMH
 265              		.loc 1 265 0 discriminator 4
 266 0098 013C     		subs	r4, r4, #1
 267              	.LVL23:
 268              	.L15:
 265:.\Generated_Source\PSoC5/cyfitter_cfg.c **** 	for (timeout = 130000u / 10u; (timeout > 0u) && ((CY_GET_XTND_REG8((void CYFAR *)CYREG_FASTCLK_XMH
 269              		.loc 1 265 0 is_stmt 0 discriminator 1
 270 009a 24B1     		cbz	r4, .L16
 265:.\Generated_Source\PSoC5/cyfitter_cfg.c **** 	for (timeout = 130000u / 10u; (timeout > 0u) && ((CY_GET_XTND_REG8((void CYFAR *)CYREG_FASTCLK_XMH
 271              		.loc 1 265 0 discriminator 3
 272 009c 2A4B     		ldr	r3, .L24+28
 273 009e 1B78     		ldrb	r3, [r3]	@ zero_extendqisi2
 274 00a0 13F0800F 		tst	r3, #128
 275 00a4 F4D1     		bne	.L17
 276              	.L16:
 269:.\Generated_Source\PSoC5/cyfitter_cfg.c **** 	}
 270:.\Generated_Source\PSoC5/cyfitter_cfg.c **** 	if (timeout == 0u)
 277              		.loc 1 270 0 is_stmt 1
 278 00a6 14B9     		cbnz	r4, .L18
 271:.\Generated_Source\PSoC5/cyfitter_cfg.c **** 	{
 272:.\Generated_Source\PSoC5/cyfitter_cfg.c **** 		CyClockStartupError(CYCLOCKSTART_XTAL_ERROR);
 279              		.loc 1 272 0
 280 00a8 0120     		movs	r0, #1
 281 00aa FFF7FEFF 		bl	CyClockStartupError
 282              	.LVL24:
 283              	.L18:
 273:.\Generated_Source\PSoC5/cyfitter_cfg.c **** 	}
 274:.\Generated_Source\PSoC5/cyfitter_cfg.c **** 	CY_SET_XTND_REG8((void CYFAR *)(CYREG_CLKDIST_CR), 0x40u);
 284              		.loc 1 274 0
 285 00ae 4022     		movs	r2, #64
ARM GAS  C:\Users\nosak\AppData\Local\Temp\ccW0fACx.s 			page 11


 286 00b0 4FF04023 		mov	r3, #1073758208
 287 00b4 1A70     		strb	r2, [r3]
 275:.\Generated_Source\PSoC5/cyfitter_cfg.c **** 
 276:.\Generated_Source\PSoC5/cyfitter_cfg.c **** 	/* Configure IMO based on settings from Clock DWR */
 277:.\Generated_Source\PSoC5/cyfitter_cfg.c **** 	CY_SET_XTND_REG8((void CYFAR *)(CYREG_FASTCLK_IMO_CR), 0x70u);
 288              		.loc 1 277 0
 289 00b6 7022     		movs	r2, #112
 290 00b8 03F50073 		add	r3, r3, #512
 291 00bc 1A70     		strb	r2, [r3]
 278:.\Generated_Source\PSoC5/cyfitter_cfg.c **** 
 279:.\Generated_Source\PSoC5/cyfitter_cfg.c **** 	/* Configure PLL based on settings from Clock DWR */
 280:.\Generated_Source\PSoC5/cyfitter_cfg.c **** 	CY_SET_XTND_REG16((void CYFAR *)(CYREG_FASTCLK_PLL_P), 0x0818u);
 292              		.loc 1 280 0
 293 00be 40F61802 		movw	r2, #2072
 294 00c2 2233     		adds	r3, r3, #34
 295 00c4 1A80     		strh	r2, [r3]	@ movhi
 281:.\Generated_Source\PSoC5/cyfitter_cfg.c **** 	CY_SET_XTND_REG16((void CYFAR *)(CYREG_FASTCLK_PLL_CFG0), 0x1251u);
 296              		.loc 1 281 0
 297 00c6 41F25122 		movw	r2, #4689
 298 00ca 023B     		subs	r3, r3, #2
 299 00cc 1A80     		strh	r2, [r3]	@ movhi
 300              	.LVL25:
 282:.\Generated_Source\PSoC5/cyfitter_cfg.c **** 	/* Wait up to 250us for the PLL to lock */
 283:.\Generated_Source\PSoC5/cyfitter_cfg.c **** 	pllLock = 0u;
 301              		.loc 1 283 0
 302 00ce 0024     		movs	r4, #0
 284:.\Generated_Source\PSoC5/cyfitter_cfg.c **** 	for (timeout = 250u / 10u; (timeout > 0u) && (pllLock != 0x03u); timeout--)
 303              		.loc 1 284 0
 304 00d0 1925     		movs	r5, #25
 305              	.LVL26:
 306 00d2 0CE0     		b	.L19
 307              	.LVL27:
 308              	.L21:
 285:.\Generated_Source\PSoC5/cyfitter_cfg.c **** 	{ 
 286:.\Generated_Source\PSoC5/cyfitter_cfg.c **** 		pllLock = 0x03u & ((uint8)((uint8)pllLock << 1) | ((CY_GET_XTND_REG8((void CYFAR *)CYREG_FASTCLK_
 309              		.loc 1 286 0 discriminator 4
 310 00d4 1D4B     		ldr	r3, .L24+32
 311 00d6 1B78     		ldrb	r3, [r3]	@ zero_extendqisi2
 312 00d8 03F00103 		and	r3, r3, #1
 313 00dc 43EA4404 		orr	r4, r3, r4, lsl #1
 314              	.LVL28:
 315 00e0 04F00304 		and	r4, r4, #3
 316              	.LVL29:
 287:.\Generated_Source\PSoC5/cyfitter_cfg.c **** 		CyDelayCycles(10u * 48u); /* Delay 10us based on 48MHz clock */
 317              		.loc 1 287 0 discriminator 4
 318 00e4 4FF4F070 		mov	r0, #480
 319 00e8 FFF7FEFF 		bl	CyDelayCycles
 320              	.LVL30:
 284:.\Generated_Source\PSoC5/cyfitter_cfg.c **** 	for (timeout = 250u / 10u; (timeout > 0u) && (pllLock != 0x03u); timeout--)
 321              		.loc 1 284 0 discriminator 4
 322 00ec 013D     		subs	r5, r5, #1
 323              	.LVL31:
 324              	.L19:
 284:.\Generated_Source\PSoC5/cyfitter_cfg.c **** 	for (timeout = 250u / 10u; (timeout > 0u) && (pllLock != 0x03u); timeout--)
 325              		.loc 1 284 0 is_stmt 0 discriminator 1
 326 00ee 0DB1     		cbz	r5, .L20
 284:.\Generated_Source\PSoC5/cyfitter_cfg.c **** 	for (timeout = 250u / 10u; (timeout > 0u) && (pllLock != 0x03u); timeout--)
ARM GAS  C:\Users\nosak\AppData\Local\Temp\ccW0fACx.s 			page 12


 327              		.loc 1 284 0 discriminator 3
 328 00f0 032C     		cmp	r4, #3
 329 00f2 EFD1     		bne	.L21
 330              	.L20:
 288:.\Generated_Source\PSoC5/cyfitter_cfg.c **** 	}
 289:.\Generated_Source\PSoC5/cyfitter_cfg.c **** 	/* If we ran out of time the PLL didn't lock so go to the error function */
 290:.\Generated_Source\PSoC5/cyfitter_cfg.c **** 	if (timeout == 0u)
 331              		.loc 1 290 0 is_stmt 1
 332 00f4 15B9     		cbnz	r5, .L22
 291:.\Generated_Source\PSoC5/cyfitter_cfg.c **** 	{
 292:.\Generated_Source\PSoC5/cyfitter_cfg.c **** 		CyClockStartupError(CYCLOCKSTART_PLL_ERROR);
 333              		.loc 1 292 0
 334 00f6 0320     		movs	r0, #3
 335 00f8 FFF7FEFF 		bl	CyClockStartupError
 336              	.LVL32:
 337              	.L22:
 293:.\Generated_Source\PSoC5/cyfitter_cfg.c **** 	}
 294:.\Generated_Source\PSoC5/cyfitter_cfg.c **** 
 295:.\Generated_Source\PSoC5/cyfitter_cfg.c **** 	/* Configure Bus/Master Clock based on settings from Clock DWR */
 296:.\Generated_Source\PSoC5/cyfitter_cfg.c **** 	CY_SET_XTND_REG16((void CYFAR *)(CYREG_CLKDIST_MSTR0), 0x0100u);
 338              		.loc 1 296 0
 339 00fc 144A     		ldr	r2, .L24+36
 340 00fe 4FF48073 		mov	r3, #256
 341 0102 1380     		strh	r3, [r2]	@ movhi
 297:.\Generated_Source\PSoC5/cyfitter_cfg.c **** 	CY_SET_XTND_REG8((void CYFAR *)(CYREG_CLKDIST_MSTR0), 0x07u);
 342              		.loc 1 297 0
 343 0104 0723     		movs	r3, #7
 344 0106 1370     		strb	r3, [r2]
 298:.\Generated_Source\PSoC5/cyfitter_cfg.c **** 	CY_SET_XTND_REG8((void CYFAR *)(CYREG_CLKDIST_BCFG0), 0x00u);
 345              		.loc 1 298 0
 346 0108 0023     		movs	r3, #0
 347 010a 1249     		ldr	r1, .L24+40
 348 010c 0B70     		strb	r3, [r1]
 299:.\Generated_Source\PSoC5/cyfitter_cfg.c **** 	CY_SET_XTND_REG8((void CYFAR *)(CYREG_CLKDIST_BCFG2), 0x48u);
 349              		.loc 1 299 0
 350 010e 4820     		movs	r0, #72
 351 0110 0231     		adds	r1, r1, #2
 352 0112 0870     		strb	r0, [r1]
 300:.\Generated_Source\PSoC5/cyfitter_cfg.c **** 	CY_SET_XTND_REG8((void CYFAR *)(CYREG_CLKDIST_MSTR0), 0x00u);
 353              		.loc 1 300 0
 354 0114 1370     		strb	r3, [r2]
 301:.\Generated_Source\PSoC5/cyfitter_cfg.c **** 
 302:.\Generated_Source\PSoC5/cyfitter_cfg.c **** 	/* Configure USB Clock based on settings from Clock DWR */
 303:.\Generated_Source\PSoC5/cyfitter_cfg.c **** 	CY_SET_XTND_REG8((void CYFAR *)(CYREG_CLKDIST_UCFG), 0x00u);
 355              		.loc 1 303 0
 356 0116 0532     		adds	r2, r2, #5
 357 0118 1370     		strb	r3, [r2]
 304:.\Generated_Source\PSoC5/cyfitter_cfg.c **** 	CY_SET_XTND_REG8((void CYFAR *)(CYREG_CLKDIST_LD), 0x02u);
 358              		.loc 1 304 0
 359 011a 0222     		movs	r2, #2
 360 011c 0E4B     		ldr	r3, .L24+44
 361 011e 1A70     		strb	r2, [r3]
 305:.\Generated_Source\PSoC5/cyfitter_cfg.c **** 
 306:.\Generated_Source\PSoC5/cyfitter_cfg.c **** 	CY_SET_XTND_REG8((void CYFAR *)(CYREG_PM_ACT_CFG2), ((CY_GET_XTND_REG8((void CYFAR *)CYREG_PM_ACT_
 362              		.loc 1 306 0
 363 0120 0E4A     		ldr	r2, .L24+48
 364 0122 1378     		ldrb	r3, [r2]	@ zero_extendqisi2
ARM GAS  C:\Users\nosak\AppData\Local\Temp\ccW0fACx.s 			page 13


 365 0124 43F01F03 		orr	r3, r3, #31
 366 0128 1370     		strb	r3, [r2]
 367 012a 38BD     		pop	{r3, r4, r5, pc}
 368              	.LVL33:
 369              	.L25:
 370              		.align	2
 371              	.L24:
 372 012c 98460040 		.word	1073759896
 373 0130 80400040 		.word	1073758336
 374 0134 86400040 		.word	1073758342
 375 0138 00430040 		.word	1073758976
 376 013c 09430040 		.word	1073758985
 377 0140 A0860100 		.word	100000
 378 0144 08430040 		.word	1073758984
 379 0148 10420040 		.word	1073758736
 380 014c 25420040 		.word	1073758757
 381 0150 04400040 		.word	1073758212
 382 0154 06400040 		.word	1073758214
 383 0158 01400040 		.word	1073758209
 384 015c A2430040 		.word	1073759138
 385              		.cfi_endproc
 386              	.LFE5:
 387              		.size	ClockSetup, .-ClockSetup
 388              		.section	.text.AnalogSetDefault,"ax",%progbits
 389              		.align	2
 390              		.thumb
 391              		.thumb_func
 392              		.type	AnalogSetDefault, %function
 393              	AnalogSetDefault:
 394              	.LFB6:
 307:.\Generated_Source\PSoC5/cyfitter_cfg.c **** }
 308:.\Generated_Source\PSoC5/cyfitter_cfg.c **** 
 309:.\Generated_Source\PSoC5/cyfitter_cfg.c **** 
 310:.\Generated_Source\PSoC5/cyfitter_cfg.c **** /* Analog API Functions */
 311:.\Generated_Source\PSoC5/cyfitter_cfg.c **** 
 312:.\Generated_Source\PSoC5/cyfitter_cfg.c **** 
 313:.\Generated_Source\PSoC5/cyfitter_cfg.c **** /*******************************************************************************
 314:.\Generated_Source\PSoC5/cyfitter_cfg.c **** * Function Name: AnalogSetDefault
 315:.\Generated_Source\PSoC5/cyfitter_cfg.c **** ********************************************************************************
 316:.\Generated_Source\PSoC5/cyfitter_cfg.c **** *
 317:.\Generated_Source\PSoC5/cyfitter_cfg.c **** * Summary:
 318:.\Generated_Source\PSoC5/cyfitter_cfg.c **** *  Sets up the analog portions of the chip to default values based on chip
 319:.\Generated_Source\PSoC5/cyfitter_cfg.c **** *  configuration options from the project.
 320:.\Generated_Source\PSoC5/cyfitter_cfg.c **** *
 321:.\Generated_Source\PSoC5/cyfitter_cfg.c **** * Parameters:
 322:.\Generated_Source\PSoC5/cyfitter_cfg.c **** *  void
 323:.\Generated_Source\PSoC5/cyfitter_cfg.c **** *
 324:.\Generated_Source\PSoC5/cyfitter_cfg.c **** * Return:
 325:.\Generated_Source\PSoC5/cyfitter_cfg.c **** *  void
 326:.\Generated_Source\PSoC5/cyfitter_cfg.c **** *
 327:.\Generated_Source\PSoC5/cyfitter_cfg.c **** *******************************************************************************/
 328:.\Generated_Source\PSoC5/cyfitter_cfg.c **** static void AnalogSetDefault(void);
 329:.\Generated_Source\PSoC5/cyfitter_cfg.c **** static void AnalogSetDefault(void)
 330:.\Generated_Source\PSoC5/cyfitter_cfg.c **** {
 395              		.loc 1 330 0
 396              		.cfi_startproc
 397              		@ args = 0, pretend = 0, frame = 0
ARM GAS  C:\Users\nosak\AppData\Local\Temp\ccW0fACx.s 			page 14


 398              		@ frame_needed = 0, uses_anonymous_args = 0
 399 0000 F8B5     		push	{r3, r4, r5, r6, r7, lr}
 400              		.cfi_def_cfa_offset 24
 401              		.cfi_offset 3, -24
 402              		.cfi_offset 4, -20
 403              		.cfi_offset 5, -16
 404              		.cfi_offset 6, -12
 405              		.cfi_offset 7, -8
 406              		.cfi_offset 14, -4
 331:.\Generated_Source\PSoC5/cyfitter_cfg.c **** 	uint8 bg_xover_inl_trim = CY_GET_XTND_REG8((void CYFAR *)(CYREG_FLSHID_MFG_CFG_BG_XOVER_INL_TRIM +
 407              		.loc 1 331 0
 408 0002 174B     		ldr	r3, .L28
 409 0004 1B78     		ldrb	r3, [r3]	@ zero_extendqisi2
 410 0006 DBB2     		uxtb	r3, r3
 411              	.LVL34:
 332:.\Generated_Source\PSoC5/cyfitter_cfg.c **** 	uint8 cr4 = CY_GET_XTND_REG8((void CYFAR *)(CYREG_RESET_CR4));
 412              		.loc 1 332 0
 413 0008 164E     		ldr	r6, .L28+4
 414 000a 3478     		ldrb	r4, [r6]	@ zero_extendqisi2
 415 000c E4B2     		uxtb	r4, r4
 416              	.LVL35:
 333:.\Generated_Source\PSoC5/cyfitter_cfg.c **** 	uint8 cr5 = CY_GET_XTND_REG8((void CYFAR *)(CYREG_RESET_CR5));
 417              		.loc 1 333 0
 418 000e 164F     		ldr	r7, .L28+8
 419 0010 3D78     		ldrb	r5, [r7]	@ zero_extendqisi2
 420 0012 EDB2     		uxtb	r5, r5
 421              	.LVL36:
 334:.\Generated_Source\PSoC5/cyfitter_cfg.c **** 	CY_SET_XTND_REG8((void CYFAR *)(CYREG_BG_DFT0), (bg_xover_inl_trim & 0x07u));
 422              		.loc 1 334 0
 423 0014 03F00701 		and	r1, r3, #7
 424 0018 144A     		ldr	r2, .L28+12
 425 001a 1170     		strb	r1, [r2]
 335:.\Generated_Source\PSoC5/cyfitter_cfg.c **** 	CY_SET_XTND_REG8((void CYFAR *)(CYREG_BG_DFT1), ((bg_xover_inl_trim >> 4) & 0x0Fu));
 426              		.loc 1 335 0
 427 001c 1B09     		lsrs	r3, r3, #4
 428              	.LVL37:
 429 001e 0132     		adds	r2, r2, #1
 430 0020 1370     		strb	r3, [r2]
 336:.\Generated_Source\PSoC5/cyfitter_cfg.c **** 	/* Disable PRES while setting up SAR voltage reference */
 337:.\Generated_Source\PSoC5/cyfitter_cfg.c **** 	CY_SET_XTND_REG8((void CYFAR *)(CYREG_RESET_CR4), (cr4 | 0x03u));
 431              		.loc 1 337 0
 432 0022 44F00303 		orr	r3, r4, #3
 433 0026 3370     		strb	r3, [r6]
 338:.\Generated_Source\PSoC5/cyfitter_cfg.c **** 	CY_SET_XTND_REG8((void CYFAR *)(CYREG_RESET_CR5), (cr5 | 0x03u));
 434              		.loc 1 338 0
 435 0028 45F00303 		orr	r3, r5, #3
 436 002c 3B70     		strb	r3, [r7]
 339:.\Generated_Source\PSoC5/cyfitter_cfg.c **** 	CY_SET_XTND_REG8((void CYFAR *)CYREG_SAR1_CSR1, 0x60u);
 437              		.loc 1 339 0
 438 002e 6022     		movs	r2, #96
 439 0030 0F4B     		ldr	r3, .L28+16
 440 0032 1A70     		strb	r2, [r3]
 340:.\Generated_Source\PSoC5/cyfitter_cfg.c **** 	CY_SET_XTND_REG8((void CYFAR *)CYREG_DSM0_SW0, 0xB0u);
 441              		.loc 1 340 0
 442 0034 B022     		movs	r2, #176
 443 0036 03F2F713 		addw	r3, r3, #503
 444 003a 1A70     		strb	r2, [r3]
ARM GAS  C:\Users\nosak\AppData\Local\Temp\ccW0fACx.s 			page 15


 341:.\Generated_Source\PSoC5/cyfitter_cfg.c **** 	CY_SET_XTND_REG8((void CYFAR *)CYREG_SAR1_SW0, 0x10u);
 445              		.loc 1 341 0
 446 003c 1022     		movs	r2, #16
 447 003e 2833     		adds	r3, r3, #40
 448 0040 1A70     		strb	r2, [r3]
 342:.\Generated_Source\PSoC5/cyfitter_cfg.c **** 	CY_SET_XTND_REG8((void CYFAR *)CYREG_SAR1_SW3, 0x20u);
 449              		.loc 1 342 0
 450 0042 2022     		movs	r2, #32
 451 0044 0333     		adds	r3, r3, #3
 452 0046 1A70     		strb	r2, [r3]
 343:.\Generated_Source\PSoC5/cyfitter_cfg.c **** 	CY_SET_XTND_REG8((void CYFAR *)CYREG_BUS_SW0, 0x12u);
 453              		.loc 1 343 0
 454 0048 1222     		movs	r2, #18
 455 004a 2D33     		adds	r3, r3, #45
 456 004c 1A70     		strb	r2, [r3]
 344:.\Generated_Source\PSoC5/cyfitter_cfg.c **** 	CyDelayUs(10u); /* Allow vref to settle before re-enabling PRES */
 457              		.loc 1 344 0
 458 004e 0A20     		movs	r0, #10
 459 0050 FFF7FEFF 		bl	CyDelayUs
 460              	.LVL38:
 345:.\Generated_Source\PSoC5/cyfitter_cfg.c **** 	CY_SET_XTND_REG8((void CYFAR *)(CYREG_RESET_CR5), (cr5));
 461              		.loc 1 345 0
 462 0054 3D70     		strb	r5, [r7]
 346:.\Generated_Source\PSoC5/cyfitter_cfg.c **** 	CY_SET_XTND_REG8((void CYFAR *)(CYREG_RESET_CR4), (cr4));
 463              		.loc 1 346 0
 464 0056 3470     		strb	r4, [r6]
 347:.\Generated_Source\PSoC5/cyfitter_cfg.c **** 	CY_SET_XTND_REG8((void CYFAR *)CYREG_PUMP_CR0, 0x44u);
 465              		.loc 1 347 0
 466 0058 4422     		movs	r2, #68
 467 005a 064B     		ldr	r3, .L28+20
 468 005c 1A70     		strb	r2, [r3]
 469 005e F8BD     		pop	{r3, r4, r5, r6, r7, pc}
 470              	.LVL39:
 471              	.L29:
 472              		.align	2
 473              	.L28:
 474 0060 CF010049 		.word	1224737231
 475 0064 F8460040 		.word	1073759992
 476 0068 F9460040 		.word	1073759993
 477 006c 6E580040 		.word	1073764462
 478 0070 09590040 		.word	1073764617
 479 0074 76580040 		.word	1073764470
 480              		.cfi_endproc
 481              	.LFE6:
 482              		.size	AnalogSetDefault, .-AnalogSetDefault
 483              		.section	.text.CYCONFIGCPY,"ax",%progbits
 484              		.align	2
 485              		.thumb
 486              		.thumb_func
 487              		.type	CYCONFIGCPY, %function
 488              	CYCONFIGCPY:
 489              	.LFB1:
  70:.\Generated_Source\PSoC5/cyfitter_cfg.c **** 	(void)memcpy(dest, src, n);
 490              		.loc 1 70 0
 491              		.cfi_startproc
 492              		@ args = 0, pretend = 0, frame = 0
 493              		@ frame_needed = 0, uses_anonymous_args = 0
ARM GAS  C:\Users\nosak\AppData\Local\Temp\ccW0fACx.s 			page 16


 494              	.LVL40:
 495 0000 08B5     		push	{r3, lr}
 496              		.cfi_def_cfa_offset 8
 497              		.cfi_offset 3, -8
 498              		.cfi_offset 14, -4
  71:.\Generated_Source\PSoC5/cyfitter_cfg.c **** }
 499              		.loc 1 71 0
 500 0002 FFF7FEFF 		bl	memcpy
 501              	.LVL41:
 502 0006 08BD     		pop	{r3, pc}
 503              		.cfi_endproc
 504              	.LFE1:
 505              		.size	CYCONFIGCPY, .-CYCONFIGCPY
 506              		.section	.text.SetAnalogRoutingPumps,"ax",%progbits
 507              		.align	2
 508              		.global	SetAnalogRoutingPumps
 509              		.thumb
 510              		.thumb_func
 511              		.type	SetAnalogRoutingPumps, %function
 512              	SetAnalogRoutingPumps:
 513              	.LFB7:
 348:.\Generated_Source\PSoC5/cyfitter_cfg.c **** }
 349:.\Generated_Source\PSoC5/cyfitter_cfg.c **** 
 350:.\Generated_Source\PSoC5/cyfitter_cfg.c **** 
 351:.\Generated_Source\PSoC5/cyfitter_cfg.c **** /*******************************************************************************
 352:.\Generated_Source\PSoC5/cyfitter_cfg.c **** * Function Name: SetAnalogRoutingPumps
 353:.\Generated_Source\PSoC5/cyfitter_cfg.c **** ********************************************************************************
 354:.\Generated_Source\PSoC5/cyfitter_cfg.c **** *
 355:.\Generated_Source\PSoC5/cyfitter_cfg.c **** * Summary:
 356:.\Generated_Source\PSoC5/cyfitter_cfg.c **** * Enables or disables the analog pumps feeding analog routing switches.
 357:.\Generated_Source\PSoC5/cyfitter_cfg.c **** * Intended to be called at startup, based on the Vdda system configuration;
 358:.\Generated_Source\PSoC5/cyfitter_cfg.c **** * may be called during operation when the user informs us that the Vdda voltage
 359:.\Generated_Source\PSoC5/cyfitter_cfg.c **** * crossed the pump threshold.
 360:.\Generated_Source\PSoC5/cyfitter_cfg.c **** *
 361:.\Generated_Source\PSoC5/cyfitter_cfg.c **** * Parameters:
 362:.\Generated_Source\PSoC5/cyfitter_cfg.c **** *  enabled - 1 to enable the pumps, 0 to disable the pumps
 363:.\Generated_Source\PSoC5/cyfitter_cfg.c **** *
 364:.\Generated_Source\PSoC5/cyfitter_cfg.c **** * Return:
 365:.\Generated_Source\PSoC5/cyfitter_cfg.c **** *  void
 366:.\Generated_Source\PSoC5/cyfitter_cfg.c **** *
 367:.\Generated_Source\PSoC5/cyfitter_cfg.c **** *******************************************************************************/
 368:.\Generated_Source\PSoC5/cyfitter_cfg.c **** void SetAnalogRoutingPumps(uint8 enabled)
 369:.\Generated_Source\PSoC5/cyfitter_cfg.c **** {
 514              		.loc 1 369 0
 515              		.cfi_startproc
 516              		@ args = 0, pretend = 0, frame = 0
 517              		@ frame_needed = 0, uses_anonymous_args = 0
 518              		@ link register save eliminated.
 519              	.LVL42:
 370:.\Generated_Source\PSoC5/cyfitter_cfg.c **** 	uint8 regValue = CY_GET_XTND_REG8((void CYFAR *)CYREG_PUMP_CR0);
 520              		.loc 1 370 0
 521 0000 054B     		ldr	r3, .L35
 522 0002 1B78     		ldrb	r3, [r3]	@ zero_extendqisi2
 523 0004 DBB2     		uxtb	r3, r3
 524              	.LVL43:
 371:.\Generated_Source\PSoC5/cyfitter_cfg.c **** 	if (enabled != 0u)
 525              		.loc 1 371 0
ARM GAS  C:\Users\nosak\AppData\Local\Temp\ccW0fACx.s 			page 17


 526 0006 10B1     		cbz	r0, .L33
 372:.\Generated_Source\PSoC5/cyfitter_cfg.c **** 	{
 373:.\Generated_Source\PSoC5/cyfitter_cfg.c **** 		regValue |= 0x22u;
 527              		.loc 1 373 0
 528 0008 43F02203 		orr	r3, r3, #34
 529              	.LVL44:
 530 000c 01E0     		b	.L34
 531              	.L33:
 374:.\Generated_Source\PSoC5/cyfitter_cfg.c **** 	}
 375:.\Generated_Source\PSoC5/cyfitter_cfg.c **** 	else
 376:.\Generated_Source\PSoC5/cyfitter_cfg.c **** 	{
 377:.\Generated_Source\PSoC5/cyfitter_cfg.c **** 		regValue &= (uint8)~0x22u;
 532              		.loc 1 377 0
 533 000e 03F0DD03 		and	r3, r3, #221
 534              	.LVL45:
 535              	.L34:
 378:.\Generated_Source\PSoC5/cyfitter_cfg.c **** 	}
 379:.\Generated_Source\PSoC5/cyfitter_cfg.c **** 	CY_SET_XTND_REG8((void CYFAR *)CYREG_PUMP_CR0, regValue);
 536              		.loc 1 379 0
 537 0012 014A     		ldr	r2, .L35
 538 0014 1370     		strb	r3, [r2]
 539 0016 7047     		bx	lr
 540              	.L36:
 541              		.align	2
 542              	.L35:
 543 0018 76580040 		.word	1073764470
 544              		.cfi_endproc
 545              	.LFE7:
 546              		.size	SetAnalogRoutingPumps, .-SetAnalogRoutingPumps
 547              		.section	.text.AMux_1_Set,"ax",%progbits
 548              		.align	2
 549              		.global	AMux_1_Set
 550              		.thumb
 551              		.thumb_func
 552              		.type	AMux_1_Set, %function
 553              	AMux_1_Set:
 554              	.LFB8:
 380:.\Generated_Source\PSoC5/cyfitter_cfg.c **** }
 381:.\Generated_Source\PSoC5/cyfitter_cfg.c **** 
 382:.\Generated_Source\PSoC5/cyfitter_cfg.c **** #define CY_AMUX_UNUSED CYREG_BOOST_SR
 383:.\Generated_Source\PSoC5/cyfitter_cfg.c **** /* This is an implementation detail of the AMux. Code that depends on it may be
 384:.\Generated_Source\PSoC5/cyfitter_cfg.c ****    incompatible with other versions of PSoC Creator. */
 385:.\Generated_Source\PSoC5/cyfitter_cfg.c **** uint8 CYXDATA * const CYCODE AMux_1__addrTable[16] = {
 386:.\Generated_Source\PSoC5/cyfitter_cfg.c **** 	(uint8 CYXDATA *)CYREG_PRT2_AG, (uint8 CYXDATA *)CYREG_SAR1_SW0, 
 387:.\Generated_Source\PSoC5/cyfitter_cfg.c **** 	(uint8 CYXDATA *)CYREG_PRT4_AG, (uint8 CYXDATA *)CY_AMUX_UNUSED, 
 388:.\Generated_Source\PSoC5/cyfitter_cfg.c **** 	(uint8 CYXDATA *)CYREG_PRT4_AG, (uint8 CYXDATA *)CY_AMUX_UNUSED, 
 389:.\Generated_Source\PSoC5/cyfitter_cfg.c **** 	(uint8 CYXDATA *)CYREG_PRT4_AG, (uint8 CYXDATA *)CY_AMUX_UNUSED, 
 390:.\Generated_Source\PSoC5/cyfitter_cfg.c **** 	(uint8 CYXDATA *)CYREG_PRT0_AG, (uint8 CYXDATA *)CY_AMUX_UNUSED, 
 391:.\Generated_Source\PSoC5/cyfitter_cfg.c **** 	(uint8 CYXDATA *)CYREG_PRT0_AG, (uint8 CYXDATA *)CY_AMUX_UNUSED, 
 392:.\Generated_Source\PSoC5/cyfitter_cfg.c **** 	(uint8 CYXDATA *)CYREG_PRT4_AG, (uint8 CYXDATA *)CY_AMUX_UNUSED, 
 393:.\Generated_Source\PSoC5/cyfitter_cfg.c **** 	(uint8 CYXDATA *)CYREG_PRT3_AG, (uint8 CYXDATA *)CYREG_SAR1_SW0, 
 394:.\Generated_Source\PSoC5/cyfitter_cfg.c **** };
 395:.\Generated_Source\PSoC5/cyfitter_cfg.c **** 
 396:.\Generated_Source\PSoC5/cyfitter_cfg.c **** /* This is an implementation detail of the AMux. Code that depends on it may be
 397:.\Generated_Source\PSoC5/cyfitter_cfg.c ****    incompatible with other versions of PSoC Creator. */
 398:.\Generated_Source\PSoC5/cyfitter_cfg.c **** const uint8 CYCODE AMux_1__maskTable[16] = {
 399:.\Generated_Source\PSoC5/cyfitter_cfg.c **** 	0x02u, 0x02u, 
ARM GAS  C:\Users\nosak\AppData\Local\Temp\ccW0fACx.s 			page 18


 400:.\Generated_Source\PSoC5/cyfitter_cfg.c **** 	0x20u, 0x00u, 
 401:.\Generated_Source\PSoC5/cyfitter_cfg.c **** 	0x10u, 0x00u, 
 402:.\Generated_Source\PSoC5/cyfitter_cfg.c **** 	0x08u, 0x00u, 
 403:.\Generated_Source\PSoC5/cyfitter_cfg.c **** 	0x02u, 0x00u, 
 404:.\Generated_Source\PSoC5/cyfitter_cfg.c **** 	0x08u, 0x00u, 
 405:.\Generated_Source\PSoC5/cyfitter_cfg.c **** 	0x01u, 0x00u, 
 406:.\Generated_Source\PSoC5/cyfitter_cfg.c **** 	0x40u, 0x40u, 
 407:.\Generated_Source\PSoC5/cyfitter_cfg.c **** };
 408:.\Generated_Source\PSoC5/cyfitter_cfg.c **** 
 409:.\Generated_Source\PSoC5/cyfitter_cfg.c **** /*******************************************************************************
 410:.\Generated_Source\PSoC5/cyfitter_cfg.c **** * Function Name: AMux_1_Set
 411:.\Generated_Source\PSoC5/cyfitter_cfg.c **** ********************************************************************************
 412:.\Generated_Source\PSoC5/cyfitter_cfg.c **** * Summary:
 413:.\Generated_Source\PSoC5/cyfitter_cfg.c **** *  This function is used to set a particular channel as active on the AMux.
 414:.\Generated_Source\PSoC5/cyfitter_cfg.c **** *
 415:.\Generated_Source\PSoC5/cyfitter_cfg.c **** * Parameters:  
 416:.\Generated_Source\PSoC5/cyfitter_cfg.c **** *   channel - The mux channel input to set as active
 417:.\Generated_Source\PSoC5/cyfitter_cfg.c **** *
 418:.\Generated_Source\PSoC5/cyfitter_cfg.c **** * Return:
 419:.\Generated_Source\PSoC5/cyfitter_cfg.c **** *   void
 420:.\Generated_Source\PSoC5/cyfitter_cfg.c **** *
 421:.\Generated_Source\PSoC5/cyfitter_cfg.c **** *******************************************************************************/
 422:.\Generated_Source\PSoC5/cyfitter_cfg.c **** void AMux_1_Set(uint8 channel)
 423:.\Generated_Source\PSoC5/cyfitter_cfg.c **** {
 555              		.loc 1 423 0
 556              		.cfi_startproc
 557              		@ args = 0, pretend = 0, frame = 0
 558              		@ frame_needed = 0, uses_anonymous_args = 0
 559              		@ link register save eliminated.
 424:.\Generated_Source\PSoC5/cyfitter_cfg.c **** 	if (channel < 8)
 560              		.loc 1 424 0
 561 0000 0728     		cmp	r0, #7
 562 0002 17D8     		bhi	.L41
 423:.\Generated_Source\PSoC5/cyfitter_cfg.c **** 	if (channel < 8)
 563              		.loc 1 423 0
 564 0004 10B4     		push	{r4}
 565              		.cfi_def_cfa_offset 4
 566              		.cfi_offset 4, -4
 425:.\Generated_Source\PSoC5/cyfitter_cfg.c **** 	{
 426:.\Generated_Source\PSoC5/cyfitter_cfg.c **** 		channel += channel;
 567              		.loc 1 426 0
 568 0006 4000     		lsls	r0, r0, #1
 569 0008 C0B2     		uxtb	r0, r0
 427:.\Generated_Source\PSoC5/cyfitter_cfg.c **** 		*AMux_1__addrTable[channel] |= AMux_1__maskTable[channel];
 570              		.loc 1 427 0
 571 000a 0B4B     		ldr	r3, .L42
 572 000c 53F82010 		ldr	r1, [r3, r0, lsl #2]
 573 0010 1A18     		adds	r2, r3, r0
 574 0012 92F84040 		ldrb	r4, [r2, #64]	@ zero_extendqisi2
 575 0016 0A78     		ldrb	r2, [r1]	@ zero_extendqisi2
 576 0018 2243     		orrs	r2, r2, r4
 577 001a 0A70     		strb	r2, [r1]
 428:.\Generated_Source\PSoC5/cyfitter_cfg.c **** 		channel++;
 578              		.loc 1 428 0
 579 001c 0130     		adds	r0, r0, #1
 580 001e C0B2     		uxtb	r0, r0
 429:.\Generated_Source\PSoC5/cyfitter_cfg.c **** 		*AMux_1__addrTable[channel] |= AMux_1__maskTable[channel];
ARM GAS  C:\Users\nosak\AppData\Local\Temp\ccW0fACx.s 			page 19


 581              		.loc 1 429 0
 582 0020 53F82020 		ldr	r2, [r3, r0, lsl #2]
 583 0024 1844     		add	r0, r0, r3
 584 0026 90F84010 		ldrb	r1, [r0, #64]	@ zero_extendqisi2
 585 002a 1378     		ldrb	r3, [r2]	@ zero_extendqisi2
 586 002c 0B43     		orrs	r3, r3, r1
 587 002e 1370     		strb	r3, [r2]
 430:.\Generated_Source\PSoC5/cyfitter_cfg.c **** 	}
 431:.\Generated_Source\PSoC5/cyfitter_cfg.c **** }
 588              		.loc 1 431 0
 589 0030 5DF8044B 		ldr	r4, [sp], #4
 590              		.cfi_restore 4
 591              		.cfi_def_cfa_offset 0
 592              	.L41:
 593 0034 7047     		bx	lr
 594              	.L43:
 595 0036 00BF     		.align	2
 596              	.L42:
 597 0038 00000000 		.word	.LANCHOR0
 598              		.cfi_endproc
 599              	.LFE8:
 600              		.size	AMux_1_Set, .-AMux_1_Set
 601              		.section	.text.AMux_1_Unset,"ax",%progbits
 602              		.align	2
 603              		.global	AMux_1_Unset
 604              		.thumb
 605              		.thumb_func
 606              		.type	AMux_1_Unset, %function
 607              	AMux_1_Unset:
 608              	.LFB9:
 432:.\Generated_Source\PSoC5/cyfitter_cfg.c **** 
 433:.\Generated_Source\PSoC5/cyfitter_cfg.c **** /*******************************************************************************
 434:.\Generated_Source\PSoC5/cyfitter_cfg.c **** * Function Name: AMux_1_Unset
 435:.\Generated_Source\PSoC5/cyfitter_cfg.c **** ********************************************************************************
 436:.\Generated_Source\PSoC5/cyfitter_cfg.c **** * Summary:
 437:.\Generated_Source\PSoC5/cyfitter_cfg.c **** *  This function is used to clear a particular channel from being active on the
 438:.\Generated_Source\PSoC5/cyfitter_cfg.c **** *  AMux.
 439:.\Generated_Source\PSoC5/cyfitter_cfg.c **** *
 440:.\Generated_Source\PSoC5/cyfitter_cfg.c **** * Parameters:  
 441:.\Generated_Source\PSoC5/cyfitter_cfg.c **** *   channel - The mux channel input to mark inactive
 442:.\Generated_Source\PSoC5/cyfitter_cfg.c **** *
 443:.\Generated_Source\PSoC5/cyfitter_cfg.c **** * Return:
 444:.\Generated_Source\PSoC5/cyfitter_cfg.c **** *   void
 445:.\Generated_Source\PSoC5/cyfitter_cfg.c **** *
 446:.\Generated_Source\PSoC5/cyfitter_cfg.c **** *******************************************************************************/
 447:.\Generated_Source\PSoC5/cyfitter_cfg.c **** void AMux_1_Unset(uint8 channel)
 448:.\Generated_Source\PSoC5/cyfitter_cfg.c **** {
 609              		.loc 1 448 0
 610              		.cfi_startproc
 611              		@ args = 0, pretend = 0, frame = 0
 612              		@ frame_needed = 0, uses_anonymous_args = 0
 613              		@ link register save eliminated.
 449:.\Generated_Source\PSoC5/cyfitter_cfg.c **** 	if (channel < 8)
 614              		.loc 1 449 0
 615 0000 0728     		cmp	r0, #7
 616 0002 19D8     		bhi	.L48
 448:.\Generated_Source\PSoC5/cyfitter_cfg.c **** 	if (channel < 8)
ARM GAS  C:\Users\nosak\AppData\Local\Temp\ccW0fACx.s 			page 20


 617              		.loc 1 448 0
 618 0004 10B4     		push	{r4}
 619              		.cfi_def_cfa_offset 4
 620              		.cfi_offset 4, -4
 450:.\Generated_Source\PSoC5/cyfitter_cfg.c **** 	{
 451:.\Generated_Source\PSoC5/cyfitter_cfg.c **** 		channel += channel;
 621              		.loc 1 451 0
 622 0006 4000     		lsls	r0, r0, #1
 623 0008 C0B2     		uxtb	r0, r0
 452:.\Generated_Source\PSoC5/cyfitter_cfg.c **** 		*AMux_1__addrTable[channel] &= (uint8)~AMux_1__maskTable[channel];
 624              		.loc 1 452 0
 625 000a 0C4B     		ldr	r3, .L49
 626 000c 53F82010 		ldr	r1, [r3, r0, lsl #2]
 627 0010 1A18     		adds	r2, r3, r0
 628 0012 92F84040 		ldrb	r4, [r2, #64]	@ zero_extendqisi2
 629 0016 0A78     		ldrb	r2, [r1]	@ zero_extendqisi2
 630 0018 22EA0402 		bic	r2, r2, r4
 631 001c 0A70     		strb	r2, [r1]
 453:.\Generated_Source\PSoC5/cyfitter_cfg.c **** 		channel++;
 632              		.loc 1 453 0
 633 001e 0130     		adds	r0, r0, #1
 634 0020 C0B2     		uxtb	r0, r0
 454:.\Generated_Source\PSoC5/cyfitter_cfg.c **** 		*AMux_1__addrTable[channel] &= (uint8)~AMux_1__maskTable[channel];
 635              		.loc 1 454 0
 636 0022 53F82020 		ldr	r2, [r3, r0, lsl #2]
 637 0026 1844     		add	r0, r0, r3
 638 0028 90F84010 		ldrb	r1, [r0, #64]	@ zero_extendqisi2
 639 002c 1378     		ldrb	r3, [r2]	@ zero_extendqisi2
 640 002e 23EA0103 		bic	r3, r3, r1
 641 0032 1370     		strb	r3, [r2]
 455:.\Generated_Source\PSoC5/cyfitter_cfg.c **** 	}
 456:.\Generated_Source\PSoC5/cyfitter_cfg.c **** }
 642              		.loc 1 456 0
 643 0034 5DF8044B 		ldr	r4, [sp], #4
 644              		.cfi_restore 4
 645              		.cfi_def_cfa_offset 0
 646              	.L48:
 647 0038 7047     		bx	lr
 648              	.L50:
 649 003a 00BF     		.align	2
 650              	.L49:
 651 003c 00000000 		.word	.LANCHOR0
 652              		.cfi_endproc
 653              	.LFE9:
 654              		.size	AMux_1_Unset, .-AMux_1_Unset
 655              		.section	.text.cyfitter_cfg,"ax",%progbits
 656              		.align	2
 657              		.global	cyfitter_cfg
 658              		.thumb
 659              		.thumb_func
 660              		.type	cyfitter_cfg, %function
 661              	cyfitter_cfg:
 662              	.LFB10:
 457:.\Generated_Source\PSoC5/cyfitter_cfg.c **** 
 458:.\Generated_Source\PSoC5/cyfitter_cfg.c **** 
 459:.\Generated_Source\PSoC5/cyfitter_cfg.c **** 
 460:.\Generated_Source\PSoC5/cyfitter_cfg.c **** /*******************************************************************************
ARM GAS  C:\Users\nosak\AppData\Local\Temp\ccW0fACx.s 			page 21


 461:.\Generated_Source\PSoC5/cyfitter_cfg.c **** * Function Name: cyfitter_cfg
 462:.\Generated_Source\PSoC5/cyfitter_cfg.c **** ********************************************************************************
 463:.\Generated_Source\PSoC5/cyfitter_cfg.c **** * Summary:
 464:.\Generated_Source\PSoC5/cyfitter_cfg.c **** *  This function is called by the start-up code for the selected device. It
 465:.\Generated_Source\PSoC5/cyfitter_cfg.c **** *  performs all of the necessary device configuration based on the design
 466:.\Generated_Source\PSoC5/cyfitter_cfg.c **** *  settings.  This includes settings from the Design Wide Resources (DWR) such
 467:.\Generated_Source\PSoC5/cyfitter_cfg.c **** *  as Clocks and Pins as well as any component configuration that is necessary.
 468:.\Generated_Source\PSoC5/cyfitter_cfg.c **** *
 469:.\Generated_Source\PSoC5/cyfitter_cfg.c **** * Parameters:  
 470:.\Generated_Source\PSoC5/cyfitter_cfg.c **** *   void
 471:.\Generated_Source\PSoC5/cyfitter_cfg.c **** *
 472:.\Generated_Source\PSoC5/cyfitter_cfg.c **** * Return:
 473:.\Generated_Source\PSoC5/cyfitter_cfg.c **** *   void
 474:.\Generated_Source\PSoC5/cyfitter_cfg.c **** *
 475:.\Generated_Source\PSoC5/cyfitter_cfg.c **** *******************************************************************************/
 476:.\Generated_Source\PSoC5/cyfitter_cfg.c **** 
 477:.\Generated_Source\PSoC5/cyfitter_cfg.c **** void cyfitter_cfg(void)
 478:.\Generated_Source\PSoC5/cyfitter_cfg.c **** {
 663              		.loc 1 478 0
 664              		.cfi_startproc
 665              		@ args = 0, pretend = 0, frame = 0
 666              		@ frame_needed = 0, uses_anonymous_args = 0
 667 0000 10B5     		push	{r4, lr}
 668              		.cfi_def_cfa_offset 8
 669              		.cfi_offset 4, -8
 670              		.cfi_offset 14, -4
 479:.\Generated_Source\PSoC5/cyfitter_cfg.c **** #ifdef CYGlobalIntDisable
 480:.\Generated_Source\PSoC5/cyfitter_cfg.c **** 	/* Disable interrupts by default. Let user enable if/when they want. */
 481:.\Generated_Source\PSoC5/cyfitter_cfg.c **** 	CYGlobalIntDisable
 671              		.loc 1 481 0
 672              	@ 481 ".\Generated_Source\PSoC5\cyfitter_cfg.c" 1
 673 0002 72B6     		CPSID   i
 674              	@ 0 "" 2
 482:.\Generated_Source\PSoC5/cyfitter_cfg.c **** #endif
 483:.\Generated_Source\PSoC5/cyfitter_cfg.c **** 
 484:.\Generated_Source\PSoC5/cyfitter_cfg.c **** 	/* Enable/Disable Debug functionality based on settings from System DWR */
 485:.\Generated_Source\PSoC5/cyfitter_cfg.c **** 	CY_SET_XTND_REG8((void CYFAR *)CYREG_MLOGIC_DEBUG, (CY_GET_XTND_REG8((void CYFAR *)CYREG_MLOGIC_DE
 675              		.loc 1 485 0
 676              		.thumb
 677 0004 444A     		ldr	r2, .L57
 678 0006 1378     		ldrb	r3, [r2]	@ zero_extendqisi2
 679 0008 43F00403 		orr	r3, r3, #4
 680 000c 1370     		strb	r3, [r2]
 681              	.LVL46:
 682              	.LBB3:
 486:.\Generated_Source\PSoC5/cyfitter_cfg.c **** 
 487:.\Generated_Source\PSoC5/cyfitter_cfg.c **** 	{
 488:.\Generated_Source\PSoC5/cyfitter_cfg.c **** 
 489:.\Generated_Source\PSoC5/cyfitter_cfg.c **** 		CYPACKED typedef struct {
 490:.\Generated_Source\PSoC5/cyfitter_cfg.c **** 			void CYFAR *address;
 491:.\Generated_Source\PSoC5/cyfitter_cfg.c **** 			uint16 size;
 492:.\Generated_Source\PSoC5/cyfitter_cfg.c **** 		} CYPACKED_ATTR cfg_memset_t;
 493:.\Generated_Source\PSoC5/cyfitter_cfg.c **** 
 494:.\Generated_Source\PSoC5/cyfitter_cfg.c **** 
 495:.\Generated_Source\PSoC5/cyfitter_cfg.c **** 		CYPACKED typedef struct {
 496:.\Generated_Source\PSoC5/cyfitter_cfg.c **** 			void CYFAR *dest;
 497:.\Generated_Source\PSoC5/cyfitter_cfg.c **** 			const void CYFAR *src;
ARM GAS  C:\Users\nosak\AppData\Local\Temp\ccW0fACx.s 			page 22


 498:.\Generated_Source\PSoC5/cyfitter_cfg.c **** 			uint16 size;
 499:.\Generated_Source\PSoC5/cyfitter_cfg.c **** 		} CYPACKED_ATTR cfg_memcpy_t;
 500:.\Generated_Source\PSoC5/cyfitter_cfg.c **** 
 501:.\Generated_Source\PSoC5/cyfitter_cfg.c **** 		static const cfg_memset_t CYCODE cfg_memset_list [] = {
 502:.\Generated_Source\PSoC5/cyfitter_cfg.c **** 			/* address, size */
 503:.\Generated_Source\PSoC5/cyfitter_cfg.c **** 			{(void CYFAR *)(CYREG_TMR0_CFG0), 24u},
 504:.\Generated_Source\PSoC5/cyfitter_cfg.c **** 			{(void CYFAR *)(CYDEV_UCFG_B0_P0_U0_BASE), 3712u},
 505:.\Generated_Source\PSoC5/cyfitter_cfg.c **** 			{(void CYFAR *)(CYDEV_UCFG_B0_P7_ROUTE_BASE), 256u},
 506:.\Generated_Source\PSoC5/cyfitter_cfg.c **** 			{(void CYFAR *)(CYDEV_UCFG_B1_P2_U0_BASE), 2048u},
 507:.\Generated_Source\PSoC5/cyfitter_cfg.c **** 			{(void CYFAR *)(CYDEV_UCFG_DSI0_BASE), 2560u},
 508:.\Generated_Source\PSoC5/cyfitter_cfg.c **** 			{(void CYFAR *)(CYDEV_UCFG_DSI12_BASE), 512u},
 509:.\Generated_Source\PSoC5/cyfitter_cfg.c **** 			{(void CYFAR *)(CYREG_BCTL1_MDCLK_EN), 16u},
 510:.\Generated_Source\PSoC5/cyfitter_cfg.c **** 		};
 511:.\Generated_Source\PSoC5/cyfitter_cfg.c **** 
 512:.\Generated_Source\PSoC5/cyfitter_cfg.c **** 		static const cfg_memcpy_t CYCODE cfg_memcpy_list [] = {
 513:.\Generated_Source\PSoC5/cyfitter_cfg.c **** 			/* dest, src, size */
 514:.\Generated_Source\PSoC5/cyfitter_cfg.c **** 			{(void CYFAR *)(CYDEV_UCFG_B0_P7_U1_BASE), BS_UDB_0_5_1_CONFIG_VAL, 128u},
 515:.\Generated_Source\PSoC5/cyfitter_cfg.c **** 			{(void CYFAR *)(CYREG_BCTL0_MDCLK_EN), BS_UCFG_BCTL0_VAL, 16u},
 516:.\Generated_Source\PSoC5/cyfitter_cfg.c **** 		};
 517:.\Generated_Source\PSoC5/cyfitter_cfg.c **** 
 518:.\Generated_Source\PSoC5/cyfitter_cfg.c **** 		uint8 CYDATA i;
 519:.\Generated_Source\PSoC5/cyfitter_cfg.c **** 
 520:.\Generated_Source\PSoC5/cyfitter_cfg.c **** 		/* Zero out critical memory blocks before beginning configuration */
 521:.\Generated_Source\PSoC5/cyfitter_cfg.c **** 		for (i = 0u; i < (sizeof(cfg_memset_list)/sizeof(cfg_memset_list[0])); i++)
 683              		.loc 1 521 0
 684 000e 0024     		movs	r4, #0
 685 0010 0BE0     		b	.L52
 686              	.LVL47:
 687              	.L53:
 688              	.LBB4:
 522:.\Generated_Source\PSoC5/cyfitter_cfg.c **** 		{
 523:.\Generated_Source\PSoC5/cyfitter_cfg.c **** 			const cfg_memset_t CYCODE * CYDATA ms = &cfg_memset_list[i];
 524:.\Generated_Source\PSoC5/cyfitter_cfg.c **** 			CYMEMZERO(ms->address, (size_t)(uint32)(ms->size));
 689              		.loc 1 524 0 discriminator 3
 690 0012 4249     		ldr	r1, .L57+4
 691 0014 6300     		lsls	r3, r4, #1
 692 0016 1A19     		adds	r2, r3, r4
 693 0018 5200     		lsls	r2, r2, #1
 694 001a 0A44     		add	r2, r2, r1
 695 001c 106D     		ldr	r0, [r2, #80]	@ unaligned
 696 001e B2F85410 		ldrh	r1, [r2, #84]
 697 0022 FFF7FEFF 		bl	CYMEMZERO
 698              	.LVL48:
 699              	.LBE4:
 521:.\Generated_Source\PSoC5/cyfitter_cfg.c **** 		{
 700              		.loc 1 521 0 discriminator 3
 701 0026 0134     		adds	r4, r4, #1
 702              	.LVL49:
 703 0028 E4B2     		uxtb	r4, r4
 704              	.LVL50:
 705              	.L52:
 521:.\Generated_Source\PSoC5/cyfitter_cfg.c **** 		{
 706              		.loc 1 521 0 is_stmt 0 discriminator 1
 707 002a 062C     		cmp	r4, #6
 708 002c F1D9     		bls	.L53
 709 002e 0024     		movs	r4, #0
 710              	.LVL51:
ARM GAS  C:\Users\nosak\AppData\Local\Temp\ccW0fACx.s 			page 23


 711 0030 10E0     		b	.L54
 712              	.LVL52:
 713              	.L55:
 714              	.LBB5:
 525:.\Generated_Source\PSoC5/cyfitter_cfg.c **** 		}
 526:.\Generated_Source\PSoC5/cyfitter_cfg.c **** 
 527:.\Generated_Source\PSoC5/cyfitter_cfg.c **** 		/* Copy device configuration data into registers */
 528:.\Generated_Source\PSoC5/cyfitter_cfg.c **** 		for (i = 0u; i < (sizeof(cfg_memcpy_list)/sizeof(cfg_memcpy_list[0])); i++)
 529:.\Generated_Source\PSoC5/cyfitter_cfg.c **** 		{
 530:.\Generated_Source\PSoC5/cyfitter_cfg.c **** 			const cfg_memcpy_t CYCODE * CYDATA mc = &cfg_memcpy_list[i];
 531:.\Generated_Source\PSoC5/cyfitter_cfg.c **** 			void * CYDATA destPtr = mc->dest;
 715              		.loc 1 531 0 is_stmt 1 discriminator 3
 716 0032 3A49     		ldr	r1, .L57+4
 717 0034 A300     		lsls	r3, r4, #2
 718 0036 1A19     		adds	r2, r3, r4
 719 0038 5200     		lsls	r2, r2, #1
 720 003a 0A44     		add	r2, r2, r1
 721 003c 52F87C0F 		ldr	r0, [r2, #124]!	@ unaligned
 722              	.LVL53:
 532:.\Generated_Source\PSoC5/cyfitter_cfg.c **** 			const void * CYDATA srcPtr = mc->src;
 533:.\Generated_Source\PSoC5/cyfitter_cfg.c **** 			uint16 CYDATA numBytes = mc->size;
 723              		.loc 1 533 0 discriminator 3
 724 0040 2344     		add	r3, r3, r4
 725 0042 5B00     		lsls	r3, r3, #1
 726 0044 0B44     		add	r3, r3, r1
 727              	.LVL54:
 534:.\Generated_Source\PSoC5/cyfitter_cfg.c **** 			CYCONFIGCPY(destPtr, srcPtr, numBytes);
 728              		.loc 1 534 0 discriminator 3
 729 0046 5168     		ldr	r1, [r2, #4]	@ unaligned
 730              	.LVL55:
 731 0048 B3F88420 		ldrh	r2, [r3, #132]
 732 004c FFF7FEFF 		bl	CYCONFIGCPY
 733              	.LVL56:
 734              	.LBE5:
 528:.\Generated_Source\PSoC5/cyfitter_cfg.c **** 		{
 735              		.loc 1 528 0 discriminator 3
 736 0050 0134     		adds	r4, r4, #1
 737              	.LVL57:
 738 0052 E4B2     		uxtb	r4, r4
 739              	.LVL58:
 740              	.L54:
 528:.\Generated_Source\PSoC5/cyfitter_cfg.c **** 		{
 741              		.loc 1 528 0 is_stmt 0 discriminator 1
 742 0054 012C     		cmp	r4, #1
 743 0056 ECD9     		bls	.L55
 535:.\Generated_Source\PSoC5/cyfitter_cfg.c **** 		}
 536:.\Generated_Source\PSoC5/cyfitter_cfg.c **** 
 537:.\Generated_Source\PSoC5/cyfitter_cfg.c **** 		cfg_write_bytes32(cy_cfg_addr_table, cy_cfg_data_table);
 744              		.loc 1 537 0 is_stmt 1
 745 0058 4FF09040 		mov	r0, #1207959552
 746 005c 3049     		ldr	r1, .L57+8
 747 005e FFF7FEFF 		bl	cfg_write_bytes32
 748              	.LVL59:
 538:.\Generated_Source\PSoC5/cyfitter_cfg.c **** 
 539:.\Generated_Source\PSoC5/cyfitter_cfg.c **** 		/* Enable digital routing */
 540:.\Generated_Source\PSoC5/cyfitter_cfg.c **** 		CY_SET_XTND_REG8((void CYFAR *)CYREG_BCTL0_BANK_CTL, CY_GET_XTND_REG8((void CYFAR *)CYREG_BCTL0_B
 749              		.loc 1 540 0
ARM GAS  C:\Users\nosak\AppData\Local\Temp\ccW0fACx.s 			page 24


 750 0062 304A     		ldr	r2, .L57+12
 751 0064 1378     		ldrb	r3, [r2]	@ zero_extendqisi2
 752 0066 43F00203 		orr	r3, r3, #2
 753 006a 1370     		strb	r3, [r2]
 541:.\Generated_Source\PSoC5/cyfitter_cfg.c **** 		CY_SET_XTND_REG8((void CYFAR *)CYREG_BCTL1_BANK_CTL, CY_GET_XTND_REG8((void CYFAR *)CYREG_BCTL1_B
 754              		.loc 1 541 0
 755 006c 1032     		adds	r2, r2, #16
 756 006e 1378     		ldrb	r3, [r2]	@ zero_extendqisi2
 757 0070 43F00203 		orr	r3, r3, #2
 758 0074 1370     		strb	r3, [r2]
 542:.\Generated_Source\PSoC5/cyfitter_cfg.c **** 
 543:.\Generated_Source\PSoC5/cyfitter_cfg.c **** 		/* Enable UDB array */
 544:.\Generated_Source\PSoC5/cyfitter_cfg.c **** 		CY_SET_XTND_REG8((void CYFAR *)CYREG_PM_ACT_CFG0, CY_GET_XTND_REG8((void CYFAR *)CYREG_PM_ACT_CFG
 759              		.loc 1 544 0
 760 0076 2C4C     		ldr	r4, .L57+16
 761              	.LVL60:
 762 0078 2378     		ldrb	r3, [r4]	@ zero_extendqisi2
 763 007a 43F04003 		orr	r3, r3, #64
 764 007e 2370     		strb	r3, [r4]
 545:.\Generated_Source\PSoC5/cyfitter_cfg.c **** 		CY_SET_XTND_REG8((void CYFAR *)CYREG_PM_AVAIL_CR2, CY_GET_XTND_REG8((void CYFAR *)CYREG_PM_AVAIL_
 765              		.loc 1 545 0
 766 0080 A2F58632 		sub	r2, r2, #68608
 767 0084 513A     		subs	r2, r2, #81
 768 0086 1378     		ldrb	r3, [r2]	@ zero_extendqisi2
 769 0088 43F01003 		orr	r3, r3, #16
 770 008c 1370     		strb	r3, [r2]
 771              	.LBE3:
 546:.\Generated_Source\PSoC5/cyfitter_cfg.c **** 	}
 547:.\Generated_Source\PSoC5/cyfitter_cfg.c **** 
 548:.\Generated_Source\PSoC5/cyfitter_cfg.c **** 
 549:.\Generated_Source\PSoC5/cyfitter_cfg.c **** 	/* Perform second pass device configuration. These items must be configured in specific order afte
 550:.\Generated_Source\PSoC5/cyfitter_cfg.c **** 	CYCONFIGCPY((void CYFAR *)(CYREG_PRT0_DM0), (const void CYFAR *)(BS_IOPINS0_0_VAL), 8u);
 772              		.loc 1 550 0
 773 008e 2748     		ldr	r0, .L57+20
 774 0090 2749     		ldr	r1, .L57+24
 775 0092 0822     		movs	r2, #8
 776 0094 FFF7FEFF 		bl	CYCONFIGCPY
 777              	.LVL61:
 551:.\Generated_Source\PSoC5/cyfitter_cfg.c **** 	CYCONFIGCPY((void CYFAR *)(CYREG_PRT12_DR), (const void CYFAR *)(BS_IOPINS0_7_VAL), 10u);
 778              		.loc 1 551 0
 779 0098 2648     		ldr	r0, .L57+28
 780 009a 2749     		ldr	r1, .L57+32
 781 009c 0A22     		movs	r2, #10
 782 009e FFF7FEFF 		bl	CYCONFIGCPY
 783              	.LVL62:
 552:.\Generated_Source\PSoC5/cyfitter_cfg.c **** 	CYCONFIGCPY((void CYFAR *)(CYREG_PRT12_DR + 0x0000000Bu), (const void CYFAR *)(BS_IOPINS1_7_VAL), 
 784              		.loc 1 552 0
 785 00a2 2648     		ldr	r0, .L57+36
 786 00a4 2649     		ldr	r1, .L57+40
 787 00a6 0522     		movs	r2, #5
 788 00a8 FFF7FEFF 		bl	CYCONFIGCPY
 789              	.LVL63:
 553:.\Generated_Source\PSoC5/cyfitter_cfg.c **** 	CYCONFIGCPY((void CYFAR *)(CYREG_PRT15_DR), (const void CYFAR *)(BS_IOPINS0_8_VAL), 10u);
 790              		.loc 1 553 0
 791 00ac 2548     		ldr	r0, .L57+44
 792 00ae 2649     		ldr	r1, .L57+48
 793 00b0 0A22     		movs	r2, #10
ARM GAS  C:\Users\nosak\AppData\Local\Temp\ccW0fACx.s 			page 25


 794 00b2 FFF7FEFF 		bl	CYCONFIGCPY
 795              	.LVL64:
 554:.\Generated_Source\PSoC5/cyfitter_cfg.c **** 	CYCONFIGCPY((void CYFAR *)(CYREG_PRT1_DR), (const void CYFAR *)(BS_IOPINS0_1_VAL), 10u);
 796              		.loc 1 554 0
 797 00b6 2548     		ldr	r0, .L57+52
 798 00b8 2549     		ldr	r1, .L57+56
 799 00ba 0A22     		movs	r2, #10
 800 00bc FFF7FEFF 		bl	CYCONFIGCPY
 801              	.LVL65:
 555:.\Generated_Source\PSoC5/cyfitter_cfg.c **** 	CYCONFIGCPY((void CYFAR *)(CYREG_PRT2_DR), (const void CYFAR *)(BS_IOPINS0_2_VAL), 10u);
 802              		.loc 1 555 0
 803 00c0 2448     		ldr	r0, .L57+60
 804 00c2 2549     		ldr	r1, .L57+64
 805 00c4 0A22     		movs	r2, #10
 806 00c6 FFF7FEFF 		bl	CYCONFIGCPY
 807              	.LVL66:
 556:.\Generated_Source\PSoC5/cyfitter_cfg.c **** 	CYCONFIGCPY((void CYFAR *)(CYREG_PRT3_DR), (const void CYFAR *)(BS_IOPINS0_3_VAL), 10u);
 808              		.loc 1 556 0
 809 00ca 2448     		ldr	r0, .L57+68
 810 00cc 2449     		ldr	r1, .L57+72
 811 00ce 0A22     		movs	r2, #10
 812 00d0 FFF7FEFF 		bl	CYCONFIGCPY
 813              	.LVL67:
 557:.\Generated_Source\PSoC5/cyfitter_cfg.c **** 	CYCONFIGCPY((void CYFAR *)(CYREG_PRT4_DR), (const void CYFAR *)(BS_IOPINS0_4_VAL), 10u);
 814              		.loc 1 557 0
 815 00d4 2348     		ldr	r0, .L57+76
 816 00d6 2449     		ldr	r1, .L57+80
 817 00d8 0A22     		movs	r2, #10
 818 00da FFF7FEFF 		bl	CYCONFIGCPY
 819              	.LVL68:
 558:.\Generated_Source\PSoC5/cyfitter_cfg.c **** 	CYCONFIGCPY((void CYFAR *)(CYREG_PRT5_DR), (const void CYFAR *)(BS_IOPINS0_5_VAL), 10u);
 820              		.loc 1 558 0
 821 00de 2348     		ldr	r0, .L57+84
 822 00e0 2349     		ldr	r1, .L57+88
 823 00e2 0A22     		movs	r2, #10
 824 00e4 FFF7FEFF 		bl	CYCONFIGCPY
 825              	.LVL69:
 559:.\Generated_Source\PSoC5/cyfitter_cfg.c **** 	CYCONFIGCPY((void CYFAR *)(CYREG_PRT6_DM0), (const void CYFAR *)(BS_IOPINS0_6_VAL), 8u);
 826              		.loc 1 559 0
 827 00e8 2248     		ldr	r0, .L57+92
 828 00ea 2349     		ldr	r1, .L57+96
 829 00ec 0822     		movs	r2, #8
 830 00ee FFF7FEFF 		bl	CYCONFIGCPY
 831              	.LVL70:
 560:.\Generated_Source\PSoC5/cyfitter_cfg.c **** 	/* Switch Boost to the precision bandgap reference from its internal reference */
 561:.\Generated_Source\PSoC5/cyfitter_cfg.c **** 	CY_SET_REG8((void CYXDATA *)CYREG_BOOST_CR2, (CY_GET_REG8((void CYXDATA *)CYREG_BOOST_CR2) | 0x08u
 832              		.loc 1 561 0
 833 00f2 224A     		ldr	r2, .L57+100
 834 00f4 1378     		ldrb	r3, [r2]	@ zero_extendqisi2
 835 00f6 43F00803 		orr	r3, r3, #8
 836 00fa 1370     		strb	r3, [r2]
 562:.\Generated_Source\PSoC5/cyfitter_cfg.c **** 
 563:.\Generated_Source\PSoC5/cyfitter_cfg.c **** 	/* Set Flash Cycles based on max possible frequency in case a glitch occurs during ClockSetup(). *
 564:.\Generated_Source\PSoC5/cyfitter_cfg.c **** 	CY_SET_XTND_REG8((void CYFAR *)(CYREG_CACHE_CC_CTL), (((CYDEV_INSTRUCT_CACHE_ENABLED) != 0) ? 0x01
 837              		.loc 1 564 0
 838 00fc 0122     		movs	r2, #1
 839 00fe 204B     		ldr	r3, .L57+104
ARM GAS  C:\Users\nosak\AppData\Local\Temp\ccW0fACx.s 			page 26


 840 0100 1A70     		strb	r2, [r3]
 565:.\Generated_Source\PSoC5/cyfitter_cfg.c **** 	/* Setup clocks based on selections from Clock DWR */
 566:.\Generated_Source\PSoC5/cyfitter_cfg.c **** 	ClockSetup();
 841              		.loc 1 566 0
 842 0102 FFF7FEFF 		bl	ClockSetup
 843              	.LVL71:
 567:.\Generated_Source\PSoC5/cyfitter_cfg.c **** 
 568:.\Generated_Source\PSoC5/cyfitter_cfg.c **** 	/* Perform basic analog initialization to defaults */
 569:.\Generated_Source\PSoC5/cyfitter_cfg.c **** 	AnalogSetDefault();
 844              		.loc 1 569 0
 845 0106 FFF7FEFF 		bl	AnalogSetDefault
 846              	.LVL72:
 570:.\Generated_Source\PSoC5/cyfitter_cfg.c **** 
 571:.\Generated_Source\PSoC5/cyfitter_cfg.c **** 	/* Configure alternate active mode */
 572:.\Generated_Source\PSoC5/cyfitter_cfg.c **** 	CYCONFIGCPY((void CYFAR *)CYDEV_PM_STBY_BASE, (const void CYFAR *)CYDEV_PM_ACT_BASE, 14u);
 847              		.loc 1 572 0
 848 010a 1E48     		ldr	r0, .L57+108
 849 010c 2146     		mov	r1, r4
 850 010e 0E22     		movs	r2, #14
 851 0110 FFF7FEFF 		bl	CYCONFIGCPY
 852              	.LVL73:
 853 0114 10BD     		pop	{r4, pc}
 854              	.L58:
 855 0116 00BF     		.align	2
 856              	.L57:
 857 0118 E8460040 		.word	1073759976
 858 011c 00000000 		.word	.LANCHOR0
 859 0120 B0000048 		.word	1207959728
 860 0124 03500140 		.word	1073827843
 861 0128 A0430040 		.word	1073759136
 862 012c 02510040 		.word	1073762562
 863 0130 80120048 		.word	1207964288
 864 0134 C0510040 		.word	1073762752
 865 0138 88120048 		.word	1207964296
 866 013c CB510040 		.word	1073762763
 867 0140 94120048 		.word	1207964308
 868 0144 F0510040 		.word	1073762800
 869 0148 9C120048 		.word	1207964316
 870 014c 10510040 		.word	1073762576
 871 0150 A8120048 		.word	1207964328
 872 0154 20510040 		.word	1073762592
 873 0158 B4120048 		.word	1207964340
 874 015c 30510040 		.word	1073762608
 875 0160 C0120048 		.word	1207964352
 876 0164 40510040 		.word	1073762624
 877 0168 CC120048 		.word	1207964364
 878 016c 50510040 		.word	1073762640
 879 0170 D8120048 		.word	1207964376
 880 0174 62510040 		.word	1073762658
 881 0178 E4120048 		.word	1207964388
 882 017c 22430040 		.word	1073759010
 883 0180 00480040 		.word	1073760256
 884 0184 B0430040 		.word	1073759152
 885              		.cfi_endproc
 886              	.LFE10:
 887              		.size	cyfitter_cfg, .-cyfitter_cfg
 888              		.global	AMux_1__maskTable
ARM GAS  C:\Users\nosak\AppData\Local\Temp\ccW0fACx.s 			page 27


 889              		.global	AMux_1__addrTable
 890              		.section	.rodata
 891              		.align	2
 892              		.set	.LANCHOR0,. + 0
 893              		.type	AMux_1__addrTable, %object
 894              		.size	AMux_1__addrTable, 64
 895              	AMux_1__addrTable:
 896 0000 2D510040 		.word	1073762605
 897 0004 285B0040 		.word	1073765160
 898 0008 4D510040 		.word	1073762637
 899 000c 24430040 		.word	1073759012
 900 0010 4D510040 		.word	1073762637
 901 0014 24430040 		.word	1073759012
 902 0018 4D510040 		.word	1073762637
 903 001c 24430040 		.word	1073759012
 904 0020 0D510040 		.word	1073762573
 905 0024 24430040 		.word	1073759012
 906 0028 0D510040 		.word	1073762573
 907 002c 24430040 		.word	1073759012
 908 0030 4D510040 		.word	1073762637
 909 0034 24430040 		.word	1073759012
 910 0038 3D510040 		.word	1073762621
 911 003c 285B0040 		.word	1073765160
 912              		.type	AMux_1__maskTable, %object
 913              		.size	AMux_1__maskTable, 16
 914              	AMux_1__maskTable:
 915 0040 02       		.byte	2
 916 0041 02       		.byte	2
 917 0042 20       		.byte	32
 918 0043 00       		.byte	0
 919 0044 10       		.byte	16
 920 0045 00       		.byte	0
 921 0046 08       		.byte	8
 922 0047 00       		.byte	0
 923 0048 02       		.byte	2
 924 0049 00       		.byte	0
 925 004a 08       		.byte	8
 926 004b 00       		.byte	0
 927 004c 01       		.byte	1
 928 004d 00       		.byte	0
 929 004e 40       		.byte	64
 930 004f 40       		.byte	64
 931              		.type	cfg_memset_list.4908, %object
 932              		.size	cfg_memset_list.4908, 42
 933              	cfg_memset_list.4908:
 934 0050 004F0040 		.word	1073762048
 935 0054 1800     		.short	24
 936 0056 00000140 		.4byte	1073807360
 937 005a 800E     		.short	3712
 938 005c 000F0140 		.word	1073811200
 939 0060 0001     		.short	256
 940 0062 00140140 		.4byte	1073812480
 941 0066 0008     		.short	2048
 942 0068 00400140 		.word	1073823744
 943 006c 000A     		.short	2560
 944 006e 004C0140 		.4byte	1073826816
 945 0072 0002     		.short	512
ARM GAS  C:\Users\nosak\AppData\Local\Temp\ccW0fACx.s 			page 28


 946 0074 10500140 		.word	1073827856
 947 0078 1000     		.short	16
 948 007a 0000     		.space	2
 949              		.type	cfg_memcpy_list.4909, %object
 950              		.size	cfg_memcpy_list.4909, 20
 951              	cfg_memcpy_list.4909:
 952 007c 800E0140 		.word	1073811072
 953 0080 F0110048 		.word	1207964144
 954 0084 8000     		.short	128
 955 0086 00500140 		.4byte	1073827840
 956 008a 70120048 		.4byte	1207964272
 957 008e 1000     		.short	16
 958              		.text
 959              	.Letext0:
 960              		.file 2 "c:\\program files (x86)\\cypress\\psoc creator\\3.3\\psoc creator\\import\\gnu\\arm\\4.9.
 961              		.file 3 ".\\Generated_Source\\PSoC5\\cytypes.h"
 962              		.file 4 ".\\Generated_Source\\PSoC5\\CyLib.h"