ARM GAS  C:\Users\nosak\AppData\Local\Temp\ccVQHiGb.s 			page 1


   1              		.syntax unified
   2              		.cpu cortex-m3
   3              		.fpu softvfp
   4              		.eabi_attribute 20, 1
   5              		.eabi_attribute 21, 1
   6              		.eabi_attribute 23, 3
   7              		.eabi_attribute 24, 1
   8              		.eabi_attribute 25, 1
   9              		.eabi_attribute 26, 1
  10              		.eabi_attribute 30, 1
  11              		.eabi_attribute 34, 1
  12              		.eabi_attribute 18, 4
  13              		.thumb
  14              		.file	"Motor_Contl4_3.c"
  15              		.text
  16              	.Ltext0:
  17              		.cfi_sections	.debug_frame
  18              		.global	__aeabi_dcmpge
  19              		.global	__aeabi_dcmple
  20              		.section	.text.Motor_Contl4_3_derivatives,"ax",%progbits
  21              		.align	2
  22              		.global	Motor_Contl4_3_derivatives
  23              		.thumb
  24              		.thumb_func
  25              		.type	Motor_Contl4_3_derivatives, %function
  26              	Motor_Contl4_3_derivatives:
  27              	.LFB2:
  28              		.file 1 ".\\Motor_Contl4_3.c"
   1:.\Motor_Contl4_3.c **** /*
   2:.\Motor_Contl4_3.c ****  * File: Motor_Contl4_3.c
   3:.\Motor_Contl4_3.c ****  *
   4:.\Motor_Contl4_3.c ****  * Code generated for Simulink model 'Motor_Contl4_3'.
   5:.\Motor_Contl4_3.c ****  *
   6:.\Motor_Contl4_3.c ****  * Model version                  : 1.11
   7:.\Motor_Contl4_3.c ****  * Simulink Coder version         : 8.0 (R2011a) 09-Mar-2011
   8:.\Motor_Contl4_3.c ****  * TLC version                    : 8.0 (Feb  3 2011)
   9:.\Motor_Contl4_3.c ****  * C/C++ source code generated on : Sun Oct 02 13:47:39 2011
  10:.\Motor_Contl4_3.c ****  *
  11:.\Motor_Contl4_3.c ****  * Target selection: ert.tlc
  12:.\Motor_Contl4_3.c ****  * Embedded hardware selection: 32-bit Generic
  13:.\Motor_Contl4_3.c ****  * Code generation objectives: Unspecified
  14:.\Motor_Contl4_3.c ****  * Validation result: Not run
  15:.\Motor_Contl4_3.c ****  */
  16:.\Motor_Contl4_3.c **** 
  17:.\Motor_Contl4_3.c **** #include "Motor_Contl4_3.h"
  18:.\Motor_Contl4_3.c **** #include "Motor_Contl4_3_private.h"
  19:.\Motor_Contl4_3.c **** 
  20:.\Motor_Contl4_3.c **** /* Block signals (auto storage) */
  21:.\Motor_Contl4_3.c **** BlockIO_Motor_Contl4_3 Motor_Contl4_3_B;
  22:.\Motor_Contl4_3.c **** 
  23:.\Motor_Contl4_3.c **** /* Continuous states */
  24:.\Motor_Contl4_3.c **** ContinuousStates_Motor_Contl4_3 Motor_Contl4_3_X;
  25:.\Motor_Contl4_3.c **** 
  26:.\Motor_Contl4_3.c **** /* External inputs (root inport signals with auto storage) */
  27:.\Motor_Contl4_3.c **** ExternalInputs_Motor_Contl4_3 Motor_Contl4_3_U;
  28:.\Motor_Contl4_3.c **** 
  29:.\Motor_Contl4_3.c **** /* External outputs (root outports fed by signals with auto storage) */
ARM GAS  C:\Users\nosak\AppData\Local\Temp\ccVQHiGb.s 			page 2


  30:.\Motor_Contl4_3.c **** ExternalOutputs_Motor_Contl4_3 Motor_Contl4_3_Y;
  31:.\Motor_Contl4_3.c **** 
  32:.\Motor_Contl4_3.c **** /* Real-time model */
  33:.\Motor_Contl4_3.c **** RT_MODEL_Motor_Contl4_3 Motor_Contl4_3_M_;
  34:.\Motor_Contl4_3.c **** RT_MODEL_Motor_Contl4_3 *const Motor_Contl4_3_M = &Motor_Contl4_3_M_;
  35:.\Motor_Contl4_3.c **** 
  36:.\Motor_Contl4_3.c **** 
  37:.\Motor_Contl4_3.c **** extern float rpm2velo_ratio;
  38:.\Motor_Contl4_3.c **** /*
  39:.\Motor_Contl4_3.c ****  * This function updates continuous states using the ODE3 fixed-step
  40:.\Motor_Contl4_3.c ****  * solver algorithm
  41:.\Motor_Contl4_3.c ****  */
  42:.\Motor_Contl4_3.c **** static void rt_ertODEUpdateContinuousStates(RTWSolverInfo *si )
  43:.\Motor_Contl4_3.c **** {
  44:.\Motor_Contl4_3.c ****   /* Solver Matrices */
  45:.\Motor_Contl4_3.c ****   static const real_T rt_ODE3_A[3] = {
  46:.\Motor_Contl4_3.c ****     1.0/2.0, 3.0/4.0, 1.0
  47:.\Motor_Contl4_3.c ****   };
  48:.\Motor_Contl4_3.c **** 
  49:.\Motor_Contl4_3.c ****   static const real_T rt_ODE3_B[3][3] = {
  50:.\Motor_Contl4_3.c ****     { 1.0/2.0, 0.0, 0.0 },
  51:.\Motor_Contl4_3.c **** 
  52:.\Motor_Contl4_3.c ****     { 0.0, 3.0/4.0, 0.0 },
  53:.\Motor_Contl4_3.c **** 
  54:.\Motor_Contl4_3.c ****     { 2.0/9.0, 1.0/3.0, 4.0/9.0 }
  55:.\Motor_Contl4_3.c ****   };
  56:.\Motor_Contl4_3.c **** 
  57:.\Motor_Contl4_3.c ****   time_T t = rtsiGetT(si);
  58:.\Motor_Contl4_3.c ****   time_T tnew = rtsiGetSolverStopTime(si);
  59:.\Motor_Contl4_3.c ****   time_T h = rtsiGetStepSize(si);
  60:.\Motor_Contl4_3.c ****   real_T *x = rtsiGetContStates(si);
  61:.\Motor_Contl4_3.c ****   ODE3_IntgData *id = (ODE3_IntgData *)rtsiGetSolverData(si);
  62:.\Motor_Contl4_3.c ****   real_T *y = id->y;
  63:.\Motor_Contl4_3.c ****   real_T *f0 = id->f[0];
  64:.\Motor_Contl4_3.c ****   real_T *f1 = id->f[1];
  65:.\Motor_Contl4_3.c ****   real_T *f2 = id->f[2];
  66:.\Motor_Contl4_3.c ****   real_T hB[3];
  67:.\Motor_Contl4_3.c ****   int_T i;
  68:.\Motor_Contl4_3.c ****   int_T nXc = 4;
  69:.\Motor_Contl4_3.c ****   rtsiSetSimTimeStep(si,MINOR_TIME_STEP);
  70:.\Motor_Contl4_3.c **** 
  71:.\Motor_Contl4_3.c ****   /* Save the state values at time t in y, we'll use x as ynew. */
  72:.\Motor_Contl4_3.c ****   (void) memcpy(y, x,
  73:.\Motor_Contl4_3.c ****                 nXc*sizeof(real_T));
  74:.\Motor_Contl4_3.c **** 
  75:.\Motor_Contl4_3.c ****   /* Assumes that rtsiSetT and ModelOutputs are up-to-date */
  76:.\Motor_Contl4_3.c ****   /* f0 = f(t,y) */
  77:.\Motor_Contl4_3.c ****   rtsiSetdX(si, f0);
  78:.\Motor_Contl4_3.c ****   Motor_Contl4_3_derivatives();
  79:.\Motor_Contl4_3.c **** 
  80:.\Motor_Contl4_3.c ****   /* f(:,2) = feval(odefile, t + hA(1), y + f*hB(:,1), args(:)(*)); */
  81:.\Motor_Contl4_3.c ****   hB[0] = h * rt_ODE3_B[0][0];
  82:.\Motor_Contl4_3.c ****   for (i = 0; i < nXc; i++) {
  83:.\Motor_Contl4_3.c ****     x[i] = y[i] + (f0[i]*hB[0]);
  84:.\Motor_Contl4_3.c ****   }
  85:.\Motor_Contl4_3.c **** 
  86:.\Motor_Contl4_3.c ****   rtsiSetT(si, t + h*rt_ODE3_A[0]);
ARM GAS  C:\Users\nosak\AppData\Local\Temp\ccVQHiGb.s 			page 3


  87:.\Motor_Contl4_3.c ****   rtsiSetdX(si, f1);
  88:.\Motor_Contl4_3.c ****   Motor_Contl4_3_step();
  89:.\Motor_Contl4_3.c ****   Motor_Contl4_3_derivatives();
  90:.\Motor_Contl4_3.c **** 
  91:.\Motor_Contl4_3.c ****   /* f(:,3) = feval(odefile, t + hA(2), y + f*hB(:,2), args(:)(*)); */
  92:.\Motor_Contl4_3.c ****   for (i = 0; i <= 1; i++) {
  93:.\Motor_Contl4_3.c ****     hB[i] = h * rt_ODE3_B[1][i];
  94:.\Motor_Contl4_3.c ****   }
  95:.\Motor_Contl4_3.c **** 
  96:.\Motor_Contl4_3.c ****   for (i = 0; i < nXc; i++) {
  97:.\Motor_Contl4_3.c ****     x[i] = y[i] + (f0[i]*hB[0] + f1[i]*hB[1]);
  98:.\Motor_Contl4_3.c ****   }
  99:.\Motor_Contl4_3.c **** 
 100:.\Motor_Contl4_3.c ****   rtsiSetT(si, t + h*rt_ODE3_A[1]);
 101:.\Motor_Contl4_3.c ****   rtsiSetdX(si, f2);
 102:.\Motor_Contl4_3.c ****   Motor_Contl4_3_step();
 103:.\Motor_Contl4_3.c ****   Motor_Contl4_3_derivatives();
 104:.\Motor_Contl4_3.c **** 
 105:.\Motor_Contl4_3.c ****   /* tnew = t + hA(3);
 106:.\Motor_Contl4_3.c ****      ynew = y + f*hB(:,3); */
 107:.\Motor_Contl4_3.c ****   for (i = 0; i <= 2; i++) {
 108:.\Motor_Contl4_3.c ****     hB[i] = h * rt_ODE3_B[2][i];
 109:.\Motor_Contl4_3.c ****   }
 110:.\Motor_Contl4_3.c **** 
 111:.\Motor_Contl4_3.c ****   for (i = 0; i < nXc; i++) {
 112:.\Motor_Contl4_3.c ****     x[i] = y[i] + (f0[i]*hB[0] + f1[i]*hB[1] + f2[i]*hB[2]);
 113:.\Motor_Contl4_3.c ****   }
 114:.\Motor_Contl4_3.c **** 
 115:.\Motor_Contl4_3.c ****   rtsiSetT(si, tnew);
 116:.\Motor_Contl4_3.c ****   rtsiSetSimTimeStep(si,MAJOR_TIME_STEP);
 117:.\Motor_Contl4_3.c **** }
 118:.\Motor_Contl4_3.c **** 
 119:.\Motor_Contl4_3.c **** /* Model step function */
 120:.\Motor_Contl4_3.c **** void Motor_Contl4_3_step(void)
 121:.\Motor_Contl4_3.c **** {
 122:.\Motor_Contl4_3.c ****   real_T rtb_Sum2;
 123:.\Motor_Contl4_3.c ****   real_T u;
 124:.\Motor_Contl4_3.c ****   if (rtmIsMajorTimeStep(Motor_Contl4_3_M)) {
 125:.\Motor_Contl4_3.c ****     /* set solver stop time */
 126:.\Motor_Contl4_3.c ****     rtsiSetSolverStopTime(&Motor_Contl4_3_M->solverInfo,
 127:.\Motor_Contl4_3.c ****                           ((Motor_Contl4_3_M->Timing.clockTick0+1)*
 128:.\Motor_Contl4_3.c ****       Motor_Contl4_3_M->Timing.stepSize0));
 129:.\Motor_Contl4_3.c ****   }                                    /* end MajorTimeStep */
 130:.\Motor_Contl4_3.c **** 
 131:.\Motor_Contl4_3.c ****   /* Update absolute time of base rate at minor time step */
 132:.\Motor_Contl4_3.c ****   if (rtmIsMinorTimeStep(Motor_Contl4_3_M)) {
 133:.\Motor_Contl4_3.c ****     Motor_Contl4_3_M->Timing.t[0] = rtsiGetT(&Motor_Contl4_3_M->solverInfo);
 134:.\Motor_Contl4_3.c ****   }
 135:.\Motor_Contl4_3.c **** /***************************************************/
 136:.\Motor_Contl4_3.c ****   /* Fcn: '<S1>/Fcn' incorporates:
 137:.\Motor_Contl4_3.c ****    *  Inport: '<Root>/RPM1'
 138:.\Motor_Contl4_3.c ****    */
 139:.\Motor_Contl4_3.c **** /***************************************************/
 140:.\Motor_Contl4_3.c **** 	rtb_Sum2 = Motor_Contl4_3_U.RPM1 * rpm2velo_ratio;
 141:.\Motor_Contl4_3.c **** // rtb_Sum2 = Motor_Contl4_3_U.RPM1 * 0.00033108163; //GP26A
 142:.\Motor_Contl4_3.c **** //  rtb_Sum2 = Motor_Contl4_3_U.RPM1 * 0.00044679337; //GP26B
 143:.\Motor_Contl4_3.c ****  // motorRPM => velosity(Km/h)
ARM GAS  C:\Users\nosak\AppData\Local\Temp\ccVQHiGb.s 			page 4


 144:.\Motor_Contl4_3.c ****  // = 60/gire_ratio/1000*Dwhell*pi 
 145:.\Motor_Contl4_3.c ****  // =0.000812456 @gire_ratio = 29, Dwheel = 0.125
 146:.\Motor_Contl4_3.c ****  // =0.000280487 @gire_ratio = 84, Dwheel = 0.125 
 147:.\Motor_Contl4_3.c ****  // =0.00044679337 @gire_ratio = 3375.0/64(GP26B), Dwheel = 0.125 
 148:.\Motor_Contl4_3.c ****  // =0.00033108163 @gire_ratio = 226233/3179(GP26A), Dwheel = 0.125 
 149:.\Motor_Contl4_3.c ****   /* Sum: '<S1>/Sum' incorporates:
 150:.\Motor_Contl4_3.c ****    *  Inport: '<Root>/Target speed1'
 151:.\Motor_Contl4_3.c ****    */
 152:.\Motor_Contl4_3.c ****   Motor_Contl4_3_B.Sum = Motor_Contl4_3_U.Targetspeed1 - rtb_Sum2;
 153:.\Motor_Contl4_3.c **** 
 154:.\Motor_Contl4_3.c ****   /* Saturate: '<S1>/Saturation' incorporates:
 155:.\Motor_Contl4_3.c ****    *  Gain: '<S1>/Gain'
 156:.\Motor_Contl4_3.c ****    *  Gain: '<S1>/Gain2'
 157:.\Motor_Contl4_3.c ****    *  Integrator: '<S1>/Integrator1'
 158:.\Motor_Contl4_3.c ****    *  Sum: '<S1>/Sum2'
 159:.\Motor_Contl4_3.c ****    */
 160:.\Motor_Contl4_3.c ****   u = Motor_Contl4_3_P.Gain2_Gain * Motor_Contl4_3_X.Integrator1_CSTATE +
 161:.\Motor_Contl4_3.c ****     Motor_Contl4_3_P.Gain_Gain * Motor_Contl4_3_B.Sum;
 162:.\Motor_Contl4_3.c **** 
 163:.\Motor_Contl4_3.c ****   /* Outport: '<Root>/PWM Duty1' incorporates:
 164:.\Motor_Contl4_3.c ****    *  Saturate: '<S1>/Saturation'
 165:.\Motor_Contl4_3.c ****    */
 166:.\Motor_Contl4_3.c ****   Motor_Contl4_3_Y.PWMDuty1 = u >= Motor_Contl4_3_P.Saturation_UpperSat ?
 167:.\Motor_Contl4_3.c ****     Motor_Contl4_3_P.Saturation_UpperSat : u <=
 168:.\Motor_Contl4_3.c ****     Motor_Contl4_3_P.Saturation_LowerSat ? Motor_Contl4_3_P.Saturation_LowerSat :
 169:.\Motor_Contl4_3.c ****     u;
 170:.\Motor_Contl4_3.c **** 
 171:.\Motor_Contl4_3.c ****   /* Outport: '<Root>/V(Km//h)1' */
 172:.\Motor_Contl4_3.c ****   Motor_Contl4_3_Y.VKmh1 = rtb_Sum2;
 173:.\Motor_Contl4_3.c **** 
 174:.\Motor_Contl4_3.c **** /***************************************************/
 175:.\Motor_Contl4_3.c ****   /* Fcn: '<S2>/Fcn' incorporates:
 176:.\Motor_Contl4_3.c ****    *  Inport: '<Root>/RPM2'
 177:.\Motor_Contl4_3.c ****    */
 178:.\Motor_Contl4_3.c **** /***************************************************/
 179:.\Motor_Contl4_3.c ****  
 180:.\Motor_Contl4_3.c **** 	rtb_Sum2 = Motor_Contl4_3_U.RPM2 * rpm2velo_ratio;
 181:.\Motor_Contl4_3.c **** 
 182:.\Motor_Contl4_3.c **** 
 183:.\Motor_Contl4_3.c ****   /* Sum: '<S2>/Sum' incorporates:
 184:.\Motor_Contl4_3.c ****    *  Inport: '<Root>/Target speed2'
 185:.\Motor_Contl4_3.c ****    */
 186:.\Motor_Contl4_3.c ****   Motor_Contl4_3_B.Sum_n = Motor_Contl4_3_U.Targetspeed2 - rtb_Sum2;
 187:.\Motor_Contl4_3.c **** 
 188:.\Motor_Contl4_3.c ****   /* Saturate: '<S2>/Saturation' incorporates:
 189:.\Motor_Contl4_3.c ****    *  Gain: '<S2>/Gain'
 190:.\Motor_Contl4_3.c ****    *  Gain: '<S2>/Gain2'
 191:.\Motor_Contl4_3.c ****    *  Integrator: '<S2>/Integrator1'
 192:.\Motor_Contl4_3.c ****    *  Sum: '<S2>/Sum2'
 193:.\Motor_Contl4_3.c ****    */
 194:.\Motor_Contl4_3.c ****   u = Motor_Contl4_3_P.Gain2_Gain_a * Motor_Contl4_3_X.Integrator1_CSTATE_h +
 195:.\Motor_Contl4_3.c ****     Motor_Contl4_3_P.Gain_Gain_a * Motor_Contl4_3_B.Sum_n;
 196:.\Motor_Contl4_3.c **** 
 197:.\Motor_Contl4_3.c ****   /* Outport: '<Root>/PWM Duty2' incorporates:
 198:.\Motor_Contl4_3.c ****    *  Saturate: '<S2>/Saturation'
 199:.\Motor_Contl4_3.c ****    */
 200:.\Motor_Contl4_3.c ****   Motor_Contl4_3_Y.PWMDuty2 = u >= Motor_Contl4_3_P.Saturation_UpperSat_o ?
ARM GAS  C:\Users\nosak\AppData\Local\Temp\ccVQHiGb.s 			page 5


 201:.\Motor_Contl4_3.c ****     Motor_Contl4_3_P.Saturation_UpperSat_o : u <=
 202:.\Motor_Contl4_3.c ****     Motor_Contl4_3_P.Saturation_LowerSat_j ?
 203:.\Motor_Contl4_3.c ****     Motor_Contl4_3_P.Saturation_LowerSat_j : u;
 204:.\Motor_Contl4_3.c **** 
 205:.\Motor_Contl4_3.c ****   /* Outport: '<Root>/V(Km//h)2' */
 206:.\Motor_Contl4_3.c ****   Motor_Contl4_3_Y.VKmh2 = rtb_Sum2;
 207:.\Motor_Contl4_3.c **** 
 208:.\Motor_Contl4_3.c **** /***************************************************/
 209:.\Motor_Contl4_3.c ****   /* Fcn: '<S3>/Fcn' incorporates:
 210:.\Motor_Contl4_3.c ****    *  Inport: '<Root>/RPM3'
 211:.\Motor_Contl4_3.c ****    */
 212:.\Motor_Contl4_3.c **** /***************************************************/
 213:.\Motor_Contl4_3.c **** 	rtb_Sum2 = Motor_Contl4_3_U.RPM3 * rpm2velo_ratio;
 214:.\Motor_Contl4_3.c **** 
 215:.\Motor_Contl4_3.c ****  
 216:.\Motor_Contl4_3.c ****   /* Sum: '<S3>/Sum' incorporates:
 217:.\Motor_Contl4_3.c ****    *  Inport: '<Root>/Target speed3'
 218:.\Motor_Contl4_3.c ****    */
 219:.\Motor_Contl4_3.c ****   Motor_Contl4_3_B.Sum_m = Motor_Contl4_3_U.Targetspeed3 - rtb_Sum2;
 220:.\Motor_Contl4_3.c **** 
 221:.\Motor_Contl4_3.c ****   /* Saturate: '<S3>/Saturation' incorporates:
 222:.\Motor_Contl4_3.c ****    *  Gain: '<S3>/Gain'
 223:.\Motor_Contl4_3.c ****    *  Gain: '<S3>/Gain2'
 224:.\Motor_Contl4_3.c ****    *  Integrator: '<S3>/Integrator1'
 225:.\Motor_Contl4_3.c ****    *  Sum: '<S3>/Sum2'
 226:.\Motor_Contl4_3.c ****    */
 227:.\Motor_Contl4_3.c ****   u = Motor_Contl4_3_P.Gain2_Gain_j * Motor_Contl4_3_X.Integrator1_CSTATE_l +
 228:.\Motor_Contl4_3.c ****     Motor_Contl4_3_P.Gain_Gain_i * Motor_Contl4_3_B.Sum_m;
 229:.\Motor_Contl4_3.c **** 
 230:.\Motor_Contl4_3.c ****   /* Outport: '<Root>/PWM Duty3' incorporates:
 231:.\Motor_Contl4_3.c ****    *  Saturate: '<S3>/Saturation'
 232:.\Motor_Contl4_3.c ****    */
 233:.\Motor_Contl4_3.c ****   Motor_Contl4_3_Y.PWMDuty3 = u >= Motor_Contl4_3_P.Saturation_UpperSat_j ?
 234:.\Motor_Contl4_3.c ****     Motor_Contl4_3_P.Saturation_UpperSat_j : u <=
 235:.\Motor_Contl4_3.c ****     Motor_Contl4_3_P.Saturation_LowerSat_a ?
 236:.\Motor_Contl4_3.c ****     Motor_Contl4_3_P.Saturation_LowerSat_a : u;
 237:.\Motor_Contl4_3.c **** 
 238:.\Motor_Contl4_3.c ****   /* Outport: '<Root>/V(Km//h)3' */
 239:.\Motor_Contl4_3.c ****   Motor_Contl4_3_Y.VKmh3 = rtb_Sum2;
 240:.\Motor_Contl4_3.c **** 
 241:.\Motor_Contl4_3.c ****  /***************************************************/
 242:.\Motor_Contl4_3.c ****  /* Fcn: '<S4>/Fcn' incorporates:
 243:.\Motor_Contl4_3.c ****    *  Inport: '<Root>/RPM4'
 244:.\Motor_Contl4_3.c ****    */
 245:.\Motor_Contl4_3.c **** /***************************************************/
 246:.\Motor_Contl4_3.c **** 
 247:.\Motor_Contl4_3.c **** 	rtb_Sum2 = Motor_Contl4_3_U.RPM4 * rpm2velo_ratio;
 248:.\Motor_Contl4_3.c **** 
 249:.\Motor_Contl4_3.c **** 
 250:.\Motor_Contl4_3.c ****   /* Sum: '<S4>/Sum' incorporates:
 251:.\Motor_Contl4_3.c ****    *  Inport: '<Root>/Target speed4'
 252:.\Motor_Contl4_3.c ****    */
 253:.\Motor_Contl4_3.c ****   Motor_Contl4_3_B.Sum_i = Motor_Contl4_3_U.Targetspeed4 - rtb_Sum2;
 254:.\Motor_Contl4_3.c **** 
 255:.\Motor_Contl4_3.c ****   /* Saturate: '<S4>/Saturation' incorporates:
 256:.\Motor_Contl4_3.c ****    *  Gain: '<S4>/Gain'
 257:.\Motor_Contl4_3.c ****    *  Gain: '<S4>/Gain2'
ARM GAS  C:\Users\nosak\AppData\Local\Temp\ccVQHiGb.s 			page 6


 258:.\Motor_Contl4_3.c ****    *  Integrator: '<S4>/Integrator1'
 259:.\Motor_Contl4_3.c ****    *  Sum: '<S4>/Sum2'
 260:.\Motor_Contl4_3.c ****    */
 261:.\Motor_Contl4_3.c ****   u = Motor_Contl4_3_P.Gain2_Gain_e * Motor_Contl4_3_X.Integrator1_CSTATE_g +
 262:.\Motor_Contl4_3.c ****     Motor_Contl4_3_P.Gain_Gain_o * Motor_Contl4_3_B.Sum_i;
 263:.\Motor_Contl4_3.c **** 
 264:.\Motor_Contl4_3.c ****   /* Outport: '<Root>/PWM Duty4' incorporates:
 265:.\Motor_Contl4_3.c ****    *  Saturate: '<S4>/Saturation'
 266:.\Motor_Contl4_3.c ****    */
 267:.\Motor_Contl4_3.c ****   Motor_Contl4_3_Y.PWMDuty4 = u >= Motor_Contl4_3_P.Saturation_UpperSat_g ?
 268:.\Motor_Contl4_3.c ****     Motor_Contl4_3_P.Saturation_UpperSat_g : u <=
 269:.\Motor_Contl4_3.c ****     Motor_Contl4_3_P.Saturation_LowerSat_l ?
 270:.\Motor_Contl4_3.c ****     Motor_Contl4_3_P.Saturation_LowerSat_l : u;
 271:.\Motor_Contl4_3.c **** 
 272:.\Motor_Contl4_3.c ****   /* Outport: '<Root>/V(Km//h)4' */
 273:.\Motor_Contl4_3.c ****   Motor_Contl4_3_Y.VKmh4 = rtb_Sum2;
 274:.\Motor_Contl4_3.c **** 
 275:.\Motor_Contl4_3.c **** /***************************************************/
 276:.\Motor_Contl4_3.c **** 
 277:.\Motor_Contl4_3.c **** if (rtmIsMajorTimeStep(Motor_Contl4_3_M)) {
 278:.\Motor_Contl4_3.c ****     rt_ertODEUpdateContinuousStates(&Motor_Contl4_3_M->solverInfo);
 279:.\Motor_Contl4_3.c **** 
 280:.\Motor_Contl4_3.c ****     /* Update absolute time for base rate */
 281:.\Motor_Contl4_3.c ****     /* The "clockTick0" counts the number of times the code of this task has
 282:.\Motor_Contl4_3.c ****      * been executed. The absolute time is the multiplication of "clockTick0"
 283:.\Motor_Contl4_3.c ****      * and "Timing.stepSize0". Size of "clockTick0" ensures timer will not
 284:.\Motor_Contl4_3.c ****      * overflow during the application lifespan selected.
 285:.\Motor_Contl4_3.c ****      */
 286:.\Motor_Contl4_3.c ****     ++Motor_Contl4_3_M->Timing.clockTick0;
 287:.\Motor_Contl4_3.c ****     Motor_Contl4_3_M->Timing.t[0] = rtsiGetSolverStopTime
 288:.\Motor_Contl4_3.c ****       (&Motor_Contl4_3_M->solverInfo);
 289:.\Motor_Contl4_3.c **** 
 290:.\Motor_Contl4_3.c ****     {
 291:.\Motor_Contl4_3.c ****       /* Update absolute timer for sample time: [0.0625s, 0.0s] */
 292:.\Motor_Contl4_3.c ****       /* The "clockTick1" counts the number of times the code of this task has
 293:.\Motor_Contl4_3.c ****        * been executed. The resolution of this integer timer is 0.0625, which is the step size
 294:.\Motor_Contl4_3.c ****        * of the task. Size of "clockTick1" ensures timer will not overflow during the
 295:.\Motor_Contl4_3.c ****        * application lifespan selected.
 296:.\Motor_Contl4_3.c ****        */
 297:.\Motor_Contl4_3.c ****       Motor_Contl4_3_M->Timing.clockTick1++;
 298:.\Motor_Contl4_3.c ****     }
 299:.\Motor_Contl4_3.c ****   }                                    /* end MajorTimeStep */
 300:.\Motor_Contl4_3.c **** }
 301:.\Motor_Contl4_3.c **** 
 302:.\Motor_Contl4_3.c **** /* Derivatives for root system: '<Root>' */
 303:.\Motor_Contl4_3.c **** void Motor_Contl4_3_derivatives(void)
 304:.\Motor_Contl4_3.c **** {
  29              		.loc 1 304 0
  30              		.cfi_startproc
  31              		@ args = 0, pretend = 0, frame = 0
  32              		@ frame_needed = 0, uses_anonymous_args = 0
  33 0000 38B5     		push	{r3, r4, r5, lr}
  34              		.cfi_def_cfa_offset 16
  35              		.cfi_offset 3, -16
  36              		.cfi_offset 4, -12
  37              		.cfi_offset 5, -8
  38              		.cfi_offset 14, -4
ARM GAS  C:\Users\nosak\AppData\Local\Temp\ccVQHiGb.s 			page 7


 305:.\Motor_Contl4_3.c ****   /* Derivatives for Integrator: '<S1>/Integrator1' */
 306:.\Motor_Contl4_3.c ****     if( Motor_Contl4_3_Y.PWMDuty1  >= Motor_Contl4_3_P.Saturation_UpperSat){
  39              		.loc 1 306 0
  40 0002 564B     		ldr	r3, .L39
  41 0004 D3E90045 		ldrd	r4, [r3]
  42 0008 2046     		mov	r0, r4
  43 000a 2946     		mov	r1, r5
  44 000c 544B     		ldr	r3, .L39+4
  45 000e D3E90623 		ldrd	r2, [r3, #24]
  46 0012 FFF7FEFF 		bl	__aeabi_dcmpge
  47              	.LVL0:
  48 0016 38B1     		cbz	r0, .L30
 307:.\Motor_Contl4_3.c ****         ((StateDerivatives_Motor_Contl4_3 *) Motor_Contl4_3_M->ModelData.derivs)
  49              		.loc 1 307 0
  50 0018 524B     		ldr	r3, .L39+8
  51 001a D3F8F430 		ldr	r3, [r3, #244]
 308:.\Motor_Contl4_3.c ****             ->Integrator1_CSTATE = 0;       
  52              		.loc 1 308 0
  53 001e 0020     		movs	r0, #0
  54 0020 0021     		movs	r1, #0
  55 0022 C3E90001 		strd	r0, [r3]
  56 0026 17E0     		b	.L4
  57              	.L30:
 309:.\Motor_Contl4_3.c ****     } else if( Motor_Contl4_3_Y.PWMDuty1  <= Motor_Contl4_3_P.Saturation_LowerSat){
  58              		.loc 1 309 0
  59 0028 2046     		mov	r0, r4
  60 002a 2946     		mov	r1, r5
  61 002c 4C4B     		ldr	r3, .L39+4
  62 002e D3E90823 		ldrd	r2, [r3, #32]
  63 0032 FFF7FEFF 		bl	__aeabi_dcmple
  64              	.LVL1:
  65 0036 38B1     		cbz	r0, .L31
 310:.\Motor_Contl4_3.c ****         ((StateDerivatives_Motor_Contl4_3 *) Motor_Contl4_3_M->ModelData.derivs)
  66              		.loc 1 310 0
  67 0038 4A4B     		ldr	r3, .L39+8
  68 003a D3F8F430 		ldr	r3, [r3, #244]
 311:.\Motor_Contl4_3.c ****             ->Integrator1_CSTATE = 0;       
  69              		.loc 1 311 0
  70 003e 0020     		movs	r0, #0
  71 0040 0021     		movs	r1, #0
  72 0042 C3E90001 		strd	r0, [r3]
  73 0046 07E0     		b	.L4
  74              	.L31:
 312:.\Motor_Contl4_3.c ****     } else {
 313:.\Motor_Contl4_3.c ****         ((StateDerivatives_Motor_Contl4_3 *) Motor_Contl4_3_M->ModelData.derivs)
  75              		.loc 1 313 0
  76 0048 464B     		ldr	r3, .L39+8
  77 004a D3F8F430 		ldr	r3, [r3, #244]
 314:.\Motor_Contl4_3.c ****             ->Integrator1_CSTATE = Motor_Contl4_3_B.Sum;
  78              		.loc 1 314 0
  79 004e 464A     		ldr	r2, .L39+12
  80 0050 D2E90001 		ldrd	r0, [r2]
  81 0054 C3E90001 		strd	r0, [r3]
  82              	.L4:
 315:.\Motor_Contl4_3.c ****     }
 316:.\Motor_Contl4_3.c ****     
 317:.\Motor_Contl4_3.c ****   /* Derivatives for Integrator: '<S2>/Integrator1' */
ARM GAS  C:\Users\nosak\AppData\Local\Temp\ccVQHiGb.s 			page 8


 318:.\Motor_Contl4_3.c ****     if( Motor_Contl4_3_Y.PWMDuty2  >= Motor_Contl4_3_P.Saturation_UpperSat_o){
  83              		.loc 1 318 0
  84 0058 404B     		ldr	r3, .L39
  85 005a D3E90445 		ldrd	r4, [r3, #16]
  86 005e 2046     		mov	r0, r4
  87 0060 2946     		mov	r1, r5
  88 0062 3F4B     		ldr	r3, .L39+4
  89 0064 D3E91023 		ldrd	r2, [r3, #64]
  90 0068 FFF7FEFF 		bl	__aeabi_dcmpge
  91              	.LVL2:
  92 006c 38B1     		cbz	r0, .L32
 319:.\Motor_Contl4_3.c ****         ((StateDerivatives_Motor_Contl4_3 *) Motor_Contl4_3_M->ModelData.derivs)
  93              		.loc 1 319 0
  94 006e 3D4B     		ldr	r3, .L39+8
  95 0070 D3F8F430 		ldr	r3, [r3, #244]
 320:.\Motor_Contl4_3.c ****             ->Integrator1_CSTATE_h = 0;       
  96              		.loc 1 320 0
  97 0074 0020     		movs	r0, #0
  98 0076 0021     		movs	r1, #0
  99 0078 C3E90201 		strd	r0, [r3, #8]
 100 007c 17E0     		b	.L9
 101              	.L32:
 321:.\Motor_Contl4_3.c ****     } else if( Motor_Contl4_3_Y.PWMDuty2  <= Motor_Contl4_3_P.Saturation_LowerSat_j){
 102              		.loc 1 321 0
 103 007e 2046     		mov	r0, r4
 104 0080 2946     		mov	r1, r5
 105 0082 374B     		ldr	r3, .L39+4
 106 0084 D3E91223 		ldrd	r2, [r3, #72]
 107 0088 FFF7FEFF 		bl	__aeabi_dcmple
 108              	.LVL3:
 109 008c 38B1     		cbz	r0, .L33
 322:.\Motor_Contl4_3.c ****         ((StateDerivatives_Motor_Contl4_3 *) Motor_Contl4_3_M->ModelData.derivs)
 110              		.loc 1 322 0
 111 008e 354B     		ldr	r3, .L39+8
 112 0090 D3F8F430 		ldr	r3, [r3, #244]
 323:.\Motor_Contl4_3.c ****             ->Integrator1_CSTATE_h = 0;       
 113              		.loc 1 323 0
 114 0094 0020     		movs	r0, #0
 115 0096 0021     		movs	r1, #0
 116 0098 C3E90201 		strd	r0, [r3, #8]
 117 009c 07E0     		b	.L9
 118              	.L33:
 324:.\Motor_Contl4_3.c ****     } else {
 325:.\Motor_Contl4_3.c ****         ((StateDerivatives_Motor_Contl4_3 *) Motor_Contl4_3_M->ModelData.derivs)
 119              		.loc 1 325 0
 120 009e 314B     		ldr	r3, .L39+8
 121 00a0 D3F8F430 		ldr	r3, [r3, #244]
 326:.\Motor_Contl4_3.c ****             ->Integrator1_CSTATE_h = Motor_Contl4_3_B.Sum_n;
 122              		.loc 1 326 0
 123 00a4 304A     		ldr	r2, .L39+12
 124 00a6 D2E90201 		ldrd	r0, [r2, #8]
 125 00aa C3E90201 		strd	r0, [r3, #8]
 126              	.L9:
 327:.\Motor_Contl4_3.c ****     }
 328:.\Motor_Contl4_3.c ****   
 329:.\Motor_Contl4_3.c ****   /* Derivatives for Integrator: '<S3>/Integrator1' */
 330:.\Motor_Contl4_3.c ****      if( Motor_Contl4_3_Y.PWMDuty3  >= Motor_Contl4_3_P.Saturation_UpperSat_j){
ARM GAS  C:\Users\nosak\AppData\Local\Temp\ccVQHiGb.s 			page 9


 127              		.loc 1 330 0
 128 00ae 2B4B     		ldr	r3, .L39
 129 00b0 D3E90845 		ldrd	r4, [r3, #32]
 130 00b4 2046     		mov	r0, r4
 131 00b6 2946     		mov	r1, r5
 132 00b8 294B     		ldr	r3, .L39+4
 133 00ba D3E91A23 		ldrd	r2, [r3, #104]
 134 00be FFF7FEFF 		bl	__aeabi_dcmpge
 135              	.LVL4:
 136 00c2 38B1     		cbz	r0, .L34
 331:.\Motor_Contl4_3.c ****         ((StateDerivatives_Motor_Contl4_3 *) Motor_Contl4_3_M->ModelData.derivs)
 137              		.loc 1 331 0
 138 00c4 274B     		ldr	r3, .L39+8
 139 00c6 D3F8F430 		ldr	r3, [r3, #244]
 332:.\Motor_Contl4_3.c ****             ->Integrator1_CSTATE_l = 0;       
 140              		.loc 1 332 0
 141 00ca 0020     		movs	r0, #0
 142 00cc 0021     		movs	r1, #0
 143 00ce C3E90401 		strd	r0, [r3, #16]
 144 00d2 17E0     		b	.L14
 145              	.L34:
 333:.\Motor_Contl4_3.c ****     } else if( Motor_Contl4_3_Y.PWMDuty3  <= Motor_Contl4_3_P.Saturation_LowerSat_a){
 146              		.loc 1 333 0
 147 00d4 2046     		mov	r0, r4
 148 00d6 2946     		mov	r1, r5
 149 00d8 214B     		ldr	r3, .L39+4
 150 00da D3E91C23 		ldrd	r2, [r3, #112]
 151 00de FFF7FEFF 		bl	__aeabi_dcmple
 152              	.LVL5:
 153 00e2 38B1     		cbz	r0, .L35
 334:.\Motor_Contl4_3.c ****         ((StateDerivatives_Motor_Contl4_3 *) Motor_Contl4_3_M->ModelData.derivs)
 154              		.loc 1 334 0
 155 00e4 1F4B     		ldr	r3, .L39+8
 156 00e6 D3F8F430 		ldr	r3, [r3, #244]
 335:.\Motor_Contl4_3.c ****             ->Integrator1_CSTATE_l = 0;       
 157              		.loc 1 335 0
 158 00ea 0020     		movs	r0, #0
 159 00ec 0021     		movs	r1, #0
 160 00ee C3E90401 		strd	r0, [r3, #16]
 161 00f2 07E0     		b	.L14
 162              	.L35:
 336:.\Motor_Contl4_3.c ****     } else {
 337:.\Motor_Contl4_3.c ****         ((StateDerivatives_Motor_Contl4_3 *) Motor_Contl4_3_M->ModelData.derivs)
 163              		.loc 1 337 0
 164 00f4 1B4B     		ldr	r3, .L39+8
 165 00f6 D3F8F430 		ldr	r3, [r3, #244]
 338:.\Motor_Contl4_3.c ****     		->Integrator1_CSTATE_l = Motor_Contl4_3_B.Sum_m;
 166              		.loc 1 338 0
 167 00fa 1B4A     		ldr	r2, .L39+12
 168 00fc D2E90401 		ldrd	r0, [r2, #16]
 169 0100 C3E90401 		strd	r0, [r3, #16]
 170              	.L14:
 339:.\Motor_Contl4_3.c ****     }
 340:.\Motor_Contl4_3.c ****   
 341:.\Motor_Contl4_3.c **** 
 342:.\Motor_Contl4_3.c ****     
 343:.\Motor_Contl4_3.c ****   /* Derivatives for Integrator: '<S2>/Integrator1' */
ARM GAS  C:\Users\nosak\AppData\Local\Temp\ccVQHiGb.s 			page 10


 344:.\Motor_Contl4_3.c ****     if( Motor_Contl4_3_Y.PWMDuty4  >= Motor_Contl4_3_P.Saturation_UpperSat_g){
 171              		.loc 1 344 0
 172 0104 154B     		ldr	r3, .L39
 173 0106 D3E90C45 		ldrd	r4, [r3, #48]
 174 010a 2046     		mov	r0, r4
 175 010c 2946     		mov	r1, r5
 176 010e 144B     		ldr	r3, .L39+4
 177 0110 D3E92423 		ldrd	r2, [r3, #144]
 178 0114 FFF7FEFF 		bl	__aeabi_dcmpge
 179              	.LVL6:
 180 0118 38B1     		cbz	r0, .L36
 345:.\Motor_Contl4_3.c ****         ((StateDerivatives_Motor_Contl4_3 *) Motor_Contl4_3_M->ModelData.derivs)
 181              		.loc 1 345 0
 182 011a 124B     		ldr	r3, .L39+8
 183 011c D3F8F430 		ldr	r3, [r3, #244]
 346:.\Motor_Contl4_3.c ****             ->Integrator1_CSTATE_g = 0;       
 184              		.loc 1 346 0
 185 0120 0020     		movs	r0, #0
 186 0122 0021     		movs	r1, #0
 187 0124 C3E90601 		strd	r0, [r3, #24]
 188 0128 38BD     		pop	{r3, r4, r5, pc}
 189              	.L36:
 347:.\Motor_Contl4_3.c ****     } else if( Motor_Contl4_3_Y.PWMDuty4  <= Motor_Contl4_3_P.Saturation_LowerSat_l){
 190              		.loc 1 347 0
 191 012a 2046     		mov	r0, r4
 192 012c 2946     		mov	r1, r5
 193 012e 0C4B     		ldr	r3, .L39+4
 194 0130 D3E92623 		ldrd	r2, [r3, #152]
 195 0134 FFF7FEFF 		bl	__aeabi_dcmple
 196              	.LVL7:
 197 0138 38B1     		cbz	r0, .L37
 348:.\Motor_Contl4_3.c ****         ((StateDerivatives_Motor_Contl4_3 *) Motor_Contl4_3_M->ModelData.derivs)
 198              		.loc 1 348 0
 199 013a 0A4B     		ldr	r3, .L39+8
 200 013c D3F8F430 		ldr	r3, [r3, #244]
 349:.\Motor_Contl4_3.c ****             ->Integrator1_CSTATE_g = 0;       
 201              		.loc 1 349 0
 202 0140 0020     		movs	r0, #0
 203 0142 0021     		movs	r1, #0
 204 0144 C3E90601 		strd	r0, [r3, #24]
 205 0148 38BD     		pop	{r3, r4, r5, pc}
 206              	.L37:
 350:.\Motor_Contl4_3.c ****     } else {
 351:.\Motor_Contl4_3.c ****           ((StateDerivatives_Motor_Contl4_3 *) Motor_Contl4_3_M->ModelData.derivs)
 207              		.loc 1 351 0
 208 014a 064B     		ldr	r3, .L39+8
 209 014c D3F8F430 		ldr	r3, [r3, #244]
 352:.\Motor_Contl4_3.c ****     		->Integrator1_CSTATE_g = Motor_Contl4_3_B.Sum_i;
 210              		.loc 1 352 0
 211 0150 054A     		ldr	r2, .L39+12
 212 0152 D2E90601 		ldrd	r0, [r2, #24]
 213 0156 C3E90601 		strd	r0, [r3, #24]
 214 015a 38BD     		pop	{r3, r4, r5, pc}
 215              	.L40:
 216              		.align	2
 217              	.L39:
 218 015c 00000000 		.word	Motor_Contl4_3_Y
ARM GAS  C:\Users\nosak\AppData\Local\Temp\ccVQHiGb.s 			page 11


 219 0160 00000000 		.word	Motor_Contl4_3_P
 220 0164 00000000 		.word	Motor_Contl4_3_M_
 221 0168 00000000 		.word	Motor_Contl4_3_B
 222              		.cfi_endproc
 223              	.LFE2:
 224              		.size	Motor_Contl4_3_derivatives, .-Motor_Contl4_3_derivatives
 225              		.global	__aeabi_dmul
 226              		.global	__aeabi_dadd
 227              		.section	.text.rt_ertODEUpdateContinuousStates,"ax",%progbits
 228              		.align	2
 229              		.thumb
 230              		.thumb_func
 231              		.type	rt_ertODEUpdateContinuousStates, %function
 232              	rt_ertODEUpdateContinuousStates:
 233              	.LFB0:
  43:.\Motor_Contl4_3.c ****   /* Solver Matrices */
 234              		.loc 1 43 0
 235              		.cfi_startproc
 236              		@ args = 0, pretend = 0, frame = 72
 237              		@ frame_needed = 0, uses_anonymous_args = 0
 238              	.LVL8:
 239 0000 2DE9F04F 		push	{r4, r5, r6, r7, r8, r9, r10, fp, lr}
 240              		.cfi_def_cfa_offset 36
 241              		.cfi_offset 4, -36
 242              		.cfi_offset 5, -32
 243              		.cfi_offset 6, -28
 244              		.cfi_offset 7, -24
 245              		.cfi_offset 8, -20
 246              		.cfi_offset 9, -16
 247              		.cfi_offset 10, -12
 248              		.cfi_offset 11, -8
 249              		.cfi_offset 14, -4
 250 0004 93B0     		sub	sp, sp, #76
 251              		.cfi_def_cfa_offset 112
 252 0006 8346     		mov	fp, r0
  57:.\Motor_Contl4_3.c ****   time_T tnew = rtsiGetSolverStopTime(si);
 253              		.loc 1 57 0
 254 0008 C36F     		ldr	r3, [r0, #124]
 255 000a 1B68     		ldr	r3, [r3]
 256 000c D3E90023 		ldrd	r2, [r3]
 257 0010 CDE90623 		strd	r2, [sp, #24]
 258              	.LVL9:
  58:.\Motor_Contl4_3.c ****   time_T h = rtsiGetStepSize(si);
 259              		.loc 1 58 0
 260 0014 D0E90623 		ldrd	r2, [r0, #24]
 261              	.LVL10:
 262 0018 CDE90A23 		strd	r2, [sp, #40]
 263              	.LVL11:
  59:.\Motor_Contl4_3.c ****   real_T *x = rtsiGetContStates(si);
 264              		.loc 1 59 0
 265 001c 036A     		ldr	r3, [r0, #32]
 266              	.LVL12:
 267 001e D3E90023 		ldrd	r2, [r3]
 268              	.LVL13:
 269 0022 9046     		mov	r8, r2
 270 0024 9946     		mov	r9, r3
 271 0026 CDE90289 		strd	r8, [sp, #8]
ARM GAS  C:\Users\nosak\AppData\Local\Temp\ccVQHiGb.s 			page 12


 272              	.LVL14:
  60:.\Motor_Contl4_3.c ****   ODE3_IntgData *id = (ODE3_IntgData *)rtsiGetSolverData(si);
 273              		.loc 1 60 0
 274 002a D0F88430 		ldr	r3, [r0, #132]
 275 002e 1F68     		ldr	r7, [r3]
 276              	.LVL15:
  61:.\Motor_Contl4_3.c ****   real_T *y = id->y;
 277              		.loc 1 61 0
 278 0030 8368     		ldr	r3, [r0, #8]
 279              	.LVL16:
  62:.\Motor_Contl4_3.c ****   real_T *f0 = id->f[0];
 280              		.loc 1 62 0
 281 0032 1D68     		ldr	r5, [r3]
 282              	.LVL17:
  63:.\Motor_Contl4_3.c ****   real_T *f1 = id->f[1];
 283              		.loc 1 63 0
 284 0034 5A68     		ldr	r2, [r3, #4]
 285 0036 1446     		mov	r4, r2
 286 0038 0892     		str	r2, [sp, #32]
 287              	.LVL18:
  64:.\Motor_Contl4_3.c ****   real_T *f2 = id->f[2];
 288              		.loc 1 64 0
 289 003a 9A68     		ldr	r2, [r3, #8]
 290              	.LVL19:
 291 003c 0592     		str	r2, [sp, #20]
 292              	.LVL20:
  65:.\Motor_Contl4_3.c ****   real_T hB[3];
 293              		.loc 1 65 0
 294 003e DB68     		ldr	r3, [r3, #12]
 295              	.LVL21:
 296 0040 0993     		str	r3, [sp, #36]
 297              	.LVL22:
  69:.\Motor_Contl4_3.c **** 
 298              		.loc 1 69 0
 299 0042 4368     		ldr	r3, [r0, #4]
 300              	.LVL23:
 301 0044 0026     		movs	r6, #0
 302 0046 1E70     		strb	r6, [r3]
 303              	.LVL24:
  72:.\Motor_Contl4_3.c ****                 nXc*sizeof(real_T));
 304              		.loc 1 72 0
 305 0048 3868     		ldr	r0, [r7]	@ unaligned
 306              	.LVL25:
 307 004a 7968     		ldr	r1, [r7, #4]	@ unaligned
 308 004c BA68     		ldr	r2, [r7, #8]	@ unaligned
 309              	.LVL26:
 310 004e FB68     		ldr	r3, [r7, #12]	@ unaligned
 311 0050 2860     		str	r0, [r5]	@ unaligned
 312 0052 6960     		str	r1, [r5, #4]	@ unaligned
 313 0054 AA60     		str	r2, [r5, #8]	@ unaligned
 314 0056 EB60     		str	r3, [r5, #12]	@ unaligned
 315 0058 3869     		ldr	r0, [r7, #16]	@ unaligned
 316 005a 7969     		ldr	r1, [r7, #20]	@ unaligned
 317 005c BA69     		ldr	r2, [r7, #24]	@ unaligned
 318 005e FB69     		ldr	r3, [r7, #28]	@ unaligned
 319 0060 2861     		str	r0, [r5, #16]	@ unaligned
 320 0062 6961     		str	r1, [r5, #20]	@ unaligned
ARM GAS  C:\Users\nosak\AppData\Local\Temp\ccVQHiGb.s 			page 13


 321 0064 AA61     		str	r2, [r5, #24]	@ unaligned
 322 0066 EB61     		str	r3, [r5, #28]	@ unaligned
  77:.\Motor_Contl4_3.c ****   Motor_Contl4_3_derivatives();
 323              		.loc 1 77 0
 324 0068 DBF87830 		ldr	r3, [fp, #120]
 325 006c 1C60     		str	r4, [r3]
  78:.\Motor_Contl4_3.c **** 
 326              		.loc 1 78 0
 327 006e FFF7FEFF 		bl	Motor_Contl4_3_derivatives
 328              	.LVL27:
  81:.\Motor_Contl4_3.c ****   for (i = 0; i < nXc; i++) {
 329              		.loc 1 81 0
 330 0072 4046     		mov	r0, r8
 331 0074 4946     		mov	r1, r9
 332 0076 0022     		movs	r2, #0
 333 0078 7B4B     		ldr	r3, .L53
 334 007a FFF7FEFF 		bl	__aeabi_dmul
 335              	.LVL28:
 336 007e 0246     		mov	r2, r0
 337 0080 0B46     		mov	r3, r1
 338 0082 CDE90023 		strd	r2, [sp]
 339 0086 CDE90C23 		strd	r2, [sp, #48]
 340              	.LVL29:
 341 008a A246     		mov	r10, r4
  82:.\Motor_Contl4_3.c ****     x[i] = y[i] + (f0[i]*hB[0]);
 342              		.loc 1 82 0
 343 008c 14E0     		b	.L42
 344              	.LVL30:
 345              	.L43:
  83:.\Motor_Contl4_3.c ****   }
 346              		.loc 1 83 0 discriminator 3
 347 008e F300     		lsls	r3, r6, #3
 348 0090 FC18     		adds	r4, r7, r3
 349 0092 EA18     		adds	r2, r5, r3
 350 0094 D2E90089 		ldrd	r8, [r2]
 351 0098 5344     		add	r3, r3, r10
 352 009a DDE90001 		ldrd	r0, [sp]
 353 009e D3E90023 		ldrd	r2, [r3]
 354 00a2 FFF7FEFF 		bl	__aeabi_dmul
 355              	.LVL31:
 356 00a6 0246     		mov	r2, r0
 357 00a8 0B46     		mov	r3, r1
 358 00aa 4046     		mov	r0, r8
 359 00ac 4946     		mov	r1, r9
 360 00ae FFF7FEFF 		bl	__aeabi_dadd
 361              	.LVL32:
 362 00b2 C4E90001 		strd	r0, [r4]
  82:.\Motor_Contl4_3.c ****     x[i] = y[i] + (f0[i]*hB[0]);
 363              		.loc 1 82 0 discriminator 3
 364 00b6 0136     		adds	r6, r6, #1
 365              	.LVL33:
 366              	.L42:
  82:.\Motor_Contl4_3.c ****     x[i] = y[i] + (f0[i]*hB[0]);
 367              		.loc 1 82 0 is_stmt 0 discriminator 1
 368 00b8 032E     		cmp	r6, #3
 369 00ba E8DD     		ble	.L43
  86:.\Motor_Contl4_3.c ****   rtsiSetdX(si, f1);
ARM GAS  C:\Users\nosak\AppData\Local\Temp\ccVQHiGb.s 			page 14


 370              		.loc 1 86 0 is_stmt 1
 371 00bc DBF87C30 		ldr	r3, [fp, #124]
 372 00c0 1C68     		ldr	r4, [r3]
 373 00c2 DDE90601 		ldrd	r0, [sp, #24]
 374 00c6 DDE90023 		ldrd	r2, [sp]
 375 00ca FFF7FEFF 		bl	__aeabi_dadd
 376              	.LVL34:
 377 00ce C4E90001 		strd	r0, [r4]
  87:.\Motor_Contl4_3.c ****   Motor_Contl4_3_step();
 378              		.loc 1 87 0
 379 00d2 DBF87830 		ldr	r3, [fp, #120]
 380 00d6 059A     		ldr	r2, [sp, #20]
 381 00d8 1A60     		str	r2, [r3]
  88:.\Motor_Contl4_3.c ****   Motor_Contl4_3_derivatives();
 382              		.loc 1 88 0
 383 00da FFF7FEFF 		bl	Motor_Contl4_3_step
 384              	.LVL35:
  89:.\Motor_Contl4_3.c **** 
 385              		.loc 1 89 0
 386 00de FFF7FEFF 		bl	Motor_Contl4_3_derivatives
 387              	.LVL36:
  92:.\Motor_Contl4_3.c ****     hB[i] = h * rt_ODE3_B[1][i];
 388              		.loc 1 92 0
 389 00e2 0024     		movs	r4, #0
 390 00e4 0EE0     		b	.L44
 391              	.LVL37:
 392              	.L45:
  93:.\Motor_Contl4_3.c ****   }
 393              		.loc 1 93 0 discriminator 3
 394 00e6 614B     		ldr	r3, .L53+4
 395 00e8 03EBC403 		add	r3, r3, r4, lsl #3
 396 00ec D3E90601 		ldrd	r0, [r3, #24]
 397 00f0 DDE90223 		ldrd	r2, [sp, #8]
 398 00f4 FFF7FEFF 		bl	__aeabi_dmul
 399              	.LVL38:
 400 00f8 12AB     		add	r3, sp, #72
 401 00fa 03EBC403 		add	r3, r3, r4, lsl #3
 402 00fe 43E90601 		strd	r0, [r3, #-24]
  92:.\Motor_Contl4_3.c ****     hB[i] = h * rt_ODE3_B[1][i];
 403              		.loc 1 92 0 discriminator 3
 404 0102 0134     		adds	r4, r4, #1
 405              	.LVL39:
 406              	.L44:
  92:.\Motor_Contl4_3.c ****     hB[i] = h * rt_ODE3_B[1][i];
 407              		.loc 1 92 0 is_stmt 0 discriminator 1
 408 0104 012C     		cmp	r4, #1
 409 0106 EEDD     		ble	.L45
 410 0108 4FF00009 		mov	r9, #0
 411 010c BA46     		mov	r10, r7
 412              	.LVL40:
 413 010e 28E0     		b	.L46
 414              	.LVL41:
 415              	.L47:
  97:.\Motor_Contl4_3.c ****   }
 416              		.loc 1 97 0 is_stmt 1 discriminator 3
 417 0110 4FEAC904 		lsl	r4, r9, #3
 418 0114 0AEB0408 		add	r8, r10, r4
ARM GAS  C:\Users\nosak\AppData\Local\Temp\ccVQHiGb.s 			page 15


 419 0118 2B19     		adds	r3, r5, r4
 420 011a D3E90067 		ldrd	r6, [r3]
 421 011e 089B     		ldr	r3, [sp, #32]
 422 0120 2344     		add	r3, r3, r4
 423 0122 D3E90001 		ldrd	r0, [r3]
 424 0126 DDE90C23 		ldrd	r2, [sp, #48]
 425 012a FFF7FEFF 		bl	__aeabi_dmul
 426              	.LVL42:
 427 012e CDE90001 		strd	r0, [sp]
 428 0132 059B     		ldr	r3, [sp, #20]
 429 0134 1C44     		add	r4, r4, r3
 430 0136 D4E90001 		ldrd	r0, [r4]
 431 013a DDE90E23 		ldrd	r2, [sp, #56]
 432 013e FFF7FEFF 		bl	__aeabi_dmul
 433              	.LVL43:
 434 0142 0246     		mov	r2, r0
 435 0144 0B46     		mov	r3, r1
 436 0146 DDE90001 		ldrd	r0, [sp]
 437 014a FFF7FEFF 		bl	__aeabi_dadd
 438              	.LVL44:
 439 014e 0246     		mov	r2, r0
 440 0150 0B46     		mov	r3, r1
 441 0152 3046     		mov	r0, r6
 442 0154 3946     		mov	r1, r7
 443 0156 FFF7FEFF 		bl	__aeabi_dadd
 444              	.LVL45:
 445 015a C8E90001 		strd	r0, [r8]
  96:.\Motor_Contl4_3.c ****     x[i] = y[i] + (f0[i]*hB[0] + f1[i]*hB[1]);
 446              		.loc 1 96 0 discriminator 3
 447 015e 09F10109 		add	r9, r9, #1
 448              	.LVL46:
 449              	.L46:
  96:.\Motor_Contl4_3.c ****     x[i] = y[i] + (f0[i]*hB[0] + f1[i]*hB[1]);
 450              		.loc 1 96 0 is_stmt 0 discriminator 1
 451 0162 B9F1030F 		cmp	r9, #3
 452 0166 D3DD     		ble	.L47
 453 0168 5746     		mov	r7, r10
 454              	.LVL47:
 100:.\Motor_Contl4_3.c ****   rtsiSetdX(si, f2);
 455              		.loc 1 100 0 is_stmt 1
 456 016a DBF87C30 		ldr	r3, [fp, #124]
 457 016e 1C68     		ldr	r4, [r3]
 458 0170 DDE90201 		ldrd	r0, [sp, #8]
 459 0174 0022     		movs	r2, #0
 460 0176 3E4B     		ldr	r3, .L53+8
 461 0178 FFF7FEFF 		bl	__aeabi_dmul
 462              	.LVL48:
 463 017c DDE90623 		ldrd	r2, [sp, #24]
 464 0180 FFF7FEFF 		bl	__aeabi_dadd
 465              	.LVL49:
 466 0184 C4E90001 		strd	r0, [r4]
 101:.\Motor_Contl4_3.c ****   Motor_Contl4_3_step();
 467              		.loc 1 101 0
 468 0188 DBF87830 		ldr	r3, [fp, #120]
 469 018c 099A     		ldr	r2, [sp, #36]
 470 018e 1A60     		str	r2, [r3]
 102:.\Motor_Contl4_3.c ****   Motor_Contl4_3_derivatives();
ARM GAS  C:\Users\nosak\AppData\Local\Temp\ccVQHiGb.s 			page 16


 471              		.loc 1 102 0
 472 0190 FFF7FEFF 		bl	Motor_Contl4_3_step
 473              	.LVL50:
 103:.\Motor_Contl4_3.c **** 
 474              		.loc 1 103 0
 475 0194 FFF7FEFF 		bl	Motor_Contl4_3_derivatives
 476              	.LVL51:
 107:.\Motor_Contl4_3.c ****     hB[i] = h * rt_ODE3_B[2][i];
 477              		.loc 1 107 0
 478 0198 0024     		movs	r4, #0
 479 019a 0EE0     		b	.L48
 480              	.LVL52:
 481              	.L49:
 108:.\Motor_Contl4_3.c ****   }
 482              		.loc 1 108 0 discriminator 3
 483 019c 334B     		ldr	r3, .L53+4
 484 019e 03EBC403 		add	r3, r3, r4, lsl #3
 485 01a2 D3E90C01 		ldrd	r0, [r3, #48]
 486 01a6 DDE90223 		ldrd	r2, [sp, #8]
 487 01aa FFF7FEFF 		bl	__aeabi_dmul
 488              	.LVL53:
 489 01ae 12AB     		add	r3, sp, #72
 490 01b0 03EBC403 		add	r3, r3, r4, lsl #3
 491 01b4 43E90601 		strd	r0, [r3, #-24]
 107:.\Motor_Contl4_3.c ****     hB[i] = h * rt_ODE3_B[2][i];
 492              		.loc 1 107 0 discriminator 3
 493 01b8 0134     		adds	r4, r4, #1
 494              	.LVL54:
 495              	.L48:
 107:.\Motor_Contl4_3.c ****     hB[i] = h * rt_ODE3_B[2][i];
 496              		.loc 1 107 0 is_stmt 0 discriminator 1
 497 01ba 022C     		cmp	r4, #2
 498 01bc EEDD     		ble	.L49
 499 01be 4FF0000A 		mov	r10, #0
 500 01c2 B946     		mov	r9, r7
 501 01c4 089E     		ldr	r6, [sp, #32]
 502 01c6 059F     		ldr	r7, [sp, #20]
 503              	.LVL55:
 504 01c8 CDF814B0 		str	fp, [sp, #20]
 505              	.LVL56:
 506 01cc DDF824B0 		ldr	fp, [sp, #36]
 507              	.LVL57:
 508 01d0 37E0     		b	.L50
 509              	.LVL58:
 510              	.L51:
 112:.\Motor_Contl4_3.c ****   }
 511              		.loc 1 112 0 is_stmt 1 discriminator 3
 512 01d2 4FEACA04 		lsl	r4, r10, #3
 513 01d6 09EB0408 		add	r8, r9, r4
 514 01da 2B19     		adds	r3, r5, r4
 515 01dc D3E90023 		ldrd	r2, [r3]
 516 01e0 CDE90023 		strd	r2, [sp]
 517 01e4 3319     		adds	r3, r6, r4
 518 01e6 D3E90001 		ldrd	r0, [r3]
 519 01ea DDE90C23 		ldrd	r2, [sp, #48]
 520 01ee FFF7FEFF 		bl	__aeabi_dmul
 521              	.LVL59:
ARM GAS  C:\Users\nosak\AppData\Local\Temp\ccVQHiGb.s 			page 17


 522 01f2 CDE90201 		strd	r0, [sp, #8]
 523 01f6 3B19     		adds	r3, r7, r4
 524 01f8 D3E90001 		ldrd	r0, [r3]
 525 01fc DDE90E23 		ldrd	r2, [sp, #56]
 526 0200 FFF7FEFF 		bl	__aeabi_dmul
 527              	.LVL60:
 528 0204 0246     		mov	r2, r0
 529 0206 0B46     		mov	r3, r1
 530 0208 DDE90201 		ldrd	r0, [sp, #8]
 531 020c FFF7FEFF 		bl	__aeabi_dadd
 532              	.LVL61:
 533 0210 CDE90201 		strd	r0, [sp, #8]
 534 0214 5C44     		add	r4, r4, fp
 535 0216 D4E90001 		ldrd	r0, [r4]
 536 021a DDE91023 		ldrd	r2, [sp, #64]
 537 021e FFF7FEFF 		bl	__aeabi_dmul
 538              	.LVL62:
 539 0222 0246     		mov	r2, r0
 540 0224 0B46     		mov	r3, r1
 541 0226 DDE90201 		ldrd	r0, [sp, #8]
 542 022a FFF7FEFF 		bl	__aeabi_dadd
 543              	.LVL63:
 544 022e 0246     		mov	r2, r0
 545 0230 0B46     		mov	r3, r1
 546 0232 DDE90001 		ldrd	r0, [sp]
 547 0236 FFF7FEFF 		bl	__aeabi_dadd
 548              	.LVL64:
 549 023a C8E90001 		strd	r0, [r8]
 111:.\Motor_Contl4_3.c ****     x[i] = y[i] + (f0[i]*hB[0] + f1[i]*hB[1] + f2[i]*hB[2]);
 550              		.loc 1 111 0 discriminator 3
 551 023e 0AF1010A 		add	r10, r10, #1
 552              	.LVL65:
 553              	.L50:
 111:.\Motor_Contl4_3.c ****     x[i] = y[i] + (f0[i]*hB[0] + f1[i]*hB[1] + f2[i]*hB[2]);
 554              		.loc 1 111 0 is_stmt 0 discriminator 1
 555 0242 BAF1030F 		cmp	r10, #3
 556 0246 C4DD     		ble	.L51
 557 0248 DDF814B0 		ldr	fp, [sp, #20]
 115:.\Motor_Contl4_3.c ****   rtsiSetSimTimeStep(si,MAJOR_TIME_STEP);
 558              		.loc 1 115 0 is_stmt 1
 559 024c DBF87C30 		ldr	r3, [fp, #124]
 560 0250 1B68     		ldr	r3, [r3]
 561 0252 DDE90A01 		ldrd	r0, [sp, #40]
 562 0256 C3E90001 		strd	r0, [r3]
 116:.\Motor_Contl4_3.c **** }
 563              		.loc 1 116 0
 564 025a DBF80430 		ldr	r3, [fp, #4]
 565 025e 0122     		movs	r2, #1
 566 0260 1A70     		strb	r2, [r3]
 117:.\Motor_Contl4_3.c **** 
 567              		.loc 1 117 0
 568 0262 13B0     		add	sp, sp, #76
 569              		.cfi_def_cfa_offset 36
 570              		@ sp needed
 571 0264 BDE8F08F 		pop	{r4, r5, r6, r7, r8, r9, r10, fp, pc}
 572              	.LVL66:
 573              	.L54:
ARM GAS  C:\Users\nosak\AppData\Local\Temp\ccVQHiGb.s 			page 18


 574              		.align	2
 575              	.L53:
 576 0268 0000E03F 		.word	1071644672
 577 026c 00000000 		.word	.LANCHOR0
 578 0270 0000E83F 		.word	1072168960
 579              		.cfi_endproc
 580              	.LFE0:
 581              		.size	rt_ertODEUpdateContinuousStates, .-rt_ertODEUpdateContinuousStates
 582              		.global	__aeabi_ui2d
 583              		.global	__aeabi_f2d
 584              		.global	__aeabi_dsub
 585              		.section	.text.Motor_Contl4_3_step,"ax",%progbits
 586              		.align	2
 587              		.global	Motor_Contl4_3_step
 588              		.thumb
 589              		.thumb_func
 590              		.type	Motor_Contl4_3_step, %function
 591              	Motor_Contl4_3_step:
 592              	.LFB1:
 121:.\Motor_Contl4_3.c ****   real_T rtb_Sum2;
 593              		.loc 1 121 0
 594              		.cfi_startproc
 595              		@ args = 0, pretend = 0, frame = 8
 596              		@ frame_needed = 0, uses_anonymous_args = 0
 597 0000 2DE9F04F 		push	{r4, r5, r6, r7, r8, r9, r10, fp, lr}
 598              		.cfi_def_cfa_offset 36
 599              		.cfi_offset 4, -36
 600              		.cfi_offset 5, -32
 601              		.cfi_offset 6, -28
 602              		.cfi_offset 7, -24
 603              		.cfi_offset 8, -20
 604              		.cfi_offset 9, -16
 605              		.cfi_offset 10, -12
 606              		.cfi_offset 11, -8
 607              		.cfi_offset 14, -4
 608 0004 83B0     		sub	sp, sp, #12
 609              		.cfi_def_cfa_offset 48
 124:.\Motor_Contl4_3.c ****     /* set solver stop time */
 610              		.loc 1 124 0
 611 0006 AE4B     		ldr	r3, .L76
 612 0008 93F8AC41 		ldrb	r4, [r3, #428]	@ zero_extendqisi2
 613 000c 012C     		cmp	r4, #1
 614 000e 0FD1     		bne	.L56
 126:.\Motor_Contl4_3.c ****                           ((Motor_Contl4_3_M->Timing.clockTick0+1)*
 615              		.loc 1 126 0
 616 0010 1D46     		mov	r5, r3
 617 0012 D3F89801 		ldr	r0, [r3, #408]
 618 0016 03F5D073 		add	r3, r3, #416
 619 001a D3E90067 		ldrd	r6, [r3]
 620 001e 0130     		adds	r0, r0, #1
 621 0020 FFF7FEFF 		bl	__aeabi_ui2d
 622              	.LVL67:
 623 0024 3246     		mov	r2, r6
 624 0026 3B46     		mov	r3, r7
 625 0028 FFF7FEFF 		bl	__aeabi_dmul
 626              	.LVL68:
 627 002c C5E90801 		strd	r0, [r5, #32]
ARM GAS  C:\Users\nosak\AppData\Local\Temp\ccVQHiGb.s 			page 19


 628              	.L56:
 132:.\Motor_Contl4_3.c ****     Motor_Contl4_3_M->Timing.t[0] = rtsiGetT(&Motor_Contl4_3_M->solverInfo);
 629              		.loc 1 132 0
 630 0030 4CB9     		cbnz	r4, .L57
 133:.\Motor_Contl4_3.c ****   }
 631              		.loc 1 133 0
 632 0032 A34B     		ldr	r3, .L76
 633 0034 D3F8B021 		ldr	r2, [r3, #432]
 634 0038 D3F88430 		ldr	r3, [r3, #132]
 635 003c 1B68     		ldr	r3, [r3]
 636 003e D3E90001 		ldrd	r0, [r3]
 637 0042 C2E90001 		strd	r0, [r2]
 638              	.L57:
 140:.\Motor_Contl4_3.c **** // rtb_Sum2 = Motor_Contl4_3_U.RPM1 * 0.00033108163; //GP26A
 639              		.loc 1 140 0
 640 0046 9F4E     		ldr	r6, .L76+4
 641 0048 D6E90289 		ldrd	r8, [r6, #8]
 642 004c 9E4B     		ldr	r3, .L76+8
 643 004e 1868     		ldr	r0, [r3]	@ float
 644 0050 FFF7FEFF 		bl	__aeabi_f2d
 645              	.LVL69:
 646 0054 CDE90001 		strd	r0, [sp]
 647 0058 4046     		mov	r0, r8
 648 005a 4946     		mov	r1, r9
 649 005c DDE90023 		ldrd	r2, [sp]
 650 0060 FFF7FEFF 		bl	__aeabi_dmul
 651              	.LVL70:
 652 0064 8046     		mov	r8, r0
 653 0066 8946     		mov	r9, r1
 654              	.LVL71:
 152:.\Motor_Contl4_3.c **** 
 655              		.loc 1 152 0
 656 0068 D6E90001 		ldrd	r0, [r6]
 657 006c 4246     		mov	r2, r8
 658 006e 4B46     		mov	r3, r9
 659 0070 FFF7FEFF 		bl	__aeabi_dsub
 660              	.LVL72:
 661 0074 0646     		mov	r6, r0
 662 0076 0F46     		mov	r7, r1
 663 0078 944B     		ldr	r3, .L76+12
 664 007a C3E90067 		strd	r6, [r3]
 160:.\Motor_Contl4_3.c ****     Motor_Contl4_3_P.Gain_Gain * Motor_Contl4_3_B.Sum;
 665              		.loc 1 160 0
 666 007e 944C     		ldr	r4, .L76+16
 667 0080 D4E90201 		ldrd	r0, [r4, #8]
 668 0084 934B     		ldr	r3, .L76+20
 669 0086 D3E90023 		ldrd	r2, [r3]
 670 008a FFF7FEFF 		bl	__aeabi_dmul
 671              	.LVL73:
 672 008e 8246     		mov	r10, r0
 673 0090 8B46     		mov	fp, r1
 161:.\Motor_Contl4_3.c **** 
 674              		.loc 1 161 0
 675 0092 3046     		mov	r0, r6
 676 0094 3946     		mov	r1, r7
 677 0096 D4E90423 		ldrd	r2, [r4, #16]
 678 009a FFF7FEFF 		bl	__aeabi_dmul
ARM GAS  C:\Users\nosak\AppData\Local\Temp\ccVQHiGb.s 			page 20


 679              	.LVL74:
 680 009e 0246     		mov	r2, r0
 681 00a0 0B46     		mov	r3, r1
 160:.\Motor_Contl4_3.c ****     Motor_Contl4_3_P.Gain_Gain * Motor_Contl4_3_B.Sum;
 682              		.loc 1 160 0
 683 00a2 5046     		mov	r0, r10
 684 00a4 5946     		mov	r1, fp
 685 00a6 FFF7FEFF 		bl	__aeabi_dadd
 686              	.LVL75:
 687 00aa 8246     		mov	r10, r0
 688 00ac 8B46     		mov	fp, r1
 689              	.LVL76:
 166:.\Motor_Contl4_3.c ****     Motor_Contl4_3_P.Saturation_UpperSat : u <=
 690              		.loc 1 166 0
 691 00ae D4E90667 		ldrd	r6, [r4, #24]
 167:.\Motor_Contl4_3.c ****     Motor_Contl4_3_P.Saturation_LowerSat ? Motor_Contl4_3_P.Saturation_LowerSat :
 692              		.loc 1 167 0
 693 00b2 3046     		mov	r0, r6
 694 00b4 3946     		mov	r1, r7
 695 00b6 5246     		mov	r2, r10
 696 00b8 5B46     		mov	r3, fp
 697 00ba FFF7FEFF 		bl	__aeabi_dcmple
 698              	.LVL77:
 699 00be 50B9     		cbnz	r0, .L58
 168:.\Motor_Contl4_3.c ****     u;
 700              		.loc 1 168 0
 701 00c0 D4E90867 		ldrd	r6, [r4, #32]
 702 00c4 3046     		mov	r0, r6
 703 00c6 3946     		mov	r1, r7
 704 00c8 5246     		mov	r2, r10
 705 00ca 5B46     		mov	r3, fp
 706 00cc FFF7FEFF 		bl	__aeabi_dcmpge
 707              	.LVL78:
 708 00d0 08B9     		cbnz	r0, .L58
 709 00d2 5646     		mov	r6, r10
 710 00d4 5F46     		mov	r7, fp
 711              	.L58:
 166:.\Motor_Contl4_3.c ****     Motor_Contl4_3_P.Saturation_UpperSat : u <=
 712              		.loc 1 166 0
 713 00d6 804B     		ldr	r3, .L76+24
 714 00d8 C3E90067 		strd	r6, [r3]
 172:.\Motor_Contl4_3.c **** 
 715              		.loc 1 172 0
 716 00dc C3E90289 		strd	r8, [r3, #8]
 180:.\Motor_Contl4_3.c **** 
 717              		.loc 1 180 0
 718 00e0 784E     		ldr	r6, .L76+4
 719 00e2 DDE90001 		ldrd	r0, [sp]
 720 00e6 D6E90623 		ldrd	r2, [r6, #24]
 721 00ea FFF7FEFF 		bl	__aeabi_dmul
 722              	.LVL79:
 723 00ee 8046     		mov	r8, r0
 724              	.LVL80:
 725 00f0 8946     		mov	r9, r1
 726              	.LVL81:
 186:.\Motor_Contl4_3.c **** 
 727              		.loc 1 186 0
ARM GAS  C:\Users\nosak\AppData\Local\Temp\ccVQHiGb.s 			page 21


 728 00f2 D6E90401 		ldrd	r0, [r6, #16]
 729 00f6 4246     		mov	r2, r8
 730 00f8 4B46     		mov	r3, r9
 731 00fa FFF7FEFF 		bl	__aeabi_dsub
 732              	.LVL82:
 733 00fe 0646     		mov	r6, r0
 734 0100 0F46     		mov	r7, r1
 735 0102 724B     		ldr	r3, .L76+12
 736 0104 C3E90267 		strd	r6, [r3, #8]
 194:.\Motor_Contl4_3.c ****     Motor_Contl4_3_P.Gain_Gain_a * Motor_Contl4_3_B.Sum_n;
 737              		.loc 1 194 0
 738 0108 714C     		ldr	r4, .L76+16
 739 010a D4E90C01 		ldrd	r0, [r4, #48]
 740 010e 714B     		ldr	r3, .L76+20
 741 0110 D3E90223 		ldrd	r2, [r3, #8]
 742 0114 FFF7FEFF 		bl	__aeabi_dmul
 743              	.LVL83:
 744 0118 8246     		mov	r10, r0
 745              	.LVL84:
 746 011a 8B46     		mov	fp, r1
 195:.\Motor_Contl4_3.c **** 
 747              		.loc 1 195 0
 748 011c 3046     		mov	r0, r6
 749 011e 3946     		mov	r1, r7
 750 0120 D4E90E23 		ldrd	r2, [r4, #56]
 751 0124 FFF7FEFF 		bl	__aeabi_dmul
 752              	.LVL85:
 753 0128 0246     		mov	r2, r0
 754 012a 0B46     		mov	r3, r1
 194:.\Motor_Contl4_3.c ****     Motor_Contl4_3_P.Gain_Gain_a * Motor_Contl4_3_B.Sum_n;
 755              		.loc 1 194 0
 756 012c 5046     		mov	r0, r10
 757 012e 5946     		mov	r1, fp
 758 0130 FFF7FEFF 		bl	__aeabi_dadd
 759              	.LVL86:
 760 0134 8246     		mov	r10, r0
 761 0136 8B46     		mov	fp, r1
 762              	.LVL87:
 200:.\Motor_Contl4_3.c ****     Motor_Contl4_3_P.Saturation_UpperSat_o : u <=
 763              		.loc 1 200 0
 764 0138 D4E91067 		ldrd	r6, [r4, #64]
 201:.\Motor_Contl4_3.c ****     Motor_Contl4_3_P.Saturation_LowerSat_j ?
 765              		.loc 1 201 0
 766 013c 3046     		mov	r0, r6
 767 013e 3946     		mov	r1, r7
 768 0140 5246     		mov	r2, r10
 769 0142 5B46     		mov	r3, fp
 770 0144 FFF7FEFF 		bl	__aeabi_dcmple
 771              	.LVL88:
 772 0148 50B9     		cbnz	r0, .L61
 202:.\Motor_Contl4_3.c ****     Motor_Contl4_3_P.Saturation_LowerSat_j : u;
 773              		.loc 1 202 0
 774 014a D4E91267 		ldrd	r6, [r4, #72]
 203:.\Motor_Contl4_3.c **** 
 775              		.loc 1 203 0
 776 014e 3046     		mov	r0, r6
 777 0150 3946     		mov	r1, r7
ARM GAS  C:\Users\nosak\AppData\Local\Temp\ccVQHiGb.s 			page 22


 778 0152 5246     		mov	r2, r10
 779 0154 5B46     		mov	r3, fp
 780 0156 FFF7FEFF 		bl	__aeabi_dcmpge
 781              	.LVL89:
 782 015a 08B9     		cbnz	r0, .L61
 783 015c 5646     		mov	r6, r10
 784 015e 5F46     		mov	r7, fp
 785              	.L61:
 200:.\Motor_Contl4_3.c ****     Motor_Contl4_3_P.Saturation_UpperSat_o : u <=
 786              		.loc 1 200 0
 787 0160 5D4B     		ldr	r3, .L76+24
 788 0162 C3E90467 		strd	r6, [r3, #16]
 206:.\Motor_Contl4_3.c **** 
 789              		.loc 1 206 0
 790 0166 C3E90689 		strd	r8, [r3, #24]
 213:.\Motor_Contl4_3.c **** 
 791              		.loc 1 213 0
 792 016a 564E     		ldr	r6, .L76+4
 793 016c DDE90001 		ldrd	r0, [sp]
 794 0170 D6E90A23 		ldrd	r2, [r6, #40]
 795 0174 FFF7FEFF 		bl	__aeabi_dmul
 796              	.LVL90:
 797 0178 8046     		mov	r8, r0
 798              	.LVL91:
 799 017a 8946     		mov	r9, r1
 800              	.LVL92:
 219:.\Motor_Contl4_3.c **** 
 801              		.loc 1 219 0
 802 017c D6E90801 		ldrd	r0, [r6, #32]
 803 0180 4246     		mov	r2, r8
 804 0182 4B46     		mov	r3, r9
 805 0184 FFF7FEFF 		bl	__aeabi_dsub
 806              	.LVL93:
 807 0188 0646     		mov	r6, r0
 808 018a 0F46     		mov	r7, r1
 809 018c 4F4B     		ldr	r3, .L76+12
 810 018e C3E90467 		strd	r6, [r3, #16]
 227:.\Motor_Contl4_3.c ****     Motor_Contl4_3_P.Gain_Gain_i * Motor_Contl4_3_B.Sum_m;
 811              		.loc 1 227 0
 812 0192 4F4C     		ldr	r4, .L76+16
 813 0194 D4E91601 		ldrd	r0, [r4, #88]
 814 0198 4E4B     		ldr	r3, .L76+20
 815 019a D3E90423 		ldrd	r2, [r3, #16]
 816 019e FFF7FEFF 		bl	__aeabi_dmul
 817              	.LVL94:
 818 01a2 8246     		mov	r10, r0
 819              	.LVL95:
 820 01a4 8B46     		mov	fp, r1
 228:.\Motor_Contl4_3.c **** 
 821              		.loc 1 228 0
 822 01a6 3046     		mov	r0, r6
 823 01a8 3946     		mov	r1, r7
 824 01aa D4E91823 		ldrd	r2, [r4, #96]
 825 01ae FFF7FEFF 		bl	__aeabi_dmul
 826              	.LVL96:
 827 01b2 0246     		mov	r2, r0
 828 01b4 0B46     		mov	r3, r1
ARM GAS  C:\Users\nosak\AppData\Local\Temp\ccVQHiGb.s 			page 23


 227:.\Motor_Contl4_3.c ****     Motor_Contl4_3_P.Gain_Gain_i * Motor_Contl4_3_B.Sum_m;
 829              		.loc 1 227 0
 830 01b6 5046     		mov	r0, r10
 831 01b8 5946     		mov	r1, fp
 832 01ba FFF7FEFF 		bl	__aeabi_dadd
 833              	.LVL97:
 834 01be 8246     		mov	r10, r0
 835 01c0 8B46     		mov	fp, r1
 836              	.LVL98:
 233:.\Motor_Contl4_3.c ****     Motor_Contl4_3_P.Saturation_UpperSat_j : u <=
 837              		.loc 1 233 0
 838 01c2 D4E91A67 		ldrd	r6, [r4, #104]
 234:.\Motor_Contl4_3.c ****     Motor_Contl4_3_P.Saturation_LowerSat_a ?
 839              		.loc 1 234 0
 840 01c6 3046     		mov	r0, r6
 841 01c8 3946     		mov	r1, r7
 842 01ca 5246     		mov	r2, r10
 843 01cc 5B46     		mov	r3, fp
 844 01ce FFF7FEFF 		bl	__aeabi_dcmple
 845              	.LVL99:
 846 01d2 50B9     		cbnz	r0, .L64
 235:.\Motor_Contl4_3.c ****     Motor_Contl4_3_P.Saturation_LowerSat_a : u;
 847              		.loc 1 235 0
 848 01d4 D4E91C67 		ldrd	r6, [r4, #112]
 236:.\Motor_Contl4_3.c **** 
 849              		.loc 1 236 0
 850 01d8 3046     		mov	r0, r6
 851 01da 3946     		mov	r1, r7
 852 01dc 5246     		mov	r2, r10
 853 01de 5B46     		mov	r3, fp
 854 01e0 FFF7FEFF 		bl	__aeabi_dcmpge
 855              	.LVL100:
 856 01e4 08B9     		cbnz	r0, .L64
 857 01e6 5646     		mov	r6, r10
 858 01e8 5F46     		mov	r7, fp
 859              	.L64:
 233:.\Motor_Contl4_3.c ****     Motor_Contl4_3_P.Saturation_UpperSat_j : u <=
 860              		.loc 1 233 0
 861 01ea 3B4B     		ldr	r3, .L76+24
 862 01ec C3E90867 		strd	r6, [r3, #32]
 239:.\Motor_Contl4_3.c **** 
 863              		.loc 1 239 0
 864 01f0 C3E90A89 		strd	r8, [r3, #40]
 247:.\Motor_Contl4_3.c **** 
 865              		.loc 1 247 0
 866 01f4 334E     		ldr	r6, .L76+4
 867 01f6 DDE90001 		ldrd	r0, [sp]
 868 01fa D6E90E23 		ldrd	r2, [r6, #56]
 869 01fe FFF7FEFF 		bl	__aeabi_dmul
 870              	.LVL101:
 871 0202 0446     		mov	r4, r0
 872 0204 0D46     		mov	r5, r1
 873              	.LVL102:
 253:.\Motor_Contl4_3.c **** 
 874              		.loc 1 253 0
 875 0206 D6E90C01 		ldrd	r0, [r6, #48]
 876 020a 2246     		mov	r2, r4
ARM GAS  C:\Users\nosak\AppData\Local\Temp\ccVQHiGb.s 			page 24


 877 020c 2B46     		mov	r3, r5
 878 020e FFF7FEFF 		bl	__aeabi_dsub
 879              	.LVL103:
 880 0212 0646     		mov	r6, r0
 881 0214 0F46     		mov	r7, r1
 882 0216 2D4B     		ldr	r3, .L76+12
 883 0218 C3E90667 		strd	r6, [r3, #24]
 261:.\Motor_Contl4_3.c ****     Motor_Contl4_3_P.Gain_Gain_o * Motor_Contl4_3_B.Sum_i;
 884              		.loc 1 261 0
 885 021c DFF8B0A0 		ldr	r10, .L76+16
 886              	.LVL104:
 887 0220 DAE92001 		ldrd	r0, [r10, #128]
 888 0224 2B4B     		ldr	r3, .L76+20
 889 0226 D3E90623 		ldrd	r2, [r3, #24]
 890 022a FFF7FEFF 		bl	__aeabi_dmul
 891              	.LVL105:
 892 022e 8046     		mov	r8, r0
 893 0230 8946     		mov	r9, r1
 262:.\Motor_Contl4_3.c **** 
 894              		.loc 1 262 0
 895 0232 3046     		mov	r0, r6
 896 0234 3946     		mov	r1, r7
 897 0236 DAE92223 		ldrd	r2, [r10, #136]
 898 023a FFF7FEFF 		bl	__aeabi_dmul
 899              	.LVL106:
 900 023e 0246     		mov	r2, r0
 901 0240 0B46     		mov	r3, r1
 261:.\Motor_Contl4_3.c ****     Motor_Contl4_3_P.Gain_Gain_o * Motor_Contl4_3_B.Sum_i;
 902              		.loc 1 261 0
 903 0242 4046     		mov	r0, r8
 904 0244 4946     		mov	r1, r9
 905 0246 FFF7FEFF 		bl	__aeabi_dadd
 906              	.LVL107:
 907 024a 8046     		mov	r8, r0
 908 024c 8946     		mov	r9, r1
 909              	.LVL108:
 267:.\Motor_Contl4_3.c ****     Motor_Contl4_3_P.Saturation_UpperSat_g : u <=
 910              		.loc 1 267 0
 911 024e DAE92467 		ldrd	r6, [r10, #144]
 268:.\Motor_Contl4_3.c ****     Motor_Contl4_3_P.Saturation_LowerSat_l ?
 912              		.loc 1 268 0
 913 0252 3046     		mov	r0, r6
 914 0254 3946     		mov	r1, r7
 915 0256 4246     		mov	r2, r8
 916 0258 4B46     		mov	r3, r9
 917 025a FFF7FEFF 		bl	__aeabi_dcmple
 918              	.LVL109:
 919 025e 50B9     		cbnz	r0, .L67
 269:.\Motor_Contl4_3.c ****     Motor_Contl4_3_P.Saturation_LowerSat_l : u;
 920              		.loc 1 269 0
 921 0260 DAE92667 		ldrd	r6, [r10, #152]
 270:.\Motor_Contl4_3.c **** 
 922              		.loc 1 270 0
 923 0264 3046     		mov	r0, r6
 924 0266 3946     		mov	r1, r7
 925 0268 4246     		mov	r2, r8
 926 026a 4B46     		mov	r3, r9
ARM GAS  C:\Users\nosak\AppData\Local\Temp\ccVQHiGb.s 			page 25


 927 026c FFF7FEFF 		bl	__aeabi_dcmpge
 928              	.LVL110:
 929 0270 08B9     		cbnz	r0, .L67
 930 0272 4646     		mov	r6, r8
 931 0274 4F46     		mov	r7, r9
 932              	.L67:
 267:.\Motor_Contl4_3.c ****     Motor_Contl4_3_P.Saturation_UpperSat_g : u <=
 933              		.loc 1 267 0
 934 0276 184B     		ldr	r3, .L76+24
 935 0278 C3E90C67 		strd	r6, [r3, #48]
 273:.\Motor_Contl4_3.c **** 
 936              		.loc 1 273 0
 937 027c C3E90E45 		strd	r4, [r3, #56]
 277:.\Motor_Contl4_3.c ****     rt_ertODEUpdateContinuousStates(&Motor_Contl4_3_M->solverInfo);
 938              		.loc 1 277 0
 939 0280 0F4B     		ldr	r3, .L76
 940 0282 93F8AC31 		ldrb	r3, [r3, #428]	@ zero_extendqisi2
 941 0286 012B     		cmp	r3, #1
 942 0288 17D1     		bne	.L55
 278:.\Motor_Contl4_3.c **** 
 943              		.loc 1 278 0
 944 028a 144C     		ldr	r4, .L76+28
 945              	.LVL111:
 946 028c 2046     		mov	r0, r4
 947 028e FFF7FEFF 		bl	rt_ertODEUpdateContinuousStates
 948              	.LVL112:
 286:.\Motor_Contl4_3.c ****     Motor_Contl4_3_M->Timing.t[0] = rtsiGetSolverStopTime
 949              		.loc 1 286 0
 950 0292 A4F10800 		sub	r0, r4, #8
 951 0296 D4F89031 		ldr	r3, [r4, #400]
 952 029a 0133     		adds	r3, r3, #1
 953 029c C4F89031 		str	r3, [r4, #400]
 287:.\Motor_Contl4_3.c ****       (&Motor_Contl4_3_M->solverInfo);
 954              		.loc 1 287 0
 955 02a0 D4F8A831 		ldr	r3, [r4, #424]
 956 02a4 04F11805 		add	r5, r4, #24
 957 02a8 D5E90045 		ldrd	r4, [r5]
 958 02ac C3E90045 		strd	r4, [r3]
 297:.\Motor_Contl4_3.c ****     }
 959              		.loc 1 297 0
 960 02b0 D0F8A831 		ldr	r3, [r0, #424]
 961 02b4 0133     		adds	r3, r3, #1
 962 02b6 C0F8A831 		str	r3, [r0, #424]
 963              	.L55:
 300:.\Motor_Contl4_3.c **** 
 964              		.loc 1 300 0
 965 02ba 03B0     		add	sp, sp, #12
 966              		.cfi_def_cfa_offset 36
 967              		@ sp needed
 968 02bc BDE8F08F 		pop	{r4, r5, r6, r7, r8, r9, r10, fp, pc}
 969              	.LVL113:
 970              	.L77:
 971              		.align	2
 972              	.L76:
 973 02c0 00000000 		.word	Motor_Contl4_3_M_
 974 02c4 00000000 		.word	Motor_Contl4_3_U
 975 02c8 00000000 		.word	rpm2velo_ratio
ARM GAS  C:\Users\nosak\AppData\Local\Temp\ccVQHiGb.s 			page 26


 976 02cc 00000000 		.word	Motor_Contl4_3_B
 977 02d0 00000000 		.word	Motor_Contl4_3_P
 978 02d4 00000000 		.word	Motor_Contl4_3_X
 979 02d8 00000000 		.word	Motor_Contl4_3_Y
 980 02dc 08000000 		.word	Motor_Contl4_3_M_+8
 981              		.cfi_endproc
 982              	.LFE1:
 983              		.size	Motor_Contl4_3_step, .-Motor_Contl4_3_step
 984              		.section	.text.Motor_Contl4_3_initialize,"ax",%progbits
 985              		.align	2
 986              		.global	Motor_Contl4_3_initialize
 987              		.thumb
 988              		.thumb_func
 989              		.type	Motor_Contl4_3_initialize, %function
 990              	Motor_Contl4_3_initialize:
 991              	.LFB3:
 353:.\Motor_Contl4_3.c **** 
 354:.\Motor_Contl4_3.c ****     }
 355:.\Motor_Contl4_3.c ****   
 356:.\Motor_Contl4_3.c ****   /* Derivatives for Integrator: '<S4>/Integrator1' */
 357:.\Motor_Contl4_3.c **** }
 358:.\Motor_Contl4_3.c **** 
 359:.\Motor_Contl4_3.c **** /* Model initialize function */
 360:.\Motor_Contl4_3.c **** void Motor_Contl4_3_initialize(void)
 361:.\Motor_Contl4_3.c **** {
 992              		.loc 1 361 0
 993              		.cfi_startproc
 994              		@ args = 0, pretend = 0, frame = 0
 995              		@ frame_needed = 0, uses_anonymous_args = 0
 996 0000 70B5     		push	{r4, r5, r6, lr}
 997              		.cfi_def_cfa_offset 16
 998              		.cfi_offset 4, -16
 999              		.cfi_offset 5, -12
 1000              		.cfi_offset 6, -8
 1001              		.cfi_offset 14, -4
 362:.\Motor_Contl4_3.c ****   /* Registration code */
 363:.\Motor_Contl4_3.c **** 
 364:.\Motor_Contl4_3.c ****   /* initialize real-time model */
 365:.\Motor_Contl4_3.c ****   (void) memset((void *)Motor_Contl4_3_M, 0,
 1002              		.loc 1 365 0
 1003 0002 3E4C     		ldr	r4, .L80
 1004 0004 2046     		mov	r0, r4
 1005 0006 0021     		movs	r1, #0
 1006 0008 4FF4E472 		mov	r2, #456
 1007 000c FFF7FEFF 		bl	memset
 1008              	.LVL114:
 366:.\Motor_Contl4_3.c ****                 sizeof(RT_MODEL_Motor_Contl4_3));
 367:.\Motor_Contl4_3.c **** 
 368:.\Motor_Contl4_3.c ****   {
 369:.\Motor_Contl4_3.c ****     /* Setup solver object */
 370:.\Motor_Contl4_3.c ****     rtsiSetSimTimeStepPtr(&Motor_Contl4_3_M->solverInfo,
 1009              		.loc 1 370 0
 1010 0010 04F5D673 		add	r3, r4, #428
 1011 0014 E360     		str	r3, [r4, #12]
 371:.\Motor_Contl4_3.c ****                           &Motor_Contl4_3_M->Timing.simTimeStep);
 372:.\Motor_Contl4_3.c ****     rtsiSetTPtr(&Motor_Contl4_3_M->solverInfo, &rtmGetTPtr(Motor_Contl4_3_M));
 1012              		.loc 1 372 0
ARM GAS  C:\Users\nosak\AppData\Local\Temp\ccVQHiGb.s 			page 27


 1013 0016 04F5D873 		add	r3, r4, #432
 1014 001a C4F88430 		str	r3, [r4, #132]
 373:.\Motor_Contl4_3.c ****     rtsiSetStepSizePtr(&Motor_Contl4_3_M->solverInfo,
 1015              		.loc 1 373 0
 1016 001e 04F5D073 		add	r3, r4, #416
 1017 0022 A362     		str	r3, [r4, #40]
 374:.\Motor_Contl4_3.c ****                        &Motor_Contl4_3_M->Timing.stepSize0);
 375:.\Motor_Contl4_3.c ****     rtsiSetdXPtr(&Motor_Contl4_3_M->solverInfo,
 1018              		.loc 1 375 0
 1019 0024 04F1F402 		add	r2, r4, #244
 1020 0028 C4F88020 		str	r2, [r4, #128]
 376:.\Motor_Contl4_3.c ****                  &Motor_Contl4_3_M->ModelData.derivs);
 377:.\Motor_Contl4_3.c ****     rtsiSetContStatesPtr(&Motor_Contl4_3_M->solverInfo,
 1021              		.loc 1 377 0
 1022 002c 04F1F002 		add	r2, r4, #240
 1023 0030 C4F88C20 		str	r2, [r4, #140]
 378:.\Motor_Contl4_3.c ****                          &Motor_Contl4_3_M->ModelData.contStates);
 379:.\Motor_Contl4_3.c ****     rtsiSetNumContStatesPtr(&Motor_Contl4_3_M->solverInfo,
 1024              		.loc 1 379 0
 1025 0034 04F5C872 		add	r2, r4, #400
 1026 0038 C4F88820 		str	r2, [r4, #136]
 380:.\Motor_Contl4_3.c ****       &Motor_Contl4_3_M->Sizes.numContStates);
 381:.\Motor_Contl4_3.c ****     rtsiSetErrorStatusPtr(&Motor_Contl4_3_M->solverInfo, ((const char_T **)
 1027              		.loc 1 381 0
 1028 003c C4F8C840 		str	r4, [r4, #200]
 382:.\Motor_Contl4_3.c ****       (&rtmGetErrorStatus(Motor_Contl4_3_M))));
 383:.\Motor_Contl4_3.c ****     rtsiSetRTModelPtr(&Motor_Contl4_3_M->solverInfo, Motor_Contl4_3_M);
 1029              		.loc 1 383 0
 1030 0040 A460     		str	r4, [r4, #8]
 384:.\Motor_Contl4_3.c ****   }
 385:.\Motor_Contl4_3.c **** 
 386:.\Motor_Contl4_3.c ****   rtsiSetSimTimeStep(&Motor_Contl4_3_M->solverInfo, MAJOR_TIME_STEP);
 1031              		.loc 1 386 0
 1032 0042 0122     		movs	r2, #1
 1033 0044 84F8AC21 		strb	r2, [r4, #428]
 387:.\Motor_Contl4_3.c ****   Motor_Contl4_3_M->ModelData.intgData.y = Motor_Contl4_3_M->ModelData.odeY;
 1034              		.loc 1 387 0
 1035 0048 04F58072 		add	r2, r4, #256
 1036 004c C4F88021 		str	r2, [r4, #384]
 388:.\Motor_Contl4_3.c ****   Motor_Contl4_3_M->ModelData.intgData.f[0] = Motor_Contl4_3_M->ModelData.odeF[0];
 1037              		.loc 1 388 0
 1038 0050 04F59072 		add	r2, r4, #288
 1039 0054 C4F88421 		str	r2, [r4, #388]
 389:.\Motor_Contl4_3.c ****   Motor_Contl4_3_M->ModelData.intgData.f[1] = Motor_Contl4_3_M->ModelData.odeF[1];
 1040              		.loc 1 389 0
 1041 0058 04F5A072 		add	r2, r4, #320
 1042 005c C4F88821 		str	r2, [r4, #392]
 390:.\Motor_Contl4_3.c ****   Motor_Contl4_3_M->ModelData.intgData.f[2] = Motor_Contl4_3_M->ModelData.odeF[2];
 1043              		.loc 1 390 0
 1044 0060 04F5B072 		add	r2, r4, #352
 1045 0064 C4F88C21 		str	r2, [r4, #396]
 391:.\Motor_Contl4_3.c ****   Motor_Contl4_3_M->ModelData.contStates = ((real_T *) &Motor_Contl4_3_X);
 1046              		.loc 1 391 0
 1047 0068 254D     		ldr	r5, .L80+4
 1048 006a C4F8F050 		str	r5, [r4, #240]
 392:.\Motor_Contl4_3.c ****   rtsiSetSolverData(&Motor_Contl4_3_M->solverInfo, (void *)
 1049              		.loc 1 392 0
ARM GAS  C:\Users\nosak\AppData\Local\Temp\ccVQHiGb.s 			page 28


 1050 006e 04F5C072 		add	r2, r4, #384
 1051 0072 2261     		str	r2, [r4, #16]
 393:.\Motor_Contl4_3.c ****                     &Motor_Contl4_3_M->ModelData.intgData);
 394:.\Motor_Contl4_3.c ****   rtsiSetSolverName(&Motor_Contl4_3_M->solverInfo,"ode3");
 1052              		.loc 1 394 0
 1053 0074 234A     		ldr	r2, .L80+8
 1054 0076 6261     		str	r2, [r4, #20]
 395:.\Motor_Contl4_3.c ****   rtmSetTPtr(Motor_Contl4_3_M, &Motor_Contl4_3_M->Timing.tArray[0]);
 1055              		.loc 1 395 0
 1056 0078 04F5DC72 		add	r2, r4, #440
 1057 007c C4F8B021 		str	r2, [r4, #432]
 396:.\Motor_Contl4_3.c ****   Motor_Contl4_3_M->Timing.stepSize0 = 0.0625;
 1058              		.loc 1 396 0
 1059 0080 0020     		movs	r0, #0
 1060 0082 2149     		ldr	r1, .L80+12
 1061 0084 C3E90001 		strd	r0, [r3]
 397:.\Motor_Contl4_3.c **** 
 398:.\Motor_Contl4_3.c ****   /* block I/O */
 399:.\Motor_Contl4_3.c ****   (void) memset((void *)&Motor_Contl4_3_B, 0,
 1062              		.loc 1 399 0
 1063 0088 204A     		ldr	r2, .L80+16
 1064 008a 0024     		movs	r4, #0
 1065 008c 1346     		mov	r3, r2
 1066 008e 43F8044B 		str	r4, [r3], #4
 1067 0092 5460     		str	r4, [r2, #4]
 1068 0094 0433     		adds	r3, r3, #4
 1069 0096 43F8044B 		str	r4, [r3], #4
 1070 009a 43F8044B 		str	r4, [r3], #4
 1071 009e 43F8044B 		str	r4, [r3], #4
 1072 00a2 43F8044B 		str	r4, [r3], #4
 1073 00a6 43F8044B 		str	r4, [r3], #4
 1074 00aa 1C60     		str	r4, [r3]
 400:.\Motor_Contl4_3.c ****                 sizeof(BlockIO_Motor_Contl4_3));
 401:.\Motor_Contl4_3.c **** 
 402:.\Motor_Contl4_3.c ****   /* states (continuous) */
 403:.\Motor_Contl4_3.c ****   {
 404:.\Motor_Contl4_3.c ****     (void) memset((void *)&Motor_Contl4_3_X, 0,
 1075              		.loc 1 404 0
 1076 00ac 05F10C03 		add	r3, r5, #12
 1077 00b0 43F8044B 		str	r4, [r3], #4
 1078 00b4 43F8044B 		str	r4, [r3], #4
 1079 00b8 43F8044B 		str	r4, [r3], #4
 1080 00bc 43F8044B 		str	r4, [r3], #4
 1081 00c0 1C60     		str	r4, [r3]
 405:.\Motor_Contl4_3.c ****                   sizeof(ContinuousStates_Motor_Contl4_3));
 406:.\Motor_Contl4_3.c ****   }
 407:.\Motor_Contl4_3.c **** 
 408:.\Motor_Contl4_3.c ****   /* external inputs */
 409:.\Motor_Contl4_3.c ****   (void) memset((void *)&Motor_Contl4_3_U, 0,
 1082              		.loc 1 409 0
 1083 00c2 4026     		movs	r6, #64
 1084 00c4 1248     		ldr	r0, .L80+20
 1085 00c6 2146     		mov	r1, r4
 1086 00c8 3246     		mov	r2, r6
 1087 00ca FFF7FEFF 		bl	memset
 1088              	.LVL115:
 410:.\Motor_Contl4_3.c ****                 sizeof(ExternalInputs_Motor_Contl4_3));
ARM GAS  C:\Users\nosak\AppData\Local\Temp\ccVQHiGb.s 			page 29


 411:.\Motor_Contl4_3.c **** 
 412:.\Motor_Contl4_3.c ****   /* external outputs */
 413:.\Motor_Contl4_3.c ****   (void) memset((void *)&Motor_Contl4_3_Y, 0,
 1089              		.loc 1 413 0
 1090 00ce 1148     		ldr	r0, .L80+24
 1091 00d0 2146     		mov	r1, r4
 1092 00d2 3246     		mov	r2, r6
 1093 00d4 FFF7FEFF 		bl	memset
 1094              	.LVL116:
 414:.\Motor_Contl4_3.c ****                 sizeof(ExternalOutputs_Motor_Contl4_3));
 415:.\Motor_Contl4_3.c **** 
 416:.\Motor_Contl4_3.c ****   /* InitializeConditions for Integrator: '<S1>/Integrator1' */
 417:.\Motor_Contl4_3.c ****   Motor_Contl4_3_X.Integrator1_CSTATE = Motor_Contl4_3_P.Integrator1_IC;
 1095              		.loc 1 417 0
 1096 00d8 0F4B     		ldr	r3, .L80+28
 1097 00da D3E90001 		ldrd	r0, [r3]
 1098 00de C5E90001 		strd	r0, [r5]
 418:.\Motor_Contl4_3.c **** 
 419:.\Motor_Contl4_3.c ****   /* InitializeConditions for Integrator: '<S2>/Integrator1' */
 420:.\Motor_Contl4_3.c ****   Motor_Contl4_3_X.Integrator1_CSTATE_h = Motor_Contl4_3_P.Integrator1_IC_i;
 1099              		.loc 1 420 0
 1100 00e2 D3E90A01 		ldrd	r0, [r3, #40]
 1101 00e6 C5E90201 		strd	r0, [r5, #8]
 421:.\Motor_Contl4_3.c **** 
 422:.\Motor_Contl4_3.c ****   /* InitializeConditions for Integrator: '<S3>/Integrator1' */
 423:.\Motor_Contl4_3.c ****   Motor_Contl4_3_X.Integrator1_CSTATE_l = Motor_Contl4_3_P.Integrator1_IC_p;
 1102              		.loc 1 423 0
 1103 00ea D3E91401 		ldrd	r0, [r3, #80]
 1104 00ee C5E90401 		strd	r0, [r5, #16]
 424:.\Motor_Contl4_3.c **** 
 425:.\Motor_Contl4_3.c ****   /* InitializeConditions for Integrator: '<S4>/Integrator1' */
 426:.\Motor_Contl4_3.c ****   Motor_Contl4_3_X.Integrator1_CSTATE_g = Motor_Contl4_3_P.Integrator1_IC_ik;
 1105              		.loc 1 426 0
 1106 00f2 D3E91E23 		ldrd	r2, [r3, #120]
 1107 00f6 C5E90623 		strd	r2, [r5, #24]
 1108 00fa 70BD     		pop	{r4, r5, r6, pc}
 1109              	.L81:
 1110              		.align	2
 1111              	.L80:
 1112 00fc 00000000 		.word	Motor_Contl4_3_M_
 1113 0100 00000000 		.word	Motor_Contl4_3_X
 1114 0104 00000000 		.word	.LC0
 1115 0108 0000B03F 		.word	1068498944
 1116 010c 00000000 		.word	Motor_Contl4_3_B
 1117 0110 00000000 		.word	Motor_Contl4_3_U
 1118 0114 00000000 		.word	Motor_Contl4_3_Y
 1119 0118 00000000 		.word	Motor_Contl4_3_P
 1120              		.cfi_endproc
 1121              	.LFE3:
 1122              		.size	Motor_Contl4_3_initialize, .-Motor_Contl4_3_initialize
 1123              		.section	.text.Motor_Contl4_3_terminate,"ax",%progbits
 1124              		.align	2
 1125              		.global	Motor_Contl4_3_terminate
 1126              		.thumb
 1127              		.thumb_func
 1128              		.type	Motor_Contl4_3_terminate, %function
 1129              	Motor_Contl4_3_terminate:
ARM GAS  C:\Users\nosak\AppData\Local\Temp\ccVQHiGb.s 			page 30


 1130              	.LFB4:
 427:.\Motor_Contl4_3.c **** }
 428:.\Motor_Contl4_3.c **** 
 429:.\Motor_Contl4_3.c **** /* Model terminate function */
 430:.\Motor_Contl4_3.c **** void Motor_Contl4_3_terminate(void)
 431:.\Motor_Contl4_3.c **** {
 1131              		.loc 1 431 0
 1132              		.cfi_startproc
 1133              		@ args = 0, pretend = 0, frame = 0
 1134              		@ frame_needed = 0, uses_anonymous_args = 0
 1135              		@ link register save eliminated.
 1136 0000 7047     		bx	lr
 1137              		.cfi_endproc
 1138              	.LFE4:
 1139              		.size	Motor_Contl4_3_terminate, .-Motor_Contl4_3_terminate
 1140              		.global	Motor_Contl4_3_M
 1141              		.comm	Motor_Contl4_3_M_,456,8
 1142              		.comm	Motor_Contl4_3_Y,64,8
 1143              		.comm	Motor_Contl4_3_U,64,8
 1144              		.comm	Motor_Contl4_3_X,32,8
 1145              		.comm	Motor_Contl4_3_B,32,8
 1146 0002 00BF     		.section	.rodata
 1147              		.align	3
 1148              		.set	.LANCHOR0,. + 0
 1149              		.type	rt_ODE3_B.4714, %object
 1150              		.size	rt_ODE3_B.4714, 72
 1151              	rt_ODE3_B.4714:
 1152 0000 00000000 		.word	0
 1153 0004 0000E03F 		.word	1071644672
 1154 0008 00000000 		.word	0
 1155 000c 00000000 		.word	0
 1156 0010 00000000 		.word	0
 1157 0014 00000000 		.word	0
 1158 0018 00000000 		.word	0
 1159 001c 00000000 		.word	0
 1160 0020 00000000 		.word	0
 1161 0024 0000E83F 		.word	1072168960
 1162 0028 00000000 		.word	0
 1163 002c 00000000 		.word	0
 1164 0030 1CC7711C 		.word	477218588
 1165 0034 C771CC3F 		.word	1070363079
 1166 0038 55555555 		.word	1431655765
 1167 003c 5555D53F 		.word	1070945621
 1168 0040 1CC7711C 		.word	477218588
 1169 0044 C771DC3F 		.word	1071411655
 1170              		.type	Motor_Contl4_3_M, %object
 1171              		.size	Motor_Contl4_3_M, 4
 1172              	Motor_Contl4_3_M:
 1173 0048 00000000 		.word	Motor_Contl4_3_M_
 1174 004c 00000000 		.section	.rodata.str1.4,"aMS",%progbits,1
 1175              		.align	2
 1176              	.LC0:
 1177 0000 6F646533 		.ascii	"ode3\000"
 1177      00
 1178 0005 000000   		.text
 1179              	.Letext0:
 1180              		.file 2 ".\\rtwtypes.h"
ARM GAS  C:\Users\nosak\AppData\Local\Temp\ccVQHiGb.s 			page 31


 1181              		.file 3 ".\\rtw_continuous.h"
 1182              		.file 4 ".\\rtw_solver.h"
 1183              		.file 5 ".\\Motor_Contl4_3_types.h"
 1184              		.file 6 ".\\Motor_Contl4_3.h"