ARM GAS  C:\Users\nosak\AppData\Local\Temp\ccm1FIH8.s 			page 1


   1              		.syntax unified
   2              		.cpu cortex-m3
   3              		.fpu softvfp
   4              		.eabi_attribute 20, 1
   5              		.eabi_attribute 21, 1
   6              		.eabi_attribute 23, 3
   7              		.eabi_attribute 24, 1
   8              		.eabi_attribute 25, 1
   9              		.eabi_attribute 26, 1
  10              		.eabi_attribute 30, 1
  11              		.eabi_attribute 34, 1
  12              		.eabi_attribute 18, 4
  13              		.thumb
  14              		.file	"P_out_2.c"
  15              		.text
  16              	.Ltext0:
  17              		.cfi_sections	.debug_frame
  18              		.section	.text.P_out_2_Write,"ax",%progbits
  19              		.align	2
  20              		.global	P_out_2_Write
  21              		.thumb
  22              		.thumb_func
  23              		.type	P_out_2_Write, %function
  24              	P_out_2_Write:
  25              	.LFB0:
  26              		.file 1 ".\\Generated_Source\\PSoC5\\P_out_2.c"
   1:.\Generated_Source\PSoC5/P_out_2.c **** /*******************************************************************************
   2:.\Generated_Source\PSoC5/P_out_2.c **** * File Name: P_out_2.c  
   3:.\Generated_Source\PSoC5/P_out_2.c **** * Version 2.20
   4:.\Generated_Source\PSoC5/P_out_2.c **** *
   5:.\Generated_Source\PSoC5/P_out_2.c **** * Description:
   6:.\Generated_Source\PSoC5/P_out_2.c **** *  This file contains API to enable firmware control of a Pins component.
   7:.\Generated_Source\PSoC5/P_out_2.c **** *
   8:.\Generated_Source\PSoC5/P_out_2.c **** * Note:
   9:.\Generated_Source\PSoC5/P_out_2.c **** *
  10:.\Generated_Source\PSoC5/P_out_2.c **** ********************************************************************************
  11:.\Generated_Source\PSoC5/P_out_2.c **** * Copyright 2008-2015, Cypress Semiconductor Corporation.  All rights reserved.
  12:.\Generated_Source\PSoC5/P_out_2.c **** * You may use this file only in accordance with the license, terms, conditions, 
  13:.\Generated_Source\PSoC5/P_out_2.c **** * disclaimers, and limitations in the end user license agreement accompanying 
  14:.\Generated_Source\PSoC5/P_out_2.c **** * the software package with which this file was provided.
  15:.\Generated_Source\PSoC5/P_out_2.c **** *******************************************************************************/
  16:.\Generated_Source\PSoC5/P_out_2.c **** 
  17:.\Generated_Source\PSoC5/P_out_2.c **** #include "cytypes.h"
  18:.\Generated_Source\PSoC5/P_out_2.c **** #include "P_out_2.h"
  19:.\Generated_Source\PSoC5/P_out_2.c **** 
  20:.\Generated_Source\PSoC5/P_out_2.c **** /* APIs are not generated for P15[7:6] on PSoC 5 */
  21:.\Generated_Source\PSoC5/P_out_2.c **** #if !(CY_PSOC5A &&\
  22:.\Generated_Source\PSoC5/P_out_2.c **** 	 P_out_2__PORT == 15 && ((P_out_2__MASK & 0xC0) != 0))
  23:.\Generated_Source\PSoC5/P_out_2.c **** 
  24:.\Generated_Source\PSoC5/P_out_2.c **** 
  25:.\Generated_Source\PSoC5/P_out_2.c **** /*******************************************************************************
  26:.\Generated_Source\PSoC5/P_out_2.c **** * Function Name: P_out_2_Write
  27:.\Generated_Source\PSoC5/P_out_2.c **** ****************************************************************************//**
  28:.\Generated_Source\PSoC5/P_out_2.c **** *
  29:.\Generated_Source\PSoC5/P_out_2.c **** * \brief Writes the value to the physical port (data output register), masking
  30:.\Generated_Source\PSoC5/P_out_2.c **** *  and shifting the bits appropriately. 
  31:.\Generated_Source\PSoC5/P_out_2.c **** *
ARM GAS  C:\Users\nosak\AppData\Local\Temp\ccm1FIH8.s 			page 2


  32:.\Generated_Source\PSoC5/P_out_2.c **** * The data output register controls the signal applied to the physical pin in 
  33:.\Generated_Source\PSoC5/P_out_2.c **** * conjunction with the drive mode parameter. This function avoids changing 
  34:.\Generated_Source\PSoC5/P_out_2.c **** * other bits in the port by using the appropriate method (read-modify-write or
  35:.\Generated_Source\PSoC5/P_out_2.c **** * bit banding).
  36:.\Generated_Source\PSoC5/P_out_2.c **** *
  37:.\Generated_Source\PSoC5/P_out_2.c **** * <b>Note</b> This function should not be used on a hardware digital output pin 
  38:.\Generated_Source\PSoC5/P_out_2.c **** * as it is driven by the hardware signal attached to it.
  39:.\Generated_Source\PSoC5/P_out_2.c **** *
  40:.\Generated_Source\PSoC5/P_out_2.c **** * \param value
  41:.\Generated_Source\PSoC5/P_out_2.c **** *  Value to write to the component instance.
  42:.\Generated_Source\PSoC5/P_out_2.c **** *
  43:.\Generated_Source\PSoC5/P_out_2.c **** * \return 
  44:.\Generated_Source\PSoC5/P_out_2.c **** *  None 
  45:.\Generated_Source\PSoC5/P_out_2.c **** *
  46:.\Generated_Source\PSoC5/P_out_2.c **** * \sideeffect
  47:.\Generated_Source\PSoC5/P_out_2.c **** *  If you use read-modify-write operations that are not atomic; the Interrupt 
  48:.\Generated_Source\PSoC5/P_out_2.c **** *  Service Routines (ISR) can cause corruption of this function. An ISR that 
  49:.\Generated_Source\PSoC5/P_out_2.c **** *  interrupts this function and performs writes to the Pins component data 
  50:.\Generated_Source\PSoC5/P_out_2.c **** *  register can cause corrupted port data. To avoid this issue, you should 
  51:.\Generated_Source\PSoC5/P_out_2.c **** *  either use the Per-Pin APIs (primary method) or disable interrupts around 
  52:.\Generated_Source\PSoC5/P_out_2.c **** *  this function.
  53:.\Generated_Source\PSoC5/P_out_2.c **** *
  54:.\Generated_Source\PSoC5/P_out_2.c **** * \funcusage
  55:.\Generated_Source\PSoC5/P_out_2.c **** *  \snippet P_out_2_SUT.c usage_P_out_2_Write
  56:.\Generated_Source\PSoC5/P_out_2.c **** *******************************************************************************/
  57:.\Generated_Source\PSoC5/P_out_2.c **** void P_out_2_Write(uint8 value)
  58:.\Generated_Source\PSoC5/P_out_2.c **** {
  27              		.loc 1 58 0
  28              		.cfi_startproc
  29              		@ args = 0, pretend = 0, frame = 0
  30              		@ frame_needed = 0, uses_anonymous_args = 0
  31              		@ link register save eliminated.
  32              	.LVL0:
  59:.\Generated_Source\PSoC5/P_out_2.c ****     uint8 staticBits = (P_out_2_DR & (uint8)(~P_out_2_MASK));
  33              		.loc 1 59 0
  34 0000 044A     		ldr	r2, .L2
  35 0002 1378     		ldrb	r3, [r2]	@ zero_extendqisi2
  36 0004 03F03F03 		and	r3, r3, #63
  37              	.LVL1:
  60:.\Generated_Source\PSoC5/P_out_2.c ****     P_out_2_DR = staticBits | ((uint8)(value << P_out_2_SHIFT) & P_out_2_MASK);
  38              		.loc 1 60 0
  39 0008 8001     		lsls	r0, r0, #6
  40              	.LVL2:
  41 000a C0B2     		uxtb	r0, r0
  42 000c 0343     		orrs	r3, r3, r0
  43              	.LVL3:
  44 000e 1370     		strb	r3, [r2]
  45 0010 7047     		bx	lr
  46              	.L3:
  47 0012 00BF     		.align	2
  48              	.L2:
  49 0014 60510040 		.word	1073762656
  50              		.cfi_endproc
  51              	.LFE0:
  52              		.size	P_out_2_Write, .-P_out_2_Write
  53              		.section	.text.P_out_2_SetDriveMode,"ax",%progbits
  54              		.align	2
ARM GAS  C:\Users\nosak\AppData\Local\Temp\ccm1FIH8.s 			page 3


  55              		.global	P_out_2_SetDriveMode
  56              		.thumb
  57              		.thumb_func
  58              		.type	P_out_2_SetDriveMode, %function
  59              	P_out_2_SetDriveMode:
  60              	.LFB1:
  61:.\Generated_Source\PSoC5/P_out_2.c **** }
  62:.\Generated_Source\PSoC5/P_out_2.c **** 
  63:.\Generated_Source\PSoC5/P_out_2.c **** 
  64:.\Generated_Source\PSoC5/P_out_2.c **** /*******************************************************************************
  65:.\Generated_Source\PSoC5/P_out_2.c **** * Function Name: P_out_2_SetDriveMode
  66:.\Generated_Source\PSoC5/P_out_2.c **** ****************************************************************************//**
  67:.\Generated_Source\PSoC5/P_out_2.c **** *
  68:.\Generated_Source\PSoC5/P_out_2.c **** * \brief Sets the drive mode for each of the Pins component's pins.
  69:.\Generated_Source\PSoC5/P_out_2.c **** * 
  70:.\Generated_Source\PSoC5/P_out_2.c **** * <b>Note</b> This affects all pins in the Pins component instance. Use the
  71:.\Generated_Source\PSoC5/P_out_2.c **** * Per-Pin APIs if you wish to control individual pin's drive modes.
  72:.\Generated_Source\PSoC5/P_out_2.c **** *
  73:.\Generated_Source\PSoC5/P_out_2.c **** * \param mode
  74:.\Generated_Source\PSoC5/P_out_2.c **** *  Mode for the selected signals. Valid options are documented in 
  75:.\Generated_Source\PSoC5/P_out_2.c **** *  \ref driveMode.
  76:.\Generated_Source\PSoC5/P_out_2.c **** *
  77:.\Generated_Source\PSoC5/P_out_2.c **** * \return
  78:.\Generated_Source\PSoC5/P_out_2.c **** *  None
  79:.\Generated_Source\PSoC5/P_out_2.c **** *
  80:.\Generated_Source\PSoC5/P_out_2.c **** * \sideeffect
  81:.\Generated_Source\PSoC5/P_out_2.c **** *  If you use read-modify-write operations that are not atomic, the ISR can
  82:.\Generated_Source\PSoC5/P_out_2.c **** *  cause corruption of this function. An ISR that interrupts this function 
  83:.\Generated_Source\PSoC5/P_out_2.c **** *  and performs writes to the Pins component Drive Mode registers can cause 
  84:.\Generated_Source\PSoC5/P_out_2.c **** *  corrupted port data. To avoid this issue, you should either use the Per-Pin
  85:.\Generated_Source\PSoC5/P_out_2.c **** *  APIs (primary method) or disable interrupts around this function.
  86:.\Generated_Source\PSoC5/P_out_2.c **** *
  87:.\Generated_Source\PSoC5/P_out_2.c **** * \funcusage
  88:.\Generated_Source\PSoC5/P_out_2.c **** *  \snippet P_out_2_SUT.c usage_P_out_2_SetDriveMode
  89:.\Generated_Source\PSoC5/P_out_2.c **** *******************************************************************************/
  90:.\Generated_Source\PSoC5/P_out_2.c **** void P_out_2_SetDriveMode(uint8 mode)
  91:.\Generated_Source\PSoC5/P_out_2.c **** {
  61              		.loc 1 91 0
  62              		.cfi_startproc
  63              		@ args = 0, pretend = 0, frame = 0
  64              		@ frame_needed = 0, uses_anonymous_args = 0
  65              		@ link register save eliminated.
  66              	.LVL4:
  92:.\Generated_Source\PSoC5/P_out_2.c **** 	CyPins_SetPinDriveMode(P_out_2_0, mode);
  67              		.loc 1 92 0
  68 0000 074A     		ldr	r2, .L5
  69 0002 1378     		ldrb	r3, [r2]	@ zero_extendqisi2
  70 0004 00F00E00 		and	r0, r0, #14
  71              	.LVL5:
  72 0008 03F0F103 		and	r3, r3, #241
  73 000c 0343     		orrs	r3, r3, r0
  74 000e 1370     		strb	r3, [r2]
  93:.\Generated_Source\PSoC5/P_out_2.c **** 	CyPins_SetPinDriveMode(P_out_2_1, mode);
  75              		.loc 1 93 0
  76 0010 0132     		adds	r2, r2, #1
  77 0012 1378     		ldrb	r3, [r2]	@ zero_extendqisi2
  78 0014 03F0F103 		and	r3, r3, #241
ARM GAS  C:\Users\nosak\AppData\Local\Temp\ccm1FIH8.s 			page 4


  79 0018 1843     		orrs	r0, r0, r3
  80 001a 1070     		strb	r0, [r2]
  81 001c 7047     		bx	lr
  82              	.L6:
  83 001e 00BF     		.align	2
  84              	.L5:
  85 0020 36500040 		.word	1073762358
  86              		.cfi_endproc
  87              	.LFE1:
  88              		.size	P_out_2_SetDriveMode, .-P_out_2_SetDriveMode
  89              		.section	.text.P_out_2_Read,"ax",%progbits
  90              		.align	2
  91              		.global	P_out_2_Read
  92              		.thumb
  93              		.thumb_func
  94              		.type	P_out_2_Read, %function
  95              	P_out_2_Read:
  96              	.LFB2:
  94:.\Generated_Source\PSoC5/P_out_2.c **** }
  95:.\Generated_Source\PSoC5/P_out_2.c **** 
  96:.\Generated_Source\PSoC5/P_out_2.c **** 
  97:.\Generated_Source\PSoC5/P_out_2.c **** /*******************************************************************************
  98:.\Generated_Source\PSoC5/P_out_2.c **** * Function Name: P_out_2_Read
  99:.\Generated_Source\PSoC5/P_out_2.c **** ****************************************************************************//**
 100:.\Generated_Source\PSoC5/P_out_2.c **** *
 101:.\Generated_Source\PSoC5/P_out_2.c **** * \brief Reads the associated physical port (pin status register) and masks 
 102:.\Generated_Source\PSoC5/P_out_2.c **** *  the required bits according to the width and bit position of the component
 103:.\Generated_Source\PSoC5/P_out_2.c **** *  instance. 
 104:.\Generated_Source\PSoC5/P_out_2.c **** *
 105:.\Generated_Source\PSoC5/P_out_2.c **** * The pin's status register returns the current logic level present on the 
 106:.\Generated_Source\PSoC5/P_out_2.c **** * physical pin.
 107:.\Generated_Source\PSoC5/P_out_2.c **** *
 108:.\Generated_Source\PSoC5/P_out_2.c **** * \return 
 109:.\Generated_Source\PSoC5/P_out_2.c **** *  The current value for the pins in the component as a right justified number.
 110:.\Generated_Source\PSoC5/P_out_2.c **** *
 111:.\Generated_Source\PSoC5/P_out_2.c **** * \funcusage
 112:.\Generated_Source\PSoC5/P_out_2.c **** *  \snippet P_out_2_SUT.c usage_P_out_2_Read  
 113:.\Generated_Source\PSoC5/P_out_2.c **** *******************************************************************************/
 114:.\Generated_Source\PSoC5/P_out_2.c **** uint8 P_out_2_Read(void)
 115:.\Generated_Source\PSoC5/P_out_2.c **** {
  97              		.loc 1 115 0
  98              		.cfi_startproc
  99              		@ args = 0, pretend = 0, frame = 0
 100              		@ frame_needed = 0, uses_anonymous_args = 0
 101              		@ link register save eliminated.
 116:.\Generated_Source\PSoC5/P_out_2.c ****     return (P_out_2_PS & P_out_2_MASK) >> P_out_2_SHIFT;
 102              		.loc 1 116 0
 103 0000 014B     		ldr	r3, .L8
 104 0002 1878     		ldrb	r0, [r3]	@ zero_extendqisi2
 117:.\Generated_Source\PSoC5/P_out_2.c **** }
 105              		.loc 1 117 0
 106 0004 8009     		lsrs	r0, r0, #6
 107 0006 7047     		bx	lr
 108              	.L9:
 109              		.align	2
 110              	.L8:
 111 0008 61510040 		.word	1073762657
ARM GAS  C:\Users\nosak\AppData\Local\Temp\ccm1FIH8.s 			page 5


 112              		.cfi_endproc
 113              	.LFE2:
 114              		.size	P_out_2_Read, .-P_out_2_Read
 115              		.section	.text.P_out_2_ReadDataReg,"ax",%progbits
 116              		.align	2
 117              		.global	P_out_2_ReadDataReg
 118              		.thumb
 119              		.thumb_func
 120              		.type	P_out_2_ReadDataReg, %function
 121              	P_out_2_ReadDataReg:
 122              	.LFB3:
 118:.\Generated_Source\PSoC5/P_out_2.c **** 
 119:.\Generated_Source\PSoC5/P_out_2.c **** 
 120:.\Generated_Source\PSoC5/P_out_2.c **** /*******************************************************************************
 121:.\Generated_Source\PSoC5/P_out_2.c **** * Function Name: P_out_2_ReadDataReg
 122:.\Generated_Source\PSoC5/P_out_2.c **** ****************************************************************************//**
 123:.\Generated_Source\PSoC5/P_out_2.c **** *
 124:.\Generated_Source\PSoC5/P_out_2.c **** * \brief Reads the associated physical port's data output register and masks 
 125:.\Generated_Source\PSoC5/P_out_2.c **** *  the correct bits according to the width and bit position of the component 
 126:.\Generated_Source\PSoC5/P_out_2.c **** *  instance. 
 127:.\Generated_Source\PSoC5/P_out_2.c **** *
 128:.\Generated_Source\PSoC5/P_out_2.c **** * The data output register controls the signal applied to the physical pin in 
 129:.\Generated_Source\PSoC5/P_out_2.c **** * conjunction with the drive mode parameter. This is not the same as the 
 130:.\Generated_Source\PSoC5/P_out_2.c **** * preferred P_out_2_Read() API because the 
 131:.\Generated_Source\PSoC5/P_out_2.c **** * P_out_2_ReadDataReg() reads the data register instead of the status 
 132:.\Generated_Source\PSoC5/P_out_2.c **** * register. For output pins this is a useful function to determine the value 
 133:.\Generated_Source\PSoC5/P_out_2.c **** * just written to the pin.
 134:.\Generated_Source\PSoC5/P_out_2.c **** *
 135:.\Generated_Source\PSoC5/P_out_2.c **** * \return 
 136:.\Generated_Source\PSoC5/P_out_2.c **** *  The current value of the data register masked and shifted into a right 
 137:.\Generated_Source\PSoC5/P_out_2.c **** *  justified number for the component instance.
 138:.\Generated_Source\PSoC5/P_out_2.c **** *
 139:.\Generated_Source\PSoC5/P_out_2.c **** * \funcusage
 140:.\Generated_Source\PSoC5/P_out_2.c **** *  \snippet P_out_2_SUT.c usage_P_out_2_ReadDataReg 
 141:.\Generated_Source\PSoC5/P_out_2.c **** *******************************************************************************/
 142:.\Generated_Source\PSoC5/P_out_2.c **** uint8 P_out_2_ReadDataReg(void)
 143:.\Generated_Source\PSoC5/P_out_2.c **** {
 123              		.loc 1 143 0
 124              		.cfi_startproc
 125              		@ args = 0, pretend = 0, frame = 0
 126              		@ frame_needed = 0, uses_anonymous_args = 0
 127              		@ link register save eliminated.
 144:.\Generated_Source\PSoC5/P_out_2.c ****     return (P_out_2_DR & P_out_2_MASK) >> P_out_2_SHIFT;
 128              		.loc 1 144 0
 129 0000 014B     		ldr	r3, .L11
 130 0002 1878     		ldrb	r0, [r3]	@ zero_extendqisi2
 145:.\Generated_Source\PSoC5/P_out_2.c **** }
 131              		.loc 1 145 0
 132 0004 8009     		lsrs	r0, r0, #6
 133 0006 7047     		bx	lr
 134              	.L12:
 135              		.align	2
 136              	.L11:
 137 0008 60510040 		.word	1073762656
 138              		.cfi_endproc
 139              	.LFE3:
 140              		.size	P_out_2_ReadDataReg, .-P_out_2_ReadDataReg
ARM GAS  C:\Users\nosak\AppData\Local\Temp\ccm1FIH8.s 			page 6


 141              		.text
 142              	.Letext0:
 143              		.file 2 ".\\Generated_Source\\PSoC5\\cytypes.h"