ARM GAS  C:\Users\nosak\AppData\Local\Temp\ccAuB64A.s 			page 1


   1              		.syntax unified
   2              		.cpu cortex-m3
   3              		.fpu softvfp
   4              		.eabi_attribute 20, 1
   5              		.eabi_attribute 21, 1
   6              		.eabi_attribute 23, 3
   7              		.eabi_attribute 24, 1
   8              		.eabi_attribute 25, 1
   9              		.eabi_attribute 26, 1
  10              		.eabi_attribute 30, 1
  11              		.eabi_attribute 34, 1
  12              		.eabi_attribute 18, 4
  13              		.thumb
  14              		.file	"SelfTest_CPU.c"
  15              		.text
  16              	.Ltext0:
  17              		.cfi_sections	.debug_frame
  18              		.section	.text.SelfTest_CPU_Registers,"ax",%progbits
  19              		.align	2
  20              		.global	SelfTest_CPU_Registers
  21              		.thumb
  22              		.thumb_func
  23              		.type	SelfTest_CPU_Registers, %function
  24              	SelfTest_CPU_Registers:
  25              	.LFB63:
  26              		.file 1 ".\\SelfTest_CPU.c"
   1:.\SelfTest_CPU.c **** /*******************************************************************************
   2:.\SelfTest_CPU.c **** * File Name: SelfTest_CPU.c 
   3:.\SelfTest_CPU.c **** * Version 1.0
   4:.\SelfTest_CPU.c **** *
   5:.\SelfTest_CPU.c **** * Description:
   6:.\SelfTest_CPU.c **** * This file provides the source code for the CPU register self tests for 
   7:.\SelfTest_CPU.c **** * PSoC 3 and PSoC 5LP.
   8:.\SelfTest_CPU.c **** *
   9:.\SelfTest_CPU.c **** * Note:
  10:.\SelfTest_CPU.c **** *
  11:.\SelfTest_CPU.c **** ********************************************************************************
  12:.\SelfTest_CPU.c **** * Copyright (2013), Cypress Semiconductor Corporation.
  13:.\SelfTest_CPU.c **** ********************************************************************************
  14:.\SelfTest_CPU.c **** * This software is owned by Cypress Semiconductor Corporation (Cypress) and is
  15:.\SelfTest_CPU.c **** * protected by and subject to worldwide patent protection (United States and
  16:.\SelfTest_CPU.c **** * foreign), United States copyright laws and international treaty provisions.
  17:.\SelfTest_CPU.c **** * Cypress hereby grants to licensee a personal, non-exclusive, non-transferable
  18:.\SelfTest_CPU.c **** * license to copy, use, modify, create derivative works of, and compile the
  19:.\SelfTest_CPU.c **** * Cypress Source Code and derivative works for the sole purpose of creating
  20:.\SelfTest_CPU.c **** * custom software in support of licensee product to be used only in conjunction
  21:.\SelfTest_CPU.c **** * with a Cypress integrated circuit as specified in the applicable agreement.
  22:.\SelfTest_CPU.c **** * Any reproduction, modification, translation, compilation, or representation of
  23:.\SelfTest_CPU.c **** * this software except as specified above is prohibited without the express
  24:.\SelfTest_CPU.c **** * written permission of Cypress.
  25:.\SelfTest_CPU.c **** *
  26:.\SelfTest_CPU.c **** * Disclaimer: CYPRESS MAKES NO WARRANTY OF ANY KIND, EXPRESS OR IMPLIED, WITH
  27:.\SelfTest_CPU.c **** * REGARD TO THIS MATERIAL, INCLUDING, BUT NOT LIMITED TO, THE IMPLIED
  28:.\SelfTest_CPU.c **** * WARRANTIES OF MERCHANTABILITY AND FITNESS FOR A PARTICULAR PURPOSE.
  29:.\SelfTest_CPU.c **** * Cypress reserves the right to make changes without further notice to the
  30:.\SelfTest_CPU.c **** * materials described herein. Cypress does not assume any liability arising out
  31:.\SelfTest_CPU.c **** * of the application or use of any product or circuit described herein. Cypress
ARM GAS  C:\Users\nosak\AppData\Local\Temp\ccAuB64A.s 			page 2


  32:.\SelfTest_CPU.c **** * does not authorize its products for use as critical components in life-support
  33:.\SelfTest_CPU.c **** * systems where a malfunction or failure may reasonably be expected to result in
  34:.\SelfTest_CPU.c **** * significant injury to the user. The inclusion of Cypress product in a life*
  35:.\SelfTest_CPU.c **** support systems application implies that the manufacturer assumes all risk of
  36:.\SelfTest_CPU.c **** * such use and in doing so indemnifies Cypress against all charges. Use may be
  37:.\SelfTest_CPU.c **** * limited by and subject to the applicable Cypress software license agreement.
  38:.\SelfTest_CPU.c **** *******************************************************************************/
  39:.\SelfTest_CPU.c **** 
  40:.\SelfTest_CPU.c **** #include <device.h>
  41:.\SelfTest_CPU.c **** #include "SelfTest_CPU.h"
  42:.\SelfTest_CPU.c **** #include "SelfTest_CPU_asm.h"
  43:.\SelfTest_CPU.c **** #include "SelfTest_Flash.h"
  44:.\SelfTest_CPU.c **** #include "TestConfiguration.h"
  45:.\SelfTest_CPU.c **** 
  46:.\SelfTest_CPU.c **** 
  47:.\SelfTest_CPU.c **** static volatile uint8 SelfTestA;
  48:.\SelfTest_CPU.c **** static volatile uint16 SelfTestB;
  49:.\SelfTest_CPU.c **** static volatile uint32 SelfTestC;
  50:.\SelfTest_CPU.c **** 
  51:.\SelfTest_CPU.c **** 
  52:.\SelfTest_CPU.c **** /* definition of section for SelfTest_PC5555() and SelfTest_PCAAAA() functions 
  53:.\SelfTest_CPU.c ****    for GCC compiler */
  54:.\SelfTest_CPU.c **** #if defined(__GNUC__) || defined(__ARMCC_VERSION)
  55:.\SelfTest_CPU.c ****     static uint8 SelfTest_PC5555 (void) __attribute__ ((used, section ("PC5555")));
  56:.\SelfTest_CPU.c ****     static uint8 SelfTest_PCAAAA (void) __attribute__ ((used, section ("PCAAAA")));
  57:.\SelfTest_CPU.c **** #endif
  58:.\SelfTest_CPU.c **** 
  59:.\SelfTest_CPU.c **** static uint8 SelfTest_PC5555(void);
  60:.\SelfTest_CPU.c **** static uint8 SelfTest_PCAAAA(void);
  61:.\SelfTest_CPU.c **** 
  62:.\SelfTest_CPU.c **** /*******************************************************************************
  63:.\SelfTest_CPU.c **** * Function Name: SelfTest_CPU_RAM
  64:.\SelfTest_CPU.c **** ********************************************************************************
  65:.\SelfTest_CPU.c **** *
  66:.\SelfTest_CPU.c **** * Summary: 
  67:.\SelfTest_CPU.c **** *  This function performs checkerboard test for all CPU registers except the PC 
  68:.\SelfTest_CPU.c **** *  register.
  69:.\SelfTest_CPU.c **** *
  70:.\SelfTest_CPU.c **** * Parameters:
  71:.\SelfTest_CPU.c **** *  None.
  72:.\SelfTest_CPU.c **** *                           
  73:.\SelfTest_CPU.c **** * Return:
  74:.\SelfTest_CPU.c **** *  Result of test:  "0" - pass test; "1" - fail test.
  75:.\SelfTest_CPU.c **** * 
  76:.\SelfTest_CPU.c **** **********************************************************************************/
  77:.\SelfTest_CPU.c **** uint8 SelfTest_CPU_Registers(void)
  78:.\SelfTest_CPU.c **** {	   
  27              		.loc 1 78 0
  28              		.cfi_startproc
  29              		@ args = 0, pretend = 0, frame = 0
  30              		@ frame_needed = 0, uses_anonymous_args = 0
  31 0000 08B5     		push	{r3, lr}
  32              		.cfi_def_cfa_offset 8
  33              		.cfi_offset 3, -8
  34              		.cfi_offset 14, -4
  79:.\SelfTest_CPU.c ****     #if defined(__C51__) || defined(__GNUC__)
  80:.\SelfTest_CPU.c ****         return CPU_PSoC_Asm();	
ARM GAS  C:\Users\nosak\AppData\Local\Temp\ccAuB64A.s 			page 3


  35              		.loc 1 80 0
  36 0002 FFF7FEFF 		bl	CPU_PSoC_Asm
  37              	.LVL0:
  81:.\SelfTest_CPU.c ****     #elif defined(__CC_ARM)
  82:.\SelfTest_CPU.c ****   	    return CPU_PSoC_5_Asm();	
  83:.\SelfTest_CPU.c ****     #else
  84:.\SelfTest_CPU.c ****         return ERROR_STATUS;
  85:.\SelfTest_CPU.c ****     #endif   
  86:.\SelfTest_CPU.c **** }
  38              		.loc 1 86 0
  39 0006 08BD     		pop	{r3, pc}
  40              		.cfi_endproc
  41              	.LFE63:
  42              		.size	SelfTest_CPU_Registers, .-SelfTest_CPU_Registers
  43              		.section	PCAAAA,"ax",%progbits
  44              		.align	2
  45              		.thumb
  46              		.thumb_func
  47              		.type	SelfTest_PCAAAA, %function
  48              	SelfTest_PCAAAA:
  49              	.LFB65:
  87:.\SelfTest_CPU.c **** 
  88:.\SelfTest_CPU.c **** 
  89:.\SelfTest_CPU.c **** /*******************************************************************************
  90:.\SelfTest_CPU.c **** * Function Name: SelfTest_PC
  91:.\SelfTest_CPU.c **** ********************************************************************************
  92:.\SelfTest_CPU.c **** *
  93:.\SelfTest_CPU.c **** * Summary: 
  94:.\SelfTest_CPU.c **** *  This function performs the test of the PC register. Function calls SelfTest_PC5555() 
  95:.\SelfTest_CPU.c **** *  and SelfTest_PCAAAA() which are placed at 0x5555 and 0xAAAA addresses
  96:.\SelfTest_CPU.c **** *  in flash for PSoC 3. And at 0x15555 and 0x0AAAA addresses in flash for PSoC 5.
  97:.\SelfTest_CPU.c **** *  These functions must return unique values to SelfTestA, SelfTestB and 
  98:.\SelfTest_CPU.c **** *  SelfTestC variables if PC is working correctly.
  99:.\SelfTest_CPU.c **** *
 100:.\SelfTest_CPU.c **** * Parameters:
 101:.\SelfTest_CPU.c **** *  None.
 102:.\SelfTest_CPU.c **** *                           
 103:.\SelfTest_CPU.c **** * Return:
 104:.\SelfTest_CPU.c **** *  Result of test:  "0" - pass test; "1" - fail test.
 105:.\SelfTest_CPU.c **** * 
 106:.\SelfTest_CPU.c **** **********************************************************************************/
 107:.\SelfTest_CPU.c **** uint8 SelfTest_PC(void)
 108:.\SelfTest_CPU.c **** { 
 109:.\SelfTest_CPU.c ****     uint8 returned_value;
 110:.\SelfTest_CPU.c **** 
 111:.\SelfTest_CPU.c ****     /* Clear global variables for test */
 112:.\SelfTest_CPU.c ****     SelfTestA = 0x00u;
 113:.\SelfTest_CPU.c **** 	SelfTestB = 0x0000u;
 114:.\SelfTest_CPU.c **** 	SelfTestC = 0x00000000u;
 115:.\SelfTest_CPU.c **** 	
 116:.\SelfTest_CPU.c ****     returned_value = SelfTest_PC5555();
 117:.\SelfTest_CPU.c ****     
 118:.\SelfTest_CPU.c **** 	/* Check if SelfTest_PC5555() returned and wrote correct values to global variables*/
 119:.\SelfTest_CPU.c **** 	if((SelfTestA == SELF_TEST_A_1) && (SelfTestB == SELF_TEST_B_1) && (SelfTestC == SELF_TEST_C_1) 
 120:.\SelfTest_CPU.c **** 	   && (returned_value == CHECKERBOARD_PATTERN_55))
 121:.\SelfTest_CPU.c **** 	{
 122:.\SelfTest_CPU.c ****     
ARM GAS  C:\Users\nosak\AppData\Local\Temp\ccAuB64A.s 			page 4


 123:.\SelfTest_CPU.c ****         /* Clear global variables for next test */
 124:.\SelfTest_CPU.c **** 	    SelfTestA = 0x00u;
 125:.\SelfTest_CPU.c **** 	    SelfTestB = 0x0000u;
 126:.\SelfTest_CPU.c **** 	    SelfTestC = 0x00000000u;
 127:.\SelfTest_CPU.c **** 		
 128:.\SelfTest_CPU.c **** 		returned_value = SelfTest_PCAAAA();
 129:.\SelfTest_CPU.c ****         
 130:.\SelfTest_CPU.c **** 		/* Check if SelfTest_PCAAAA() returned and wrote correct values to global variables*/
 131:.\SelfTest_CPU.c **** 		if((SelfTestA == SELF_TEST_A_2) && (SelfTestB == SELF_TEST_B_2) && (SelfTestC == SELF_TEST_C_2) 
 132:.\SelfTest_CPU.c **** 		   && (returned_value == CHECKERBOARD_PATTERN_AA))
 133:.\SelfTest_CPU.c ****         {   
 134:.\SelfTest_CPU.c **** 	        returned_value = OK_STATUS;
 135:.\SelfTest_CPU.c ****         }    
 136:.\SelfTest_CPU.c **** 		else	
 137:.\SelfTest_CPU.c ****         {
 138:.\SelfTest_CPU.c **** 		    returned_value = ERROR_STATUS;	
 139:.\SelfTest_CPU.c ****         }    
 140:.\SelfTest_CPU.c **** 	}
 141:.\SelfTest_CPU.c **** 	else
 142:.\SelfTest_CPU.c ****     {
 143:.\SelfTest_CPU.c **** 	    returned_value = ERROR_STATUS;
 144:.\SelfTest_CPU.c **** 	}
 145:.\SelfTest_CPU.c **** 	return returned_value;	
 146:.\SelfTest_CPU.c **** }
 147:.\SelfTest_CPU.c **** 
 148:.\SelfTest_CPU.c **** 
 149:.\SelfTest_CPU.c **** /*******************************************************************************
 150:.\SelfTest_CPU.c **** * Function Name: SelfTest_PCAAAA
 151:.\SelfTest_CPU.c **** ********************************************************************************
 152:.\SelfTest_CPU.c **** *
 153:.\SelfTest_CPU.c **** * Summary: 
 154:.\SelfTest_CPU.c **** *  This function performs a test for the PC register. Function is placed at 0xAAAA address
 155:.\SelfTest_CPU.c **** *  in flash for PSoC 3. And at 0x0AAAA address in flash for PSoC 5. This function
 156:.\SelfTest_CPU.c **** *  must return value 0xAA and write unique value to SelfTestA, SelfTestB and 
 157:.\SelfTest_CPU.c **** *  SelfTestC variables if PC is working correctly. Also this function executes a cycle 
 158:.\SelfTest_CPU.c **** *  loop for additional checking if the PC is working.
 159:.\SelfTest_CPU.c **** *
 160:.\SelfTest_CPU.c **** * Parameters:
 161:.\SelfTest_CPU.c **** *  None.
 162:.\SelfTest_CPU.c **** *                           
 163:.\SelfTest_CPU.c **** * Return:
 164:.\SelfTest_CPU.c **** *  SelfTestA:  write unique value to variable for this function SELF_TEST_A_2.
 165:.\SelfTest_CPU.c **** *  SelfTestB:  write unique value to variable for this function SELF_TEST_B_2.
 166:.\SelfTest_CPU.c **** *  SelfTestC:  write to unique value to variable for this function SELF_TEST_C_2.
 167:.\SelfTest_CPU.c **** *  Return unique value for this function CHECKERBOARD_PATTERN_AA.
 168:.\SelfTest_CPU.c **** *
 169:.\SelfTest_CPU.c **** **********************************************************************************/
 170:.\SelfTest_CPU.c **** static uint8 SelfTest_PCAAAA(void)
 171:.\SelfTest_CPU.c **** {
  50              		.loc 1 171 0
  51              		.cfi_startproc
  52              		@ args = 0, pretend = 0, frame = 0
  53              		@ frame_needed = 0, uses_anonymous_args = 0
  54              		@ link register save eliminated.
 172:.\SelfTest_CPU.c **** 
 173:.\SelfTest_CPU.c ****     SelfTestA = SELF_TEST_A_2;
  55              		.loc 1 173 0
ARM GAS  C:\Users\nosak\AppData\Local\Temp\ccAuB64A.s 			page 5


  56 0000 044B     		ldr	r3, .L4
  57 0002 F522     		movs	r2, #245
  58 0004 1A70     		strb	r2, [r3]
 174:.\SelfTest_CPU.c ****       
 175:.\SelfTest_CPU.c **** 	SelfTestB = SELF_TEST_B_2;
  59              		.loc 1 175 0
  60 0006 45F6F142 		movw	r2, #23793
  61 000a 5A80     		strh	r2, [r3, #2]	@ movhi
 176:.\SelfTest_CPU.c ****     
 177:.\SelfTest_CPU.c **** 	SelfTestC = SELF_TEST_C_2;
  62              		.loc 1 177 0
  63 000c 024A     		ldr	r2, .L4+4
  64 000e 5A60     		str	r2, [r3, #4]
 178:.\SelfTest_CPU.c **** 	
 179:.\SelfTest_CPU.c ****     #if ERROR_IN_PROGRAM_COUNTER    
 180:.\SelfTest_CPU.c ****     	return (CHECKERBOARD_PATTERN_AA + 1u);
 181:.\SelfTest_CPU.c ****     #else    
 182:.\SelfTest_CPU.c ****         return CHECKERBOARD_PATTERN_AA;
 183:.\SelfTest_CPU.c ****     #endif    
 184:.\SelfTest_CPU.c **** }
  65              		.loc 1 184 0
  66 0010 AA20     		movs	r0, #170
  67 0012 7047     		bx	lr
  68              	.L5:
  69              		.align	2
  70              	.L4:
  71 0014 00000000 		.word	.LANCHOR0
  72 0018 B5C4F672 		.word	1928774837
  73              		.cfi_endproc
  74              	.LFE65:
  75              		.size	SelfTest_PCAAAA, .-SelfTest_PCAAAA
  76              		.section	PC5555,"ax",%progbits
  77              		.align	2
  78              		.thumb
  79              		.thumb_func
  80              		.type	SelfTest_PC5555, %function
  81              	SelfTest_PC5555:
  82              	.LFB66:
 185:.\SelfTest_CPU.c **** 
 186:.\SelfTest_CPU.c **** 
 187:.\SelfTest_CPU.c **** /*******************************************************************************
 188:.\SelfTest_CPU.c **** * Function Name: SelfTest_PC5555
 189:.\SelfTest_CPU.c **** ********************************************************************************
 190:.\SelfTest_CPU.c **** *
 191:.\SelfTest_CPU.c **** * Summary: 
 192:.\SelfTest_CPU.c **** *  This function performs a test for the PC register. Function is placed at 0x5555 address
 193:.\SelfTest_CPU.c **** *  in flash for PSoC 3. And at 0x15555 address in flash for PSoC 5. This function
 194:.\SelfTest_CPU.c **** *  must return value 0x55 and write unique value to SelfTestA, SelfTestB and 
 195:.\SelfTest_CPU.c **** *  SelfTestC variables if PC is working correctly. Also this function executes a cycle 
 196:.\SelfTest_CPU.c **** *  loop for additional checking if the PC is working.
 197:.\SelfTest_CPU.c **** *
 198:.\SelfTest_CPU.c **** * Parameters:
 199:.\SelfTest_CPU.c **** *  None.
 200:.\SelfTest_CPU.c **** *                           
 201:.\SelfTest_CPU.c **** * Return:
 202:.\SelfTest_CPU.c **** *  SelfTestA:  write unique value to variable for this function SELF_TEST_A_1.
 203:.\SelfTest_CPU.c **** *  SelfTestB:  write unique value to variable for this function SELF_TEST_B_1.
ARM GAS  C:\Users\nosak\AppData\Local\Temp\ccAuB64A.s 			page 6


 204:.\SelfTest_CPU.c **** *  SelfTestC:  write unique value to variable for this function SELF_TEST_C_1.
 205:.\SelfTest_CPU.c **** *  Return unique value for this function CHECKERBOARD_PATTERN_55.
 206:.\SelfTest_CPU.c **** *
 207:.\SelfTest_CPU.c **** **********************************************************************************/
 208:.\SelfTest_CPU.c **** static uint8 SelfTest_PC5555(void)
 209:.\SelfTest_CPU.c **** {
  83              		.loc 1 209 0
  84              		.cfi_startproc
  85              		@ args = 0, pretend = 0, frame = 0
  86              		@ frame_needed = 0, uses_anonymous_args = 0
  87              		@ link register save eliminated.
 210:.\SelfTest_CPU.c **** 	
 211:.\SelfTest_CPU.c ****     SelfTestA = SELF_TEST_A_1;
  88              		.loc 1 211 0
  89 0000 044B     		ldr	r3, .L7
  90 0002 5A22     		movs	r2, #90
  91 0004 1A70     		strb	r2, [r3]
 212:.\SelfTest_CPU.c ****     	
 213:.\SelfTest_CPU.c **** 	SelfTestB = SELF_TEST_B_1;
  92              		.loc 1 213 0
  93 0006 4BF65172 		movw	r2, #48977
  94 000a 5A80     		strh	r2, [r3, #2]	@ movhi
 214:.\SelfTest_CPU.c ****     
 215:.\SelfTest_CPU.c **** 	SelfTestC = SELF_TEST_C_1;
  95              		.loc 1 215 0
  96 000c 024A     		ldr	r2, .L7+4
  97 000e 5A60     		str	r2, [r3, #4]
 216:.\SelfTest_CPU.c **** 
 217:.\SelfTest_CPU.c ****     #if ERROR_IN_PROGRAM_COUNTER    
 218:.\SelfTest_CPU.c ****     	return (CHECKERBOARD_PATTERN_55 + 1u);
 219:.\SelfTest_CPU.c ****     #else    
 220:.\SelfTest_CPU.c ****         return CHECKERBOARD_PATTERN_55;
 221:.\SelfTest_CPU.c ****     #endif      
 222:.\SelfTest_CPU.c **** 	
 223:.\SelfTest_CPU.c **** }
  98              		.loc 1 223 0
  99 0010 5520     		movs	r0, #85
 100 0012 7047     		bx	lr
 101              	.L8:
 102              		.align	2
 103              	.L7:
 104 0014 00000000 		.word	.LANCHOR0
 105 0018 F8D382CA 		.word	-897395720
 106              		.cfi_endproc
 107              	.LFE66:
 108              		.size	SelfTest_PC5555, .-SelfTest_PC5555
 109              		.section	.text.SelfTest_PC,"ax",%progbits
 110              		.align	2
 111              		.global	SelfTest_PC
 112              		.thumb
 113              		.thumb_func
 114              		.type	SelfTest_PC, %function
 115              	SelfTest_PC:
 116              	.LFB64:
 108:.\SelfTest_CPU.c ****     uint8 returned_value;
 117              		.loc 1 108 0
 118              		.cfi_startproc
ARM GAS  C:\Users\nosak\AppData\Local\Temp\ccAuB64A.s 			page 7


 119              		@ args = 0, pretend = 0, frame = 0
 120              		@ frame_needed = 0, uses_anonymous_args = 0
 121 0000 10B5     		push	{r4, lr}
 122              		.cfi_def_cfa_offset 8
 123              		.cfi_offset 4, -8
 124              		.cfi_offset 14, -4
 112:.\SelfTest_CPU.c **** 	SelfTestB = 0x0000u;
 125              		.loc 1 112 0
 126 0002 1F4C     		ldr	r4, .L20
 127 0004 0023     		movs	r3, #0
 128 0006 2370     		strb	r3, [r4]
 113:.\SelfTest_CPU.c **** 	SelfTestC = 0x00000000u;
 129              		.loc 1 113 0
 130 0008 6380     		strh	r3, [r4, #2]	@ movhi
 114:.\SelfTest_CPU.c **** 	
 131              		.loc 1 114 0
 132 000a 6360     		str	r3, [r4, #4]
 116:.\SelfTest_CPU.c ****     
 133              		.loc 1 116 0
 134 000c FFF7FEFF 		bl	SelfTest_PC5555
 135              	.LVL1:
 119:.\SelfTest_CPU.c **** 	   && (returned_value == CHECKERBOARD_PATTERN_55))
 136              		.loc 1 119 0
 137 0010 2378     		ldrb	r3, [r4]	@ zero_extendqisi2
 138 0012 DBB2     		uxtb	r3, r3
 139 0014 5A2B     		cmp	r3, #90
 140 0016 23D1     		bne	.L11
 119:.\SelfTest_CPU.c **** 	   && (returned_value == CHECKERBOARD_PATTERN_55))
 141              		.loc 1 119 0 is_stmt 0 discriminator 1
 142 0018 6388     		ldrh	r3, [r4, #2]
 143 001a 9BB2     		uxth	r3, r3
 144 001c 4BF65172 		movw	r2, #48977
 145 0020 9342     		cmp	r3, r2
 146 0022 1FD1     		bne	.L12
 119:.\SelfTest_CPU.c **** 	   && (returned_value == CHECKERBOARD_PATTERN_55))
 147              		.loc 1 119 0 discriminator 2
 148 0024 6268     		ldr	r2, [r4, #4]
 149 0026 174B     		ldr	r3, .L20+4
 150 0028 9A42     		cmp	r2, r3
 151 002a 1DD1     		bne	.L13
 120:.\SelfTest_CPU.c **** 	{
 152              		.loc 1 120 0 is_stmt 1
 153 002c 5528     		cmp	r0, #85
 154 002e 1DD1     		bne	.L14
 124:.\SelfTest_CPU.c **** 	    SelfTestB = 0x0000u;
 155              		.loc 1 124 0
 156 0030 0023     		movs	r3, #0
 157 0032 2370     		strb	r3, [r4]
 125:.\SelfTest_CPU.c **** 	    SelfTestC = 0x00000000u;
 158              		.loc 1 125 0
 159 0034 6380     		strh	r3, [r4, #2]	@ movhi
 126:.\SelfTest_CPU.c **** 		
 160              		.loc 1 126 0
 161 0036 6360     		str	r3, [r4, #4]
 128:.\SelfTest_CPU.c ****         
 162              		.loc 1 128 0
 163 0038 FFF7FEFF 		bl	SelfTest_PCAAAA
ARM GAS  C:\Users\nosak\AppData\Local\Temp\ccAuB64A.s 			page 8


 164              	.LVL2:
 131:.\SelfTest_CPU.c **** 		   && (returned_value == CHECKERBOARD_PATTERN_AA))
 165              		.loc 1 131 0
 166 003c 2378     		ldrb	r3, [r4]	@ zero_extendqisi2
 167 003e DBB2     		uxtb	r3, r3
 168 0040 F52B     		cmp	r3, #245
 169 0042 15D1     		bne	.L15
 131:.\SelfTest_CPU.c **** 		   && (returned_value == CHECKERBOARD_PATTERN_AA))
 170              		.loc 1 131 0 is_stmt 0 discriminator 1
 171 0044 6388     		ldrh	r3, [r4, #2]
 172 0046 9BB2     		uxth	r3, r3
 173 0048 45F6F142 		movw	r2, #23793
 174 004c 9342     		cmp	r3, r2
 175 004e 11D1     		bne	.L16
 131:.\SelfTest_CPU.c **** 		   && (returned_value == CHECKERBOARD_PATTERN_AA))
 176              		.loc 1 131 0 discriminator 2
 177 0050 6268     		ldr	r2, [r4, #4]
 178 0052 0D4B     		ldr	r3, .L20+8
 179 0054 9A42     		cmp	r2, r3
 180 0056 0FD1     		bne	.L17
 132:.\SelfTest_CPU.c ****         {   
 181              		.loc 1 132 0 is_stmt 1
 182 0058 AA28     		cmp	r0, #170
 183 005a 0FD0     		beq	.L18
 138:.\SelfTest_CPU.c ****         }    
 184              		.loc 1 138 0
 185 005c 0120     		movs	r0, #1
 186              	.LVL3:
 187 005e 10BD     		pop	{r4, pc}
 188              	.LVL4:
 189              	.L11:
 143:.\SelfTest_CPU.c **** 	}
 190              		.loc 1 143 0
 191 0060 0120     		movs	r0, #1
 192              	.LVL5:
 193 0062 10BD     		pop	{r4, pc}
 194              	.LVL6:
 195              	.L12:
 196 0064 0120     		movs	r0, #1
 197              	.LVL7:
 198 0066 10BD     		pop	{r4, pc}
 199              	.LVL8:
 200              	.L13:
 201 0068 0120     		movs	r0, #1
 202              	.LVL9:
 203 006a 10BD     		pop	{r4, pc}
 204              	.LVL10:
 205              	.L14:
 206 006c 0120     		movs	r0, #1
 207              	.LVL11:
 208 006e 10BD     		pop	{r4, pc}
 209              	.LVL12:
 210              	.L15:
 138:.\SelfTest_CPU.c ****         }    
 211              		.loc 1 138 0
 212 0070 0120     		movs	r0, #1
 213              	.LVL13:
ARM GAS  C:\Users\nosak\AppData\Local\Temp\ccAuB64A.s 			page 9


 214 0072 10BD     		pop	{r4, pc}
 215              	.LVL14:
 216              	.L16:
 217 0074 0120     		movs	r0, #1
 218              	.LVL15:
 219 0076 10BD     		pop	{r4, pc}
 220              	.LVL16:
 221              	.L17:
 222 0078 0120     		movs	r0, #1
 223              	.LVL17:
 224 007a 10BD     		pop	{r4, pc}
 225              	.LVL18:
 226              	.L18:
 134:.\SelfTest_CPU.c ****         }    
 227              		.loc 1 134 0
 228 007c 0020     		movs	r0, #0
 229              	.LVL19:
 146:.\SelfTest_CPU.c **** 
 230              		.loc 1 146 0
 231 007e 10BD     		pop	{r4, pc}
 232              	.L21:
 233              		.align	2
 234              	.L20:
 235 0080 00000000 		.word	.LANCHOR0
 236 0084 F8D382CA 		.word	-897395720
 237 0088 B5C4F672 		.word	1928774837
 238              		.cfi_endproc
 239              	.LFE64:
 240              		.size	SelfTest_PC, .-SelfTest_PC
 241              		.bss
 242              		.align	2
 243              		.set	.LANCHOR0,. + 0
 244              		.type	SelfTestA, %object
 245              		.size	SelfTestA, 1
 246              	SelfTestA:
 247 0000 00       		.space	1
 248 0001 00       		.space	1
 249              		.type	SelfTestB, %object
 250              		.size	SelfTestB, 2
 251              	SelfTestB:
 252 0002 0000     		.space	2
 253              		.type	SelfTestC, %object
 254              		.size	SelfTestC, 4
 255              	SelfTestC:
 256 0004 00000000 		.space	4
 257              		.text
 258              	.Letext0:
 259              		.file 2 "c:\\program files (x86)\\cypress\\psoc creator\\3.3\\psoc creator\\import\\gnu\\arm\\4.9.
 260              		.file 3 "c:\\program files (x86)\\cypress\\psoc creator\\3.3\\psoc creator\\import\\gnu\\arm\\4.9.
 261              		.file 4 "Generated_Source\\PSoC5/cytypes.h"
 262              		.file 5 "Generated_Source\\PSoC5/core_cm3.h"
 263              		.file 6 ".\\SelfTest_CPU_asm.h"