ARM GAS  C:\Users\nosak\AppData\Local\Temp\ccBt8IvS.s 			page 1


   1              		.syntax unified
   2              		.cpu cortex-m3
   3              		.fpu softvfp
   4              		.eabi_attribute 20, 1
   5              		.eabi_attribute 21, 1
   6              		.eabi_attribute 23, 3
   7              		.eabi_attribute 24, 1
   8              		.eabi_attribute 25, 1
   9              		.eabi_attribute 26, 1
  10              		.eabi_attribute 30, 1
  11              		.eabi_attribute 34, 1
  12              		.eabi_attribute 18, 4
  13              		.thumb
  14              		.file	"sk_debug.c"
  15              		.text
  16              	.Ltext0:
  17              		.cfi_sections	.debug_frame
  18              		.section	.text.Check_0001ms,"ax",%progbits
  19              		.align	2
  20              		.global	Check_0001ms
  21              		.thumb
  22              		.thumb_func
  23              		.type	Check_0001ms, %function
  24              	Check_0001ms:
  25              	.LFB63:
  26              		.file 1 ".\\sk_debug.c"
   1:.\sk_debug.c  **** /* ========================================
   2:.\sk_debug.c  ****  *
   3:.\sk_debug.c  ****  * Copyright YOUR COMPANY, THE YEAR
   4:.\sk_debug.c  ****  * All Rights Reserved
   5:.\sk_debug.c  ****  * UNPUBLISHED, LICENSED SOFTWARE.
   6:.\sk_debug.c  ****  *
   7:.\sk_debug.c  ****  * CONFIDENTIAL AND PROPRIETARY INFORMATION
   8:.\sk_debug.c  ****  * WHICH IS THE PROPERTY OF your company.
   9:.\sk_debug.c  ****  *
  10:.\sk_debug.c  ****  * ========================================*/
  11:.\sk_debug.c  **** 
  12:.\sk_debug.c  **** 
  13:.\sk_debug.c  **** #include "Motor_Contl4_3.h"
  14:.\sk_debug.c  **** #include "Motor_Contl4_3_private.h"
  15:.\sk_debug.c  **** #include "sk_source.h"
  16:.\sk_debug.c  **** #include <RTC_1.h>
  17:.\sk_debug.c  **** 
  18:.\sk_debug.c  **** extern RT_MODEL_Motor_Contl4_3 Motor_Contl4_3_M_;
  19:.\sk_debug.c  **** //extern void RTC_1_Start(void) ;
  20:.\sk_debug.c  **** 
  21:.\sk_debug.c  **** 
  22:.\sk_debug.c  **** // 2 bit0-1
  23:.\sk_debug.c  **** 
  24:.\sk_debug.c  ****             
  25:.\sk_debug.c  ****             
  26:.\sk_debug.c  **** const COM_PARA compara_dital[] = {
  27:.\sk_debug.c  ****     { 0 , " :  "},
  28:.\sk_debug.c  ****     { 1 , " :  "},
  29:.\sk_debug.c  ****     { 2 , " :  "},
  30:.\sk_debug.c  ****     { 3 , " :  "},
  31:.\sk_debug.c  ****     { 4 , " :  "},
ARM GAS  C:\Users\nosak\AppData\Local\Temp\ccBt8IvS.s 			page 2


  32:.\sk_debug.c  ****     { 4 , " :  b0-1:logmode"},
  33:.\sk_debug.c  ****     { 4 , " :  b2:direct_cnt"},
  34:.\sk_debug.c  ****     { 4 , " :  b3:em_stop_en"},
  35:.\sk_debug.c  ****     { 4 , " :  b4:use_smooth_chg"},
  36:.\sk_debug.c  ****     { 4 , " :  b5:measure_sensor"},
  37:.\sk_debug.c  ****     { 4 , " :  b6:drive_wheels"},
  38:.\sk_debug.c  ****     { 5 , " :  (U)speedratio"},
  39:.\sk_debug.c  ****     { 6 , " :  (L)"},
  40:.\sk_debug.c  ****     { 7 , " :  (U)max_spd_chg"},
  41:.\sk_debug.c  ****     { 8 , " :  (L)"},
  42:.\sk_debug.c  ****     { 9 , " :  Assign MOT"},
  43:.\sk_debug.c  ****     { 9 , " :  motorassign[4]"},
  44:.\sk_debug.c  ****     { 10 , " :  Assign ENC"},
  45:.\sk_debug.c  ****     { 10 , " :  encassign[4]"},
  46:.\sk_debug.c  ****     { 11 , " :  Sig Direction"},
  47:.\sk_debug.c  ****     { 11 , " :  encd0,encd1,encd2,encd3"},
  48:.\sk_debug.c  ****     { 11 , " :  cw0,cw1,cw2,cw3"},
  49:.\sk_debug.c  ****     { 12 , " :  enc_malti"},
  50:.\sk_debug.c  ****     { 13 , " :  (U)max_rpm"},
  51:.\sk_debug.c  ****     { 14 , " :  (L)"},
  52:.\sk_debug.c  ****     { 15 , " :  (U)gear_ratio_i16"},
  53:.\sk_debug.c  ****     { 16 , " :  (L)"},
  54:.\sk_debug.c  ****     { 17 , " :  (U)samp_rate"},
  55:.\sk_debug.c  ****     { 18 , " :  (L)"},
  56:.\sk_debug.c  ****     { 19 , " :  (U)enc_count"},
  57:.\sk_debug.c  ****     { 20 , " :  (L)"},
  58:.\sk_debug.c  ****     { 21 , " :  (U)dim_wheel_i16"},
  59:.\sk_debug.c  ****     { 22 , " :  (L)"},
  60:.\sk_debug.c  ****     { 23 , " :  (U)dist_wheel_i16"},
  61:.\sk_debug.c  ****     { 24 , " :  (L)"},
  62:.\sk_debug.c  ****     { 25 , " :  (U)toruque_const_i16"},
  63:.\sk_debug.c  ****     { 26 , " :  (L)"},
  64:.\sk_debug.c  ****     { 27 , " :  (U)speed_const_i16"},
  65:.\sk_debug.c  ****     { 28 , " :  (L)"},
  66:.\sk_debug.c  ****     { 29 , " :  (U)spd_torq_grad_i16"},
  67:.\sk_debug.c  ****     { 30 , " :  (L)"},
  68:.\sk_debug.c  ****     { 31 , " :  (U)acc_limit_f_i16"},
  69:.\sk_debug.c  ****     { 32 , " :  (L)"},
  70:.\sk_debug.c  ****     { 33 , " :  (U)acc_limit_r_i16"},
  71:.\sk_debug.c  ****     { 34 , " :  (L)"},
  72:.\sk_debug.c  ****     { 35 , " :  (U)acc_limit_s_i16"},
  73:.\sk_debug.c  ****     { 36 , " :  (L)"},
  74:.\sk_debug.c  ****     { 37 , " :  (U)safty_const_i16"},
  75:.\sk_debug.c  ****     { 38 , " :  (L)"},
  76:.\sk_debug.c  ****     { 39 , " :  (U)kvp_i16"},
  77:.\sk_debug.c  ****     { 40 , " :  (L)"},
  78:.\sk_debug.c  ****     { 41 , " :  (U)kcp_i16"},
  79:.\sk_debug.c  ****     { 42 , " :  (L)"},
  80:.\sk_debug.c  ****     { 43 , " :  (U)kvi_i16"},
  81:.\sk_debug.c  ****     { 44 , " :  (L)"},
  82:.\sk_debug.c  ****     { 45 , " :  (U)kci_i16"},
  83:.\sk_debug.c  ****     { 46 , " :  (L)"},
  84:.\sk_debug.c  ****     { 47 , " :  (U)kdl_i16"},
  85:.\sk_debug.c  ****     { 48 , " :  (L)"},
  86:.\sk_debug.c  ****     { 49 , " :  (U)kdr_i16"},
  87:.\sk_debug.c  ****     { 50 , " :  (L)"},
  88:.\sk_debug.c  ****     { 51 , " :  (U)satv_i16"},
ARM GAS  C:\Users\nosak\AppData\Local\Temp\ccBt8IvS.s 			page 3


  89:.\sk_debug.c  ****     { 52 , " :  (L)"},
  90:.\sk_debug.c  ****     { 53 , " :  (U)satc_i16 ;"},
  91:.\sk_debug.c  ****     { 54 , " :  (L)"},
  92:.\sk_debug.c  ****     { 55 , " :  motor_par..rdwbuf[2]"},
  93:.\sk_debug.c  ****     { 56 , " :  motor_par..rdwbuf[2][3]"},
  94:.\sk_debug.c  ****     { 57 , " :  motor_par..rdwbuf[3]"},
  95:.\sk_debug.c  ****     { 58 , " :  motor_par..rdwbuf[4]"},
  96:.\sk_debug.c  ****     { 59 , " :  motor_par..rdwbuf[4][5]"},
  97:.\sk_debug.c  ****     { 60 , " :  motor_par..rdwbuf[5[[6]"},
  98:.\sk_debug.c  ****     { 61 , " :  motor_par..rdwbuf[6]"},
  99:.\sk_debug.c  ****     { 62 , " :  motor_par..rdwbuf[6]"},
 100:.\sk_debug.c  ****     { 63 , " :  "}
 101:.\sk_debug.c  **** 
 102:.\sk_debug.c  **** };
 103:.\sk_debug.c  **** 
 104:.\sk_debug.c  **** 
 105:.\sk_debug.c  **** 
 106:.\sk_debug.c  **** 
 107:.\sk_debug.c  **** const MENUE Deb_menue00[] = {
 108:.\sk_debug.c  ****      {""}, 
 109:.\sk_debug.c  ****      {"*** TOP MENUE ***"},
 110:.\sk_debug.c  ****      {"1:DISPLAY"},       
 111:.\sk_debug.c  ****      {"2:LOG DEBUG"},            
 112:.\sk_debug.c  ****      {"3:OUTPUT DEBUG"},           
 113:.\sk_debug.c  ****      {"4:"},            
 114:.\sk_debug.c  ****      {"5:"},    
 115:.\sk_debug.c  ****      {""}
 116:.\sk_debug.c  **** };
 117:.\sk_debug.c  **** const MENUE Deb_menue01[] = {
 118:.\sk_debug.c  ****     {"*** DISPLAY MENUE ***"},
 119:.\sk_debug.c  ****     {"1:PRAM DISPLAY1"},       
 120:.\sk_debug.c  ****     {"2:PRAM DISPLAY2"},
 121:.\sk_debug.c  ****     {"3:PRAM DISPLAY3"},
 122:.\sk_debug.c  ****     {"4:COMMAND_PARAM"},            
 123:.\sk_debug.c  ****     {"5:MOTER CONTL COMMAND "},           
 124:.\sk_debug.c  ****     {"6:RTC"},            
 125:.\sk_debug.c  ****     {"7:OUTPUT PARAM"},    
 126:.\sk_debug.c  ****     {"8:Moter Ctrl Param1"},
 127:.\sk_debug.c  ****     {"9:Moter Ctrl Param2"},          
 128:.\sk_debug.c  ****     {"r:return"}
 129:.\sk_debug.c  **** };
 130:.\sk_debug.c  **** const MENUE Deb_menue02[] = {
 131:.\sk_debug.c  ****      {"*** LOG DEBUG MENUE ***"},
 132:.\sk_debug.c  ****      {"1:LOG DISPLAY"},   
 133:.\sk_debug.c  ****      {"2:LOG CLEAR"},   
 134:.\sk_debug.c  ****      {""}, 
 135:.\sk_debug.c  ****      {"a:SUBCYCL ON/OFF"},       
 136:.\sk_debug.c  ****      {"b:MAX_SUB_COUNT ON/OFF"},            
 137:.\sk_debug.c  ****      {"c:INTRUPT512 ON/OFF"},  
 138:.\sk_debug.c  ****      {"d:SUBCYCL_8P ON/OFF"},   
 139:.\sk_debug.c  ****      {"e:FRAME_CNT ON/OFF"},   
 140:.\sk_debug.c  ****      {"f:CYCLE_START ON/OFF"},   
 141:.\sk_debug.c  ****      {"g:COM_INT ON/OFF"},
 142:.\sk_debug.c  ****      {"h:KEISOKU_TM ON/OFF"},   
 143:.\sk_debug.c  ****      {"i:MAIN_LOOP ON/OFF"},   
 144:.\sk_debug.c  ****      {"j:BMP_SENS ON/OFF"},   
 145:.\sk_debug.c  ****      {"k:ADC_SENS ON/OFF"},   
ARM GAS  C:\Users\nosak\AppData\Local\Temp\ccBt8IvS.s 			page 4


 146:.\sk_debug.c  ****      {"l:MAIN_LOOP_CHK ON/OFF"},   
 147:.\sk_debug.c  ****      {"m:CYCLE_CNT ON/OFF"},   
 148:.\sk_debug.c  ****      {"n:COM_RECIVE  ON/OFF"},   
 149:.\sk_debug.c  ****      {"o:SPI READ LOG ON/OFF"},
 150:.\sk_debug.c  ****      {"p:SPI SET LOG ON/OFF"},
 151:.\sk_debug.c  ****      {"q:SPI WR LOG ON/OFF"},   
 152:.\sk_debug.c  ****      {"r:return"},
 153:.\sk_debug.c  ****      {"s:MT PWM LOG ON/OFF"},   
 154:.\sk_debug.c  ****      {"t:MT PWM_DATA LOG ON/OFF"},
 155:.\sk_debug.c  ****      {"u:MT ENC_DATA LOG ON/OFF"},
 156:.\sk_debug.c  ****      {"v:MT CALC LOG ON/OFF"},
 157:.\sk_debug.c  ****      {"w:MT START"}, 
 158:.\sk_debug.c  ****      {"x:PMW CALC DeBUG"},
 159:.\sk_debug.c  ****      {"y:MT CTRL DeBUG"},
 160:.\sk_debug.c  ****     
 161:.\sk_debug.c  **** 
 162:.\sk_debug.c  ****      {""}
 163:.\sk_debug.c  ****      
 164:.\sk_debug.c  **** };
 165:.\sk_debug.c  **** const MENUE Deb_menue03[] = {
 166:.\sk_debug.c  ****      {"*** MOTER SPEED ***"},
 167:.\sk_debug.c  ****      {"1:162 (5km/h)"},   
 168:.\sk_debug.c  ****      {"2:250 (5km/h)"}, 
 169:.\sk_debug.c  ****      {"3:200 (5km/h)"}, 
 170:.\sk_debug.c  ****      {"4:100 (3.3km/h)"},
 171:.\sk_debug.c  ****      {"5: 50 (1.7km/h)"},
 172:.\sk_debug.c  ****      {"r:return"},
 173:.\sk_debug.c  ****     
 174:.\sk_debug.c  **** 
 175:.\sk_debug.c  ****      {""}
 176:.\sk_debug.c  ****      
 177:.\sk_debug.c  **** };
 178:.\sk_debug.c  **** 
 179:.\sk_debug.c  **** const MENUE Deb_menue04[] = {
 180:.\sk_debug.c  ****      {"*** OUTPUT PARAM ***"},
 181:.\sk_debug.c  ****      {"OFFSET = "},   
 182:.\sk_debug.c  **** 
 183:.\sk_debug.c  ****      {""}
 184:.\sk_debug.c  ****      
 185:.\sk_debug.c  **** };
 186:.\sk_debug.c  **** const MENUE Deb_menue05[] = {
 187:.\sk_debug.c  ****     {"*** OUTPUT PARAM ***"},
 188:.\sk_debug.c  ****     {"w:ON/OFF"},
 189:.\sk_debug.c  **** 
 190:.\sk_debug.c  ****      {""}
 191:.\sk_debug.c  ****      
 192:.\sk_debug.c  **** };
 193:.\sk_debug.c  **** 
 194:.\sk_debug.c  **** 
 195:.\sk_debug.c  **** typedef struct
 196:.\sk_debug.c  **** {
 197:.\sk_debug.c  ****     MENUE *pt;
 198:.\sk_debug.c  ****     uint8 clumn;
 199:.\sk_debug.c  **** } MENUE_NUM_PAGE;
 200:.\sk_debug.c  **** 
 201:.\sk_debug.c  **** const MENUE_NUM_PAGE MenueList[]={
 202:.\sk_debug.c  ****     Deb_menue00, (uint8)(sizeof(Deb_menue00 )/sizeof(MENUE)),
ARM GAS  C:\Users\nosak\AppData\Local\Temp\ccBt8IvS.s 			page 5


 203:.\sk_debug.c  ****     Deb_menue01, (uint8)(sizeof(Deb_menue01 )/sizeof(MENUE)),
 204:.\sk_debug.c  ****     Deb_menue02, (uint8)(sizeof(Deb_menue02 )/sizeof(MENUE)),
 205:.\sk_debug.c  ****     Deb_menue03, (uint8)(sizeof(Deb_menue03 )/sizeof(MENUE)),
 206:.\sk_debug.c  ****     Deb_menue04, (uint8)(sizeof(Deb_menue04 )/sizeof(MENUE)),
 207:.\sk_debug.c  ****     Deb_menue05, (uint8)(sizeof(Deb_menue05 )/sizeof(MENUE))
 208:.\sk_debug.c  **** };
 209:.\sk_debug.c  **** 
 210:.\sk_debug.c  **** 
 211:.\sk_debug.c  **** 
 212:.\sk_debug.c  **** 
 213:.\sk_debug.c  **** 
 214:.\sk_debug.c  **** 
 215:.\sk_debug.c  **** 
 216:.\sk_debug.c  **** uint8 MenueNum=0;
 217:.\sk_debug.c  **** const uint8 MAX_MENBER=(uint8)sizeof(MenueList )/sizeof(MENUE_NUM_PAGE);
 218:.\sk_debug.c  **** 
 219:.\sk_debug.c  **** #define LOG_SIZE 1000
 220:.\sk_debug.c  **** typedef struct{
 221:.\sk_debug.c  ****     uint32  buf[LOG_SIZE];
 222:.\sk_debug.c  ****     uint16  Wpt;
 223:.\sk_debug.c  ****     uint16  Rpt;
 224:.\sk_debug.c  **** } TIMER_INT_LOG;
 225:.\sk_debug.c  **** 
 226:.\sk_debug.c  **** TIMER_INT_LOG timerlog;
 227:.\sk_debug.c  **** 
 228:.\sk_debug.c  **** typedef enum {
 229:.\sk_debug.c  ****     ON,
 230:.\sk_debug.c  ****     OFF,
 231:.\sk_debug.c  **** } FLAG;
 232:.\sk_debug.c  **** FLAG Timer_log_sem;
 233:.\sk_debug.c  **** 
 234:.\sk_debug.c  **** void Get_sem_timer_log(void);
 235:.\sk_debug.c  **** void Releace_sem_timer_log(void);
 236:.\sk_debug.c  **** 
 237:.\sk_debug.c  **** 
 238:.\sk_debug.c  **** #define LOG_BUF_MAX  1000
 239:.\sk_debug.c  **** #define LOG_BUF_CHAR  30
 240:.\sk_debug.c  **** 
 241:.\sk_debug.c  **** typedef struct{
 242:.\sk_debug.c  ****     uint8 Sec;
 243:.\sk_debug.c  ****     uint8 Min;
 244:.\sk_debug.c  ****     uint8 Hour;
 245:.\sk_debug.c  ****     uint8 DayOfMonth;
 246:.\sk_debug.c  ****     uint8 Month;
 247:.\sk_debug.c  ****     uint16 Year;
 248:.\sk_debug.c  ****     uint16 time;
 249:.\sk_debug.c  ****     char buf[LOG_BUF_CHAR];
 250:.\sk_debug.c  **** } LOG_RECORD;
 251:.\sk_debug.c  **** 
 252:.\sk_debug.c  **** 
 253:.\sk_debug.c  **** 
 254:.\sk_debug.c  **** typedef struct{
 255:.\sk_debug.c  ****     uint16 Wpt;
 256:.\sk_debug.c  ****     uint16 Rpt;
 257:.\sk_debug.c  ****     LOG_RECORD rec[LOG_BUF_MAX];
 258:.\sk_debug.c  **** } LOG_MENBER;
 259:.\sk_debug.c  **** 
ARM GAS  C:\Users\nosak\AppData\Local\Temp\ccBt8IvS.s 			page 6


 260:.\sk_debug.c  **** LOG_MENBER Deblog;
 261:.\sk_debug.c  **** 
 262:.\sk_debug.c  **** uint16 sk_sub_cycl_int_cnt = 0;
 263:.\sk_debug.c  **** uint16 sk_sub_cycl_int_cnt_av = 0;
 264:.\sk_debug.c  **** 
 265:.\sk_debug.c  **** LOG_FLAG sk_log_flg = 0;
 266:.\sk_debug.c  **** LOG_FLAG2 sk_log_flg2=SK_LOG2_SPI_WR ;
 267:.\sk_debug.c  **** LOG_FLAG3 sk_log_flg3 =0;
 268:.\sk_debug.c  **** LOG_FLAG3 sk_log_flg3_pre ;
 269:.\sk_debug.c  **** LOG_FLAG4 sk_log_flg4 =0;
 270:.\sk_debug.c  **** LOG_FLAG5 sk_log_flg5 =0;
 271:.\sk_debug.c  **** 
 272:.\sk_debug.c  **** 
 273:.\sk_debug.c  **** // LOG_FLAG2 sk_log_flg2=SK_LOG2_MAIN_LOOP ;
 274:.\sk_debug.c  **** 
 275:.\sk_debug.c  **** 
 276:.\sk_debug.c  **** 
 277:.\sk_debug.c  **** extern double Timer_count;
 278:.\sk_debug.c  **** void Display_parameter(void);
 279:.\sk_debug.c  **** void Display_Com_parameter(void);
 280:.\sk_debug.c  **** void Display_MotCtrl_Com(void);
 281:.\sk_debug.c  **** void  RTC_Display(void);
 282:.\sk_debug.c  **** void sk_log_Display(void);
 283:.\sk_debug.c  **** void SKLog_sub_cycl_int(void);
 284:.\sk_debug.c  **** void Set_timer_log(double  data);
 285:.\sk_debug.c  **** void skSet_time(uint16 ldata, char *cpt);
 286:.\sk_debug.c  **** 
 287:.\sk_debug.c  **** 
 288:.\sk_debug.c  **** 
 289:.\sk_debug.c  **** uint8  sk_measure_cnt=0;
 290:.\sk_debug.c  **** uint8  sk_CycleStart_Reg;
 291:.\sk_debug.c  **** 
 292:.\sk_debug.c  **** extern void RTC_1_WriteIntervalMask(uint8 mask) ;
 293:.\sk_debug.c  **** extern uint8   CycleStart_Read(void);
 294:.\sk_debug.c  **** extern void KeisokuTimer_isr_SetPriority(uint8 priority);
 295:.\sk_debug.c  **** 
 296:.\sk_debug.c  **** void sk_log_out(char8 *string,uint16 data);
 297:.\sk_debug.c  **** void     My_KeisokuTimer_isr_Interrupt(void);
 298:.\sk_debug.c  **** void SKOutput_param_Disp(void);
 299:.\sk_debug.c  **** void sk_log_main(char8 *string,uint16 data);
 300:.\sk_debug.c  **** 
 301:.\sk_debug.c  **** void Set_f2c(float dt, char *cpt,uint8 keta_u,uint8 keta_l);
 302:.\sk_debug.c  **** void sk_log_int_string(char8 *string);
 303:.\sk_debug.c  **** uint8 Menu00(uint8 ch);
 304:.\sk_debug.c  **** uint8 Menu01(uint8 ch);
 305:.\sk_debug.c  **** uint8 Menu02(uint8 ch);
 306:.\sk_debug.c  **** void sk_adc_debug(uint8 ad, uint8 data );
 307:.\sk_debug.c  **** 
 308:.\sk_debug.c  **** /*
 309:.\sk_debug.c  **** typedef enum{
 310:.\sk_debug.c  ****     TM_ON,
 311:.\sk_debug.c  ****     TM_OFF
 312:.\sk_debug.c  **** TM_FLG;
 313:.\sk_debug.c  **** */
 314:.\sk_debug.c  **** 
 315:.\sk_debug.c  **** TM_FLG sk_1000ms_flg = TM_OFF;
 316:.\sk_debug.c  **** TM_FLG sk_0100ms_flg = TM_OFF;
ARM GAS  C:\Users\nosak\AppData\Local\Temp\ccBt8IvS.s 			page 7


 317:.\sk_debug.c  **** TM_FLG sk_0010ms_flg = TM_OFF;
 318:.\sk_debug.c  **** TM_FLG sk_0001ms_flg = TM_OFF;
 319:.\sk_debug.c  **** 
 320:.\sk_debug.c  **** uint16    sk_1000ms_cnt = 9 ;
 321:.\sk_debug.c  **** uint16    sk_0100ms_cnt = 6 ;
 322:.\sk_debug.c  **** uint16    sk_0010ms_cnt = 3 ;
 323:.\sk_debug.c  **** uint16    sk_0001ms_cnt = 0 ;
 324:.\sk_debug.c  **** uint16    sk_log_cnt = 0 ;
 325:.\sk_debug.c  **** uint8       sk_mt_start = 0;
 326:.\sk_debug.c  **** 
 327:.\sk_debug.c  **** 
 328:.\sk_debug.c  **** #define TM_0001msec 20
 329:.\sk_debug.c  **** #define TM_0010msec 200
 330:.\sk_debug.c  **** #define TM_0100msec 2000
 331:.\sk_debug.c  **** #define TM_1000msec 20000
 332:.\sk_debug.c  **** 
 333:.\sk_debug.c  **** extern void sk_int32toChar(char8 *string,int32 data);
 334:.\sk_debug.c  **** extern void sk_int16toChar(char8 *string,int16 data) ;
 335:.\sk_debug.c  **** void Display_parameter2(void);
 336:.\sk_debug.c  **** void Display_parameter3(void);
 337:.\sk_debug.c  **** extern void sk_PutString_int32(char8 *string,int32 data);
 338:.\sk_debug.c  **** extern void sk_PutString_int16(char8 *string,int16 data);
 339:.\sk_debug.c  **** extern void sk_PutString_int8(char8 *string,int8 data);
 340:.\sk_debug.c  **** void sk_PutString_float(char8 *string,float data);
 341:.\sk_debug.c  **** void Set_realT2c(real_T dt, char *cpt,uint8 keta_u,uint8 keta_l);
 342:.\sk_debug.c  **** void MoterCtrl_data_Display(void);
 343:.\sk_debug.c  **** 
 344:.\sk_debug.c  **** //extern LOG_FLAG3 sk_log_flg1;
 345:.\sk_debug.c  **** //extern LOG_FLAG3 sk_log_flg2;
 346:.\sk_debug.c  **** extern LOG_FLAG3 sk_log_flg3;
 347:.\sk_debug.c  **** //extern LOG_FLAG3 sk_log_flg4;
 348:.\sk_debug.c  **** extern void sk_PutString_uint32(char8 *string,uint32 data);
 349:.\sk_debug.c  **** 
 350:.\sk_debug.c  **** uint16 ck_mtrlog_cnt=0;
 351:.\sk_debug.c  **** extern int16 sk_ms0_main[4];
 352:.\sk_debug.c  **** 
 353:.\sk_debug.c  **** uint16 sk_mt_speed;
 354:.\sk_debug.c  **** uint8 Menu03(l_ch);
 355:.\sk_debug.c  **** uint16 sk_input_ofst = 0;
 356:.\sk_debug.c  **** uint16 sk_input_data = 0;
 357:.\sk_debug.c  **** 
 358:.\sk_debug.c  **** uint8 Menu04(l_ch);
 359:.\sk_debug.c  **** uint8 Menu05(l_ch);
 360:.\sk_debug.c  **** //***************************************************************************
 361:.\sk_debug.c  **** //
 362:.\sk_debug.c  **** //***************************************************************************
 363:.\sk_debug.c  **** TM_FLG Check_0001ms(void)
 364:.\sk_debug.c  **** {
  27              		.loc 1 364 0
  28              		.cfi_startproc
  29              		@ args = 0, pretend = 0, frame = 0
  30              		@ frame_needed = 0, uses_anonymous_args = 0
  31              		@ link register save eliminated.
 365:.\sk_debug.c  ****     if( sk_0001ms_flg == TM_ON ){
  32              		.loc 1 365 0
  33 0000 034B     		ldr	r3, .L4
  34 0002 1878     		ldrb	r0, [r3]	@ zero_extendqisi2
ARM GAS  C:\Users\nosak\AppData\Local\Temp\ccBt8IvS.s 			page 8


  35 0004 10B9     		cbnz	r0, .L3
 366:.\sk_debug.c  ****         sk_0001ms_flg = TM_OFF;
  36              		.loc 1 366 0
  37 0006 0122     		movs	r2, #1
  38 0008 1A70     		strb	r2, [r3]
 367:.\sk_debug.c  ****         return( TM_ON );  
  39              		.loc 1 367 0
  40 000a 7047     		bx	lr
  41              	.L3:
 368:.\sk_debug.c  ****     }
 369:.\sk_debug.c  ****     else{
 370:.\sk_debug.c  ****         return( TM_OFF );
  42              		.loc 1 370 0
  43 000c 0120     		movs	r0, #1
 371:.\sk_debug.c  ****     }
 372:.\sk_debug.c  **** }
  44              		.loc 1 372 0
  45 000e 7047     		bx	lr
  46              	.L5:
  47              		.align	2
  48              	.L4:
  49 0010 00000000 		.word	.LANCHOR0
  50              		.cfi_endproc
  51              	.LFE63:
  52              		.size	Check_0001ms, .-Check_0001ms
  53              		.section	.text.Check_0010ms,"ax",%progbits
  54              		.align	2
  55              		.global	Check_0010ms
  56              		.thumb
  57              		.thumb_func
  58              		.type	Check_0010ms, %function
  59              	Check_0010ms:
  60              	.LFB64:
 373:.\sk_debug.c  **** //***************************************************************************
 374:.\sk_debug.c  **** //
 375:.\sk_debug.c  **** //***************************************************************************
 376:.\sk_debug.c  **** TM_FLG Check_0010ms(void)
 377:.\sk_debug.c  **** {
  61              		.loc 1 377 0
  62              		.cfi_startproc
  63              		@ args = 0, pretend = 0, frame = 0
  64              		@ frame_needed = 0, uses_anonymous_args = 0
  65              		@ link register save eliminated.
 378:.\sk_debug.c  ****     if( sk_0010ms_flg == TM_ON ){
  66              		.loc 1 378 0
  67 0000 034B     		ldr	r3, .L9
  68 0002 5878     		ldrb	r0, [r3, #1]	@ zero_extendqisi2
  69 0004 10B9     		cbnz	r0, .L8
 379:.\sk_debug.c  ****         sk_0010ms_flg = TM_OFF;
  70              		.loc 1 379 0
  71 0006 0122     		movs	r2, #1
  72 0008 5A70     		strb	r2, [r3, #1]
 380:.\sk_debug.c  ****         return( TM_ON );  
  73              		.loc 1 380 0
  74 000a 7047     		bx	lr
  75              	.L8:
 381:.\sk_debug.c  ****     }
ARM GAS  C:\Users\nosak\AppData\Local\Temp\ccBt8IvS.s 			page 9


 382:.\sk_debug.c  ****     else{
 383:.\sk_debug.c  ****         return( TM_OFF );
  76              		.loc 1 383 0
  77 000c 0120     		movs	r0, #1
 384:.\sk_debug.c  ****     }
 385:.\sk_debug.c  **** }
  78              		.loc 1 385 0
  79 000e 7047     		bx	lr
  80              	.L10:
  81              		.align	2
  82              	.L9:
  83 0010 00000000 		.word	.LANCHOR0
  84              		.cfi_endproc
  85              	.LFE64:
  86              		.size	Check_0010ms, .-Check_0010ms
  87              		.section	.text.Check_0100ms,"ax",%progbits
  88              		.align	2
  89              		.global	Check_0100ms
  90              		.thumb
  91              		.thumb_func
  92              		.type	Check_0100ms, %function
  93              	Check_0100ms:
  94              	.LFB65:
 386:.\sk_debug.c  **** //***************************************************************************
 387:.\sk_debug.c  **** //
 388:.\sk_debug.c  **** //***************************************************************************
 389:.\sk_debug.c  **** TM_FLG Check_0100ms(void)
 390:.\sk_debug.c  **** {
  95              		.loc 1 390 0
  96              		.cfi_startproc
  97              		@ args = 0, pretend = 0, frame = 0
  98              		@ frame_needed = 0, uses_anonymous_args = 0
  99              		@ link register save eliminated.
 391:.\sk_debug.c  ****     if( sk_0100ms_flg == TM_ON ){
 100              		.loc 1 391 0
 101 0000 034B     		ldr	r3, .L14
 102 0002 9878     		ldrb	r0, [r3, #2]	@ zero_extendqisi2
 103 0004 10B9     		cbnz	r0, .L13
 392:.\sk_debug.c  ****         sk_0100ms_flg = TM_OFF;
 104              		.loc 1 392 0
 105 0006 0122     		movs	r2, #1
 106 0008 9A70     		strb	r2, [r3, #2]
 393:.\sk_debug.c  ****         return( TM_ON );  
 107              		.loc 1 393 0
 108 000a 7047     		bx	lr
 109              	.L13:
 394:.\sk_debug.c  ****     }
 395:.\sk_debug.c  ****     else{
 396:.\sk_debug.c  ****         return( TM_OFF );
 110              		.loc 1 396 0
 111 000c 0120     		movs	r0, #1
 397:.\sk_debug.c  ****     }
 398:.\sk_debug.c  **** }
 112              		.loc 1 398 0
 113 000e 7047     		bx	lr
 114              	.L15:
 115              		.align	2
ARM GAS  C:\Users\nosak\AppData\Local\Temp\ccBt8IvS.s 			page 10


 116              	.L14:
 117 0010 00000000 		.word	.LANCHOR0
 118              		.cfi_endproc
 119              	.LFE65:
 120              		.size	Check_0100ms, .-Check_0100ms
 121              		.section	.text.Check_1000ms,"ax",%progbits
 122              		.align	2
 123              		.global	Check_1000ms
 124              		.thumb
 125              		.thumb_func
 126              		.type	Check_1000ms, %function
 127              	Check_1000ms:
 128              	.LFB66:
 399:.\sk_debug.c  **** //***************************************************************************
 400:.\sk_debug.c  **** //
 401:.\sk_debug.c  **** //***************************************************************************
 402:.\sk_debug.c  **** TM_FLG Check_1000ms(void)
 403:.\sk_debug.c  **** {
 129              		.loc 1 403 0
 130              		.cfi_startproc
 131              		@ args = 0, pretend = 0, frame = 0
 132              		@ frame_needed = 0, uses_anonymous_args = 0
 133              		@ link register save eliminated.
 404:.\sk_debug.c  ****     if( sk_1000ms_flg == TM_ON ){
 134              		.loc 1 404 0
 135 0000 034B     		ldr	r3, .L19
 136 0002 D878     		ldrb	r0, [r3, #3]	@ zero_extendqisi2
 137 0004 10B9     		cbnz	r0, .L18
 405:.\sk_debug.c  ****         sk_1000ms_flg = TM_OFF;
 138              		.loc 1 405 0
 139 0006 0122     		movs	r2, #1
 140 0008 DA70     		strb	r2, [r3, #3]
 406:.\sk_debug.c  ****         return( TM_ON );  
 141              		.loc 1 406 0
 142 000a 7047     		bx	lr
 143              	.L18:
 407:.\sk_debug.c  ****     }
 408:.\sk_debug.c  ****     else{
 409:.\sk_debug.c  ****         return( TM_OFF );
 144              		.loc 1 409 0
 145 000c 0120     		movs	r0, #1
 410:.\sk_debug.c  ****     }
 411:.\sk_debug.c  **** }
 146              		.loc 1 411 0
 147 000e 7047     		bx	lr
 148              	.L20:
 149              		.align	2
 150              	.L19:
 151 0010 00000000 		.word	.LANCHOR0
 152              		.cfi_endproc
 153              	.LFE66:
 154              		.size	Check_1000ms, .-Check_1000ms
 155              		.section	.text.debug_init,"ax",%progbits
 156              		.align	2
 157              		.global	debug_init
 158              		.thumb
 159              		.thumb_func
ARM GAS  C:\Users\nosak\AppData\Local\Temp\ccBt8IvS.s 			page 11


 160              		.type	debug_init, %function
 161              	debug_init:
 162              	.LFB68:
 412:.\sk_debug.c  ****     
 413:.\sk_debug.c  ****    
 414:.\sk_debug.c  **** //***************************************************************************
 415:.\sk_debug.c  **** //
 416:.\sk_debug.c  **** //  50usec 割込み
 417:.\sk_debug.c  **** //***************************************************************************
 418:.\sk_debug.c  **** My_KeisokuTimer_isr_Interrupt(void)
 419:.\sk_debug.c  **** {
 420:.\sk_debug.c  ****     KeisokuTimer_STATUS;
 421:.\sk_debug.c  ****     if( sk_log_flg & SK_LOG_KEISOKU_TM  ){
 422:.\sk_debug.c  ****         sk_log_int("KeisokuTimer_INT", 0);        
 423:.\sk_debug.c  ****     }
 424:.\sk_debug.c  ****     
 425:.\sk_debug.c  ****     sk_sub_cycl_int_cnt++;
 426:.\sk_debug.c  ****     
 427:.\sk_debug.c  ****     
 428:.\sk_debug.c  ****     sk_1000ms_cnt ++;
 429:.\sk_debug.c  ****     sk_0100ms_cnt ++;
 430:.\sk_debug.c  ****     sk_0010ms_cnt ++;
 431:.\sk_debug.c  ****     sk_0001ms_cnt ++;
 432:.\sk_debug.c  ****     
 433:.\sk_debug.c  ****     
 434:.\sk_debug.c  ****     if( sk_0001ms_cnt >= TM_0001msec ){
 435:.\sk_debug.c  ****         sk_0001ms_flg = TM_ON;
 436:.\sk_debug.c  ****         sk_0001ms_cnt = 0;
 437:.\sk_debug.c  ****     }
 438:.\sk_debug.c  **** 
 439:.\sk_debug.c  ****     if( sk_0010ms_cnt >= TM_0010msec ){
 440:.\sk_debug.c  ****         sk_0010ms_flg = TM_ON;
 441:.\sk_debug.c  ****         sk_0010ms_cnt = 0;
 442:.\sk_debug.c  ****     }
 443:.\sk_debug.c  **** 
 444:.\sk_debug.c  ****     if( sk_0100ms_cnt >= TM_0100msec ){
 445:.\sk_debug.c  ****         sk_0100ms_flg = TM_ON;
 446:.\sk_debug.c  ****         sk_0100ms_cnt = 0;
 447:.\sk_debug.c  ****     }
 448:.\sk_debug.c  ****     
 449:.\sk_debug.c  ****     if( sk_1000ms_cnt >= TM_1000msec ){
 450:.\sk_debug.c  ****         sk_1000ms_flg = TM_ON;
 451:.\sk_debug.c  ****         sk_1000ms_cnt = 0;
 452:.\sk_debug.c  ****     }
 453:.\sk_debug.c  **** 
 454:.\sk_debug.c  ****     
 455:.\sk_debug.c  **** }
 456:.\sk_debug.c  **** 
 457:.\sk_debug.c  **** //***************************************************************************
 458:.\sk_debug.c  **** //
 459:.\sk_debug.c  **** //
 460:.\sk_debug.c  **** //***************************************************************************
 461:.\sk_debug.c  **** 
 462:.\sk_debug.c  **** void debug_init(void)
 463:.\sk_debug.c  **** {
 163              		.loc 1 463 0
 164              		.cfi_startproc
ARM GAS  C:\Users\nosak\AppData\Local\Temp\ccBt8IvS.s 			page 12


 165              		@ args = 0, pretend = 0, frame = 0
 166              		@ frame_needed = 0, uses_anonymous_args = 0
 167 0000 08B5     		push	{r3, lr}
 168              		.cfi_def_cfa_offset 8
 169              		.cfi_offset 3, -8
 170              		.cfi_offset 14, -4
 464:.\sk_debug.c  ****     KeisokuTimer_Start();
 171              		.loc 1 464 0
 172 0002 FFF7FEFF 		bl	KeisokuTimer_Start
 173              	.LVL0:
 465:.\sk_debug.c  **** 
 466:.\sk_debug.c  ****     KeisokuTimer_isr_SetPriority(6);
 174              		.loc 1 466 0
 175 0006 0620     		movs	r0, #6
 176 0008 FFF7FEFF 		bl	KeisokuTimer_isr_SetPriority
 177              	.LVL1:
 467:.\sk_debug.c  **** 
 468:.\sk_debug.c  ****     KeisokuTimer_isr_StartEx(KeisokuTimer_isr_Interrupt);
 178              		.loc 1 468 0
 179 000c 0148     		ldr	r0, .L23
 180 000e FFF7FEFF 		bl	KeisokuTimer_isr_StartEx
 181              	.LVL2:
 182 0012 08BD     		pop	{r3, pc}
 183              	.L24:
 184              		.align	2
 185              	.L23:
 186 0014 00000000 		.word	KeisokuTimer_isr_Interrupt
 187              		.cfi_endproc
 188              	.LFE68:
 189              		.size	debug_init, .-debug_init
 190              		.section	.text.debug_menue_init,"ax",%progbits
 191              		.align	2
 192              		.global	debug_menue_init
 193              		.thumb
 194              		.thumb_func
 195              		.type	debug_menue_init, %function
 196              	debug_menue_init:
 197              	.LFB69:
 469:.\sk_debug.c  **** }
 470:.\sk_debug.c  **** 
 471:.\sk_debug.c  **** //***************************************************************************
 472:.\sk_debug.c  **** //
 473:.\sk_debug.c  **** //
 474:.\sk_debug.c  **** //***************************************************************************
 475:.\sk_debug.c  **** void debug_menue_init(void)
 476:.\sk_debug.c  **** {
 198              		.loc 1 476 0
 199              		.cfi_startproc
 200              		@ args = 0, pretend = 0, frame = 0
 201              		@ frame_needed = 0, uses_anonymous_args = 0
 202              		@ link register save eliminated.
 477:.\sk_debug.c  ****     timerlog.Rpt=0;
 203              		.loc 1 477 0
 204 0000 044B     		ldr	r3, .L26
 205 0002 0022     		movs	r2, #0
 206 0004 A3F8A22F 		strh	r2, [r3, #4002]	@ movhi
 478:.\sk_debug.c  ****     timerlog.Wpt=0;
ARM GAS  C:\Users\nosak\AppData\Local\Temp\ccBt8IvS.s 			page 13


 207              		.loc 1 478 0
 208 0008 A3F8A02F 		strh	r2, [r3, #4000]	@ movhi
 479:.\sk_debug.c  ****     Timer_log_sem=OFF;
 209              		.loc 1 479 0
 210 000c 0122     		movs	r2, #1
 211 000e 024B     		ldr	r3, .L26+4
 212 0010 1A70     		strb	r2, [r3]
 213 0012 7047     		bx	lr
 214              	.L27:
 215              		.align	2
 216              	.L26:
 217 0014 00000000 		.word	timerlog
 218 0018 00000000 		.word	Timer_log_sem
 219              		.cfi_endproc
 220              	.LFE69:
 221              		.size	debug_menue_init, .-debug_menue_init
 222              		.section	.text.Get_sem_timer_log,"ax",%progbits
 223              		.align	2
 224              		.global	Get_sem_timer_log
 225              		.thumb
 226              		.thumb_func
 227              		.type	Get_sem_timer_log, %function
 228              	Get_sem_timer_log:
 229              	.LFB71:
 480:.\sk_debug.c  **** }
 481:.\sk_debug.c  **** //***************************************************************************
 482:.\sk_debug.c  **** //
 483:.\sk_debug.c  **** //
 484:.\sk_debug.c  **** //***************************************************************************
 485:.\sk_debug.c  **** void Set_timer_log(double  data)
 486:.\sk_debug.c  **** {
 487:.\sk_debug.c  ****     Get_sem_timer_log();
 488:.\sk_debug.c  ****     timerlog.buf[timerlog.Wpt]=data;
 489:.\sk_debug.c  ****     
 490:.\sk_debug.c  ****     timerlog.Wpt++;
 491:.\sk_debug.c  ****     if(timerlog.Wpt > LOG_SIZE){
 492:.\sk_debug.c  ****         timerlog.Wpt=0;
 493:.\sk_debug.c  ****     }
 494:.\sk_debug.c  ****     
 495:.\sk_debug.c  ****     if(timerlog.Wpt==timerlog.Rpt){
 496:.\sk_debug.c  ****         timerlog.Rpt++;
 497:.\sk_debug.c  ****         if(timerlog.Rpt > LOG_SIZE){
 498:.\sk_debug.c  ****             timerlog.Rpt=0;
 499:.\sk_debug.c  ****         }   
 500:.\sk_debug.c  ****     }
 501:.\sk_debug.c  ****     
 502:.\sk_debug.c  ****     Releace_sem_timer_log();
 503:.\sk_debug.c  **** }
 504:.\sk_debug.c  **** //***************************************************************************
 505:.\sk_debug.c  **** //
 506:.\sk_debug.c  **** //
 507:.\sk_debug.c  **** //***************************************************************************
 508:.\sk_debug.c  **** 
 509:.\sk_debug.c  **** //***************************************************************************
 510:.\sk_debug.c  **** //
 511:.\sk_debug.c  **** //
 512:.\sk_debug.c  **** //***************************************************************************
ARM GAS  C:\Users\nosak\AppData\Local\Temp\ccBt8IvS.s 			page 14


 513:.\sk_debug.c  **** void Get_sem_timer_log(void)
 514:.\sk_debug.c  **** {
 230              		.loc 1 514 0
 231              		.cfi_startproc
 232              		@ args = 0, pretend = 0, frame = 0
 233              		@ frame_needed = 0, uses_anonymous_args = 0
 234              		@ link register save eliminated.
 235              	.L29:
 515:.\sk_debug.c  ****     for(;;){
 516:.\sk_debug.c  ****         if(Timer_log_sem==OFF)
 236              		.loc 1 516 0
 237 0000 034B     		ldr	r3, .L30
 238 0002 1B78     		ldrb	r3, [r3]	@ zero_extendqisi2
 239 0004 012B     		cmp	r3, #1
 240 0006 FBD1     		bne	.L29
 517:.\sk_debug.c  ****             break;
 518:.\sk_debug.c  ****     }
 519:.\sk_debug.c  ****     Timer_log_sem=ON;
 241              		.loc 1 519 0
 242 0008 0022     		movs	r2, #0
 243 000a 014B     		ldr	r3, .L30
 244 000c 1A70     		strb	r2, [r3]
 245 000e 7047     		bx	lr
 246              	.L31:
 247              		.align	2
 248              	.L30:
 249 0010 00000000 		.word	Timer_log_sem
 250              		.cfi_endproc
 251              	.LFE71:
 252              		.size	Get_sem_timer_log, .-Get_sem_timer_log
 253              		.section	.text.Releace_sem_timer_log,"ax",%progbits
 254              		.align	2
 255              		.global	Releace_sem_timer_log
 256              		.thumb
 257              		.thumb_func
 258              		.type	Releace_sem_timer_log, %function
 259              	Releace_sem_timer_log:
 260              	.LFB72:
 520:.\sk_debug.c  **** }
 521:.\sk_debug.c  **** 
 522:.\sk_debug.c  **** void Releace_sem_timer_log(void)
 523:.\sk_debug.c  **** {
 261              		.loc 1 523 0
 262              		.cfi_startproc
 263              		@ args = 0, pretend = 0, frame = 0
 264              		@ frame_needed = 0, uses_anonymous_args = 0
 265              		@ link register save eliminated.
 524:.\sk_debug.c  ****     Timer_log_sem=OFF;
 266              		.loc 1 524 0
 267 0000 0122     		movs	r2, #1
 268 0002 014B     		ldr	r3, .L33
 269 0004 1A70     		strb	r2, [r3]
 270 0006 7047     		bx	lr
 271              	.L34:
 272              		.align	2
 273              	.L33:
 274 0008 00000000 		.word	Timer_log_sem
ARM GAS  C:\Users\nosak\AppData\Local\Temp\ccBt8IvS.s 			page 15


 275              		.cfi_endproc
 276              	.LFE72:
 277              		.size	Releace_sem_timer_log, .-Releace_sem_timer_log
 278              		.global	__aeabi_d2uiz
 279              		.section	.text.Set_timer_log,"ax",%progbits
 280              		.align	2
 281              		.global	Set_timer_log
 282              		.thumb
 283              		.thumb_func
 284              		.type	Set_timer_log, %function
 285              	Set_timer_log:
 286              	.LFB70:
 486:.\sk_debug.c  ****     Get_sem_timer_log();
 287              		.loc 1 486 0
 288              		.cfi_startproc
 289              		@ args = 0, pretend = 0, frame = 0
 290              		@ frame_needed = 0, uses_anonymous_args = 0
 291              	.LVL3:
 292 0000 F8B5     		push	{r3, r4, r5, r6, r7, lr}
 293              		.cfi_def_cfa_offset 24
 294              		.cfi_offset 3, -24
 295              		.cfi_offset 4, -20
 296              		.cfi_offset 5, -16
 297              		.cfi_offset 6, -12
 298              		.cfi_offset 7, -8
 299              		.cfi_offset 14, -4
 300 0002 0646     		mov	r6, r0
 301 0004 0F46     		mov	r7, r1
 487:.\sk_debug.c  ****     timerlog.buf[timerlog.Wpt]=data;
 302              		.loc 1 487 0
 303 0006 FFF7FEFF 		bl	Get_sem_timer_log
 304              	.LVL4:
 488:.\sk_debug.c  ****     
 305              		.loc 1 488 0
 306 000a 144D     		ldr	r5, .L39
 307 000c B5F8A04F 		ldrh	r4, [r5, #4000]
 308 0010 3046     		mov	r0, r6
 309 0012 3946     		mov	r1, r7
 310 0014 FFF7FEFF 		bl	__aeabi_d2uiz
 311              	.LVL5:
 312 0018 45F82400 		str	r0, [r5, r4, lsl #2]
 490:.\sk_debug.c  ****     if(timerlog.Wpt > LOG_SIZE){
 313              		.loc 1 490 0
 314 001c 0134     		adds	r4, r4, #1
 315 001e A4B2     		uxth	r4, r4
 316 0020 A5F8A04F 		strh	r4, [r5, #4000]	@ movhi
 491:.\sk_debug.c  ****         timerlog.Wpt=0;
 317              		.loc 1 491 0
 318 0024 B4F57A7F 		cmp	r4, #1000
 319 0028 02D9     		bls	.L36
 492:.\sk_debug.c  ****     }
 320              		.loc 1 492 0
 321 002a 0022     		movs	r2, #0
 322 002c A5F8A02F 		strh	r2, [r5, #4000]	@ movhi
 323              	.L36:
 495:.\sk_debug.c  ****         timerlog.Rpt++;
 324              		.loc 1 495 0
ARM GAS  C:\Users\nosak\AppData\Local\Temp\ccBt8IvS.s 			page 16


 325 0030 0A4B     		ldr	r3, .L39
 326 0032 B3F8A02F 		ldrh	r2, [r3, #4000]
 327 0036 B3F8A23F 		ldrh	r3, [r3, #4002]
 328 003a 9A42     		cmp	r2, r3
 329 003c 0BD1     		bne	.L37
 496:.\sk_debug.c  ****         if(timerlog.Rpt > LOG_SIZE){
 330              		.loc 1 496 0
 331 003e 0133     		adds	r3, r3, #1
 332 0040 9BB2     		uxth	r3, r3
 333 0042 064A     		ldr	r2, .L39
 334 0044 A2F8A23F 		strh	r3, [r2, #4002]	@ movhi
 497:.\sk_debug.c  ****             timerlog.Rpt=0;
 335              		.loc 1 497 0
 336 0048 B3F57A7F 		cmp	r3, #1000
 337 004c 03D9     		bls	.L37
 498:.\sk_debug.c  ****         }   
 338              		.loc 1 498 0
 339 004e 0022     		movs	r2, #0
 340 0050 024B     		ldr	r3, .L39
 341 0052 A3F8A22F 		strh	r2, [r3, #4002]	@ movhi
 342              	.L37:
 502:.\sk_debug.c  **** }
 343              		.loc 1 502 0
 344 0056 FFF7FEFF 		bl	Releace_sem_timer_log
 345              	.LVL6:
 346 005a F8BD     		pop	{r3, r4, r5, r6, r7, pc}
 347              	.L40:
 348              		.align	2
 349              	.L39:
 350 005c 00000000 		.word	timerlog
 351              		.cfi_endproc
 352              	.LFE70:
 353              		.size	Set_timer_log, .-Set_timer_log
 354              		.section	.text.debug_main,"ax",%progbits
 355              		.align	2
 356              		.global	debug_main
 357              		.thumb
 358              		.thumb_func
 359              		.type	debug_main, %function
 360              	debug_main:
 361              	.LFB73:
 525:.\sk_debug.c  **** }
 526:.\sk_debug.c  **** //***************************************************************************
 527:.\sk_debug.c  **** //
 528:.\sk_debug.c  **** //
 529:.\sk_debug.c  **** //***************************************************************************
 530:.\sk_debug.c  **** void debug_main(void)
 531:.\sk_debug.c  **** {
 362              		.loc 1 531 0
 363              		.cfi_startproc
 364              		@ args = 0, pretend = 0, frame = 0
 365              		@ frame_needed = 0, uses_anonymous_args = 0
 366 0000 08B5     		push	{r3, lr}
 367              		.cfi_def_cfa_offset 8
 368              		.cfi_offset 3, -8
 369              		.cfi_offset 14, -4
 532:.\sk_debug.c  ****     uint8 dt;
ARM GAS  C:\Users\nosak\AppData\Local\Temp\ccBt8IvS.s 			page 17


 533:.\sk_debug.c  ****     
 534:.\sk_debug.c  ****     dt = CycleStart_Read();
 370              		.loc 1 534 0
 371 0002 FFF7FEFF 		bl	CycleStart_Read
 372              	.LVL7:
 535:.\sk_debug.c  ****     if( sk_CycleStart_Reg != dt ){
 373              		.loc 1 535 0
 374 0006 034B     		ldr	r3, .L44
 375 0008 1B78     		ldrb	r3, [r3]	@ zero_extendqisi2
 376 000a 8342     		cmp	r3, r0
 377 000c 01D0     		beq	.L41
 536:.\sk_debug.c  ****         sk_CycleStart_Reg = dt;
 378              		.loc 1 536 0
 379 000e 014B     		ldr	r3, .L44
 380 0010 1870     		strb	r0, [r3]
 381              	.L41:
 382 0012 08BD     		pop	{r3, pc}
 383              	.L45:
 384              		.align	2
 385              	.L44:
 386 0014 00000000 		.word	sk_CycleStart_Reg
 387              		.cfi_endproc
 388              	.LFE73:
 389              		.size	debug_main, .-debug_main
 390              		.section	.text.Menu03,"ax",%progbits
 391              		.align	2
 392              		.global	Menu03
 393              		.thumb
 394              		.thumb_func
 395              		.type	Menu03, %function
 396              	Menu03:
 397              	.LFB78:
 537:.\sk_debug.c  ****         if( sk_log_flg & SK_LOG_CYCLE_START  ){
 538:.\sk_debug.c  ****             // sk_log_int("CycleStart_Reg = ", (uint16 )dt);        
 539:.\sk_debug.c  ****         }
 540:.\sk_debug.c  ****     }
 541:.\sk_debug.c  **** }
 542:.\sk_debug.c  **** //***************************************************************************
 543:.\sk_debug.c  **** //
 544:.\sk_debug.c  **** //
 545:.\sk_debug.c  **** //***************************************************************************
 546:.\sk_debug.c  **** void debug_menue(void)
 547:.\sk_debug.c  **** {
 548:.\sk_debug.c  ****     uint8   l_ch;
 549:.\sk_debug.c  ****     uint8   l_i;
 550:.\sk_debug.c  ****     uint8   l_column; 
 551:.\sk_debug.c  ****     MENUE   *menu_pt;
 552:.\sk_debug.c  ****     uint8   rtn;
 553:.\sk_debug.c  ****     
 554:.\sk_debug.c  ****     l_ch  = SK_GetChar_uart();
 555:.\sk_debug.c  **** 
 556:.\sk_debug.c  **** 
 557:.\sk_debug.c  ****         
 558:.\sk_debug.c  ****     if(l_ch > 0){
 559:.\sk_debug.c  ****         sk_PutString03("Get CHAR = ", l_ch, CRLF_ON,16);
 560:.\sk_debug.c  ****         
 561:.\sk_debug.c  ****         switch(MenueNum){
ARM GAS  C:\Users\nosak\AppData\Local\Temp\ccBt8IvS.s 			page 18


 562:.\sk_debug.c  ****         case 0:
 563:.\sk_debug.c  ****             rtn = Menu00(l_ch);
 564:.\sk_debug.c  ****             break;
 565:.\sk_debug.c  ****         case 1:
 566:.\sk_debug.c  ****             rtn = Menu01(l_ch);
 567:.\sk_debug.c  ****             break;
 568:.\sk_debug.c  ****         case 2:
 569:.\sk_debug.c  ****             rtn = Menu02(l_ch);
 570:.\sk_debug.c  ****             break;
 571:.\sk_debug.c  ****         case 3:
 572:.\sk_debug.c  ****             rtn = Menu03(l_ch);
 573:.\sk_debug.c  ****             break;        
 574:.\sk_debug.c  ****         case 4:
 575:.\sk_debug.c  ****             rtn = Menu04(l_ch);
 576:.\sk_debug.c  ****             break;
 577:.\sk_debug.c  ****         case 5:
 578:.\sk_debug.c  ****             rtn = Menu05(l_ch);
 579:.\sk_debug.c  ****             break;
 580:.\sk_debug.c  ****         default:
 581:.\sk_debug.c  ****             MenueNum = 0;
 582:.\sk_debug.c  ****             break;
 583:.\sk_debug.c  ****         }    
 584:.\sk_debug.c  ****             
 585:.\sk_debug.c  ****         if( rtn == 0 ){
 586:.\sk_debug.c  ****             
 587:.\sk_debug.c  ****             // Menuを表示する
 588:.\sk_debug.c  ****      
 589:.\sk_debug.c  ****             menu_pt=MenueList[MenueNum].pt;
 590:.\sk_debug.c  ****             l_column = MenueList[MenueNum].clumn;
 591:.\sk_debug.c  ****         
 592:.\sk_debug.c  ****         
 593:.\sk_debug.c  ****             // sk_PutString03("MenueNum = ", MenueNum, CRLF_ON,16);
 594:.\sk_debug.c  ****             // sk_PutString03("l_column = ", l_column, CRLF_ON,16);
 595:.\sk_debug.c  ****         
 596:.\sk_debug.c  ****             
 597:.\sk_debug.c  ****             for(l_i=0;l_i< l_column;l_i++){
 598:.\sk_debug.c  ****                 sk_PutString01(menu_pt->name,CRLF_NONE);
 599:.\sk_debug.c  ****                 menu_pt ++;
 600:.\sk_debug.c  ****                 sk_PutString01(menu_pt->name,CRLF_ONLY);
 601:.\sk_debug.c  ****             }
 602:.\sk_debug.c  ****         
 603:.\sk_debug.c  ****             sk_PutString01(menu_pt->name,CRLF_ONLY);
 604:.\sk_debug.c  ****             
 605:.\sk_debug.c  ****             
 606:.\sk_debug.c  ****             switch(MenueNum){
 607:.\sk_debug.c  ****             
 608:.\sk_debug.c  ****             case 2:
 609:.\sk_debug.c  **** 
 610:.\sk_debug.c  ****                 sk_PutString03("sk_log_flg1 = ", sk_log_flg , CRLF_ON,16 );
 611:.\sk_debug.c  ****                 sk_PutString03("sk_log_flg2 = ", sk_log_flg2 , CRLF_ON,16 );
 612:.\sk_debug.c  ****                 sk_PutString03("sk_log_flg3 = ", sk_log_flg3 , CRLF_ON,16 );
 613:.\sk_debug.c  ****                 sk_PutString03("sk_log_flg4 = ", sk_log_flg4 , CRLF_ON,16 );
 614:.\sk_debug.c  ****                 sk_PutString03("sk_log_flg5 = ", sk_log_flg5 , CRLF_ON,16 );
 615:.\sk_debug.c  ****                 
 616:.\sk_debug.c  **** 
 617:.\sk_debug.c  **** 
 618:.\sk_debug.c  ****                 break;
ARM GAS  C:\Users\nosak\AppData\Local\Temp\ccBt8IvS.s 			page 19


 619:.\sk_debug.c  ****             case 4:
 620:.\sk_debug.c  ****                 sk_PutString03("OFFSET = ", sk_input_ofst , CRLF_ON,10 );
 621:.\sk_debug.c  ****                 break;
 622:.\sk_debug.c  ****                 
 623:.\sk_debug.c  ****             case 5:
 624:.\sk_debug.c  ****                 sk_PutString03("OFFSET = ", sk_input_ofst , CRLF_ON,10 );
 625:.\sk_debug.c  ****                 sk_PutString03("DATA = ", sk_input_data , CRLF_ON,10 );
 626:.\sk_debug.c  ****             default:
 627:.\sk_debug.c  ****                     
 628:.\sk_debug.c  ****                 break;
 629:.\sk_debug.c  ****             }    
 630:.\sk_debug.c  ****             
 631:.\sk_debug.c  ****         }
 632:.\sk_debug.c  ****     }
 633:.\sk_debug.c  **** }
 634:.\sk_debug.c  **** uint8 Menu00(uint8 ch)
 635:.\sk_debug.c  **** {
 636:.\sk_debug.c  ****         uint8 rtn = 0;
 637:.\sk_debug.c  ****         char buf[30];
 638:.\sk_debug.c  ****         int16 dt;
 639:.\sk_debug.c  ****         real_T dt_rT;
 640:.\sk_debug.c  ****         
 641:.\sk_debug.c  ****         switch( ch ){
 642:.\sk_debug.c  ****         case '1':
 643:.\sk_debug.c  ****             // DISPLAY Menue         
 644:.\sk_debug.c  ****             MenueNum =1 ;
 645:.\sk_debug.c  ****             break;
 646:.\sk_debug.c  ****         case '2':
 647:.\sk_debug.c  ****             // LOG DEBUG Menue
 648:.\sk_debug.c  ****             MenueNum = 2;
 649:.\sk_debug.c  ****             break;
 650:.\sk_debug.c  ****         case '3':
 651:.\sk_debug.c  ****             MenueNum = 4;
 652:.\sk_debug.c  ****             sk_input_ofst = 0;
 653:.\sk_debug.c  ****             sk_input_data = 0;
 654:.\sk_debug.c  **** 
 655:.\sk_debug.c  ****             break;
 656:.\sk_debug.c  ****         case '4':
 657:.\sk_debug.c  ****             
 658:.\sk_debug.c  ****             Set_realT2c(18.75, buf,3,6);
 659:.\sk_debug.c  ****             sk_PutString01(buf,CRLF_ON);
 660:.\sk_debug.c  ****             
 661:.\sk_debug.c  ****             Set_realT2c(0.00075, buf,3,6);
 662:.\sk_debug.c  ****             
 663:.\sk_debug.c  ****             sk_PutString01(buf,CRLF_ON);
 664:.\sk_debug.c  ****             
 665:.\sk_debug.c  ****             Set_realT2c(-1.0054, buf,3,6);
 666:.\sk_debug.c  ****             
 667:.\sk_debug.c  ****             sk_PutString01(buf,CRLF_ON);
 668:.\sk_debug.c  ****             
 669:.\sk_debug.c  ****             //sk_int32toChar(buf,-250);
 670:.\sk_debug.c  ****             Set_f2c(0.00314, buf,3,6);
 671:.\sk_debug.c  ****             sk_PutString01(buf,CRLF_ON);
 672:.\sk_debug.c  ****             Set_f2c(-0.00314, buf,3,6);
 673:.\sk_debug.c  ****             sk_PutString01(buf,CRLF_ON);
 674:.\sk_debug.c  ****             Set_f2c(0.0000314, buf,3,6);
 675:.\sk_debug.c  ****             sk_PutString01(buf,CRLF_ON);
ARM GAS  C:\Users\nosak\AppData\Local\Temp\ccBt8IvS.s 			page 20


 676:.\sk_debug.c  **** 
 677:.\sk_debug.c  ****         default:
 678:.\sk_debug.c  ****             break;
 679:.\sk_debug.c  ****         }
 680:.\sk_debug.c  ****         
 681:.\sk_debug.c  ****         return rtn;
 682:.\sk_debug.c  **** }
 683:.\sk_debug.c  **** uint8 Menu01(uint8 ch)
 684:.\sk_debug.c  **** {
 685:.\sk_debug.c  ****     uint8 rtn = 0;
 686:.\sk_debug.c  **** 
 687:.\sk_debug.c  ****     switch(ch){
 688:.\sk_debug.c  ****         case '1':
 689:.\sk_debug.c  ****             Display_parameter();
 690:.\sk_debug.c  ****             break;
 691:.\sk_debug.c  ****         case '2':
 692:.\sk_debug.c  ****             Display_parameter2();
 693:.\sk_debug.c  ****             break;
 694:.\sk_debug.c  ****         case '3':
 695:.\sk_debug.c  ****             Display_parameter3();
 696:.\sk_debug.c  ****             break;
 697:.\sk_debug.c  ****         case '4':
 698:.\sk_debug.c  ****             Display_Com_parameter();
 699:.\sk_debug.c  ****             break;
 700:.\sk_debug.c  ****         case '5':
 701:.\sk_debug.c  ****             Display_MotCtrl_Com();
 702:.\sk_debug.c  ****             break;
 703:.\sk_debug.c  ****         case '6':
 704:.\sk_debug.c  ****             RTC_Display();
 705:.\sk_debug.c  ****             break;
 706:.\sk_debug.c  ****         case '7':
 707:.\sk_debug.c  ****             SKOutput_param_Disp();
 708:.\sk_debug.c  ****             break;  
 709:.\sk_debug.c  ****         case '8':
 710:.\sk_debug.c  ****             MoterCtrl_data_Display();
 711:.\sk_debug.c  ****             break;  
 712:.\sk_debug.c  ****         case '9':
 713:.\sk_debug.c  ****             MoterCtrl_data2_Display();
 714:.\sk_debug.c  ****             rtn = 0;
 715:.\sk_debug.c  ****             break;
 716:.\sk_debug.c  ****         case 'r':
 717:.\sk_debug.c  ****         case 'R':
 718:.\sk_debug.c  ****             MenueNum = 0;
 719:.\sk_debug.c  ****         default:  
 720:.\sk_debug.c  ****             rtn = 0;
 721:.\sk_debug.c  ****             break;
 722:.\sk_debug.c  ****     }
 723:.\sk_debug.c  ****     return rtn;
 724:.\sk_debug.c  ****     
 725:.\sk_debug.c  **** }
 726:.\sk_debug.c  **** uint8 Menu02(uint8 ch)
 727:.\sk_debug.c  **** {
 728:.\sk_debug.c  ****     uint8 rtn = 1;
 729:.\sk_debug.c  **** 
 730:.\sk_debug.c  ****     switch(ch){
 731:.\sk_debug.c  ****         case '1':
 732:.\sk_debug.c  ****             sk_log_Display();
ARM GAS  C:\Users\nosak\AppData\Local\Temp\ccBt8IvS.s 			page 21


 733:.\sk_debug.c  ****             break;
 734:.\sk_debug.c  ****         case '2':
 735:.\sk_debug.c  ****             Deblog.Wpt=0;
 736:.\sk_debug.c  ****             Deblog.Rpt=0;
 737:.\sk_debug.c  ****             
 738:.\sk_debug.c  ****             break;
 739:.\sk_debug.c  ****             
 740:.\sk_debug.c  ****         case 'a':
 741:.\sk_debug.c  **** 
 742:.\sk_debug.c  ****             if( sk_log_flg & SK_LOG_SUBCYCL ){
 743:.\sk_debug.c  ****                 sk_log_flg &= ~SK_LOG_SUBCYCL;
 744:.\sk_debug.c  ****                 sk_PutString01("LOG_SUBCYCL OFF", CRLF_ON );    
 745:.\sk_debug.c  ****             }
 746:.\sk_debug.c  ****             else{
 747:.\sk_debug.c  ****                 sk_log_flg |= SK_LOG_SUBCYCL;
 748:.\sk_debug.c  ****                 sk_PutString01("LOG_SUBCYCL ON", CRLF_ON );    
 749:.\sk_debug.c  ****             }
 750:.\sk_debug.c  ****                   
 751:.\sk_debug.c  ****             break;
 752:.\sk_debug.c  ****         case 'b':
 753:.\sk_debug.c  ****             if( sk_log_flg & SK_LOG_MAX_SUB_COUNT ){
 754:.\sk_debug.c  ****                 sk_log_flg &= ~SK_LOG_MAX_SUB_COUNT;
 755:.\sk_debug.c  ****                 sk_PutString01("MAX_SUB_COUNT OFF", CRLF_ON );  
 756:.\sk_debug.c  ****             }
 757:.\sk_debug.c  ****             else{
 758:.\sk_debug.c  ****                 sk_log_flg |= SK_LOG_MAX_SUB_COUNT;
 759:.\sk_debug.c  ****                 sk_PutString01("MAX_SUB_COUNT ON", CRLF_ON );  
 760:.\sk_debug.c  ****             }
 761:.\sk_debug.c  ****             
 762:.\sk_debug.c  ****             break;
 763:.\sk_debug.c  ****         case 'c':
 764:.\sk_debug.c  ****              if( sk_log_flg & SK_LOG_INTRUPT512 ){
 765:.\sk_debug.c  ****                 sk_log_flg &= ~SK_LOG_INTRUPT512;
 766:.\sk_debug.c  ****                 sk_PutString01("INTRUPT512 OFF", CRLF_ON );  
 767:.\sk_debug.c  ****             }
 768:.\sk_debug.c  ****             else{
 769:.\sk_debug.c  ****                 sk_log_flg |= SK_LOG_INTRUPT512;
 770:.\sk_debug.c  ****                 sk_PutString01("INTRUPT512 ON", CRLF_ON );  
 771:.\sk_debug.c  ****             }
 772:.\sk_debug.c  ****             
 773:.\sk_debug.c  ****             break;
 774:.\sk_debug.c  ****         case 'd':
 775:.\sk_debug.c  ****             if( sk_log_flg & SK_LOG_SUBCYCL_8P ){
 776:.\sk_debug.c  ****                 sk_log_flg &= ~SK_LOG_SUBCYCL_8P;
 777:.\sk_debug.c  ****                 sk_PutString01("SUBCYCL_8P OFF", CRLF_ON );  
 778:.\sk_debug.c  ****             }
 779:.\sk_debug.c  ****             else{
 780:.\sk_debug.c  ****                 sk_log_flg |= SK_LOG_SUBCYCL_8P;
 781:.\sk_debug.c  ****                 sk_PutString01("SUBCYCL_8P ON", CRLF_ON );  
 782:.\sk_debug.c  ****             }
 783:.\sk_debug.c  **** 
 784:.\sk_debug.c  ****             break;
 785:.\sk_debug.c  ****         case 'e':
 786:.\sk_debug.c  ****             if( sk_log_flg & SK_LOG_FRAME_CNT  ){
 787:.\sk_debug.c  ****                 sk_log_flg &= ~SK_LOG_FRAME_CNT ;
 788:.\sk_debug.c  ****                 sk_PutString01("FRAME_CNT OFF", CRLF_ON );  
 789:.\sk_debug.c  ****             }
ARM GAS  C:\Users\nosak\AppData\Local\Temp\ccBt8IvS.s 			page 22


 790:.\sk_debug.c  ****             else{
 791:.\sk_debug.c  ****                 sk_log_flg |= SK_LOG_FRAME_CNT ;
 792:.\sk_debug.c  ****                 sk_PutString01("FRAME_CNT ON", CRLF_ON );  
 793:.\sk_debug.c  ****             }
 794:.\sk_debug.c  ****             break;
 795:.\sk_debug.c  ****         case 'f':
 796:.\sk_debug.c  ****             if( sk_log_flg & SK_LOG_CYCLE_START  ){
 797:.\sk_debug.c  ****                 sk_log_flg &= ~SK_LOG_CYCLE_START ;
 798:.\sk_debug.c  ****                 sk_PutString01("CYCLE_START OFF", CRLF_ON );  
 799:.\sk_debug.c  ****             }
 800:.\sk_debug.c  ****             else{
 801:.\sk_debug.c  ****                 sk_log_flg |= SK_LOG_CYCLE_START ;
 802:.\sk_debug.c  ****                 sk_PutString01("CYCLE_START ON", CRLF_ON );  
 803:.\sk_debug.c  ****             }
 804:.\sk_debug.c  ****             break;
 805:.\sk_debug.c  ****         case 'g':
 806:.\sk_debug.c  ****             if( sk_log_flg & SK_LOG_COM_INT  ){
 807:.\sk_debug.c  ****                 sk_log_flg &= ~SK_LOG_COM_INT ;
 808:.\sk_debug.c  ****                 sk_PutString01("COM_INT OFF", CRLF_ON );  
 809:.\sk_debug.c  ****             }
 810:.\sk_debug.c  ****             else{
 811:.\sk_debug.c  ****                 sk_log_flg |= SK_LOG_COM_INT ;
 812:.\sk_debug.c  ****                 sk_PutString01("COM_INT ON", CRLF_ON );  
 813:.\sk_debug.c  ****             }
 814:.\sk_debug.c  ****             break;
 815:.\sk_debug.c  ****         case 'h':
 816:.\sk_debug.c  ****             if( sk_log_flg & SK_LOG_KEISOKU_TM  ){
 817:.\sk_debug.c  ****                 sk_log_flg &= ~SK_LOG_KEISOKU_TM ;
 818:.\sk_debug.c  ****                 sk_PutString01("KEISOKU_TM OFF", CRLF_ON );  
 819:.\sk_debug.c  ****             }
 820:.\sk_debug.c  ****             else{
 821:.\sk_debug.c  ****                 sk_log_flg |= SK_LOG_KEISOKU_TM ;
 822:.\sk_debug.c  ****                 sk_PutString01("KEISOKU_TM ON", CRLF_ON );  
 823:.\sk_debug.c  ****             }
 824:.\sk_debug.c  ****             break;    
 825:.\sk_debug.c  ****         case 'i':
 826:.\sk_debug.c  ****             if( sk_log_flg2 & SK_LOG2_MAIN_LOOP  ){
 827:.\sk_debug.c  ****                 sk_log_flg2 &= ~SK_LOG2_MAIN_LOOP ;
 828:.\sk_debug.c  ****                 sk_PutString01("MAIN_LOOP OFF", CRLF_ON );  
 829:.\sk_debug.c  ****             }
 830:.\sk_debug.c  ****             else{
 831:.\sk_debug.c  ****                 sk_log_flg2 |= SK_LOG2_MAIN_LOOP ;
 832:.\sk_debug.c  ****                 sk_PutString01("MAIN_LOOP ON", CRLF_ON );  
 833:.\sk_debug.c  ****             }
 834:.\sk_debug.c  ****             break;   
 835:.\sk_debug.c  ****         case 'j':
 836:.\sk_debug.c  ****             if( sk_log_flg2 & SK_LOG2_BMP_SENS ){
 837:.\sk_debug.c  ****                 sk_log_flg2 &= ~SK_LOG2_BMP_SENS ;
 838:.\sk_debug.c  ****                 sk_PutString01("BMP_SENS OFF", CRLF_ON );  
 839:.\sk_debug.c  ****             }
 840:.\sk_debug.c  ****             else{
 841:.\sk_debug.c  ****                 sk_log_flg2 |= SK_LOG2_BMP_SENS ;
 842:.\sk_debug.c  ****                 sk_PutString01("BMP_SENS ON", CRLF_ON );  
 843:.\sk_debug.c  ****             }
 844:.\sk_debug.c  ****             break; 
 845:.\sk_debug.c  ****         case 'k':
 846:.\sk_debug.c  ****             
ARM GAS  C:\Users\nosak\AppData\Local\Temp\ccBt8IvS.s 			page 23


 847:.\sk_debug.c  ****             if(sk_log_flg3_pre == 0){
 848:.\sk_debug.c  ****                 sk_log_flg3 |= SK_LOG2_DIST0 ;
 849:.\sk_debug.c  ****                 sk_log_flg3_pre = SK_LOG2_DIST0 ;
 850:.\sk_debug.c  ****             }
 851:.\sk_debug.c  ****             else{
 852:.\sk_debug.c  ****                 if( sk_log_flg3 != 0 ){
 853:.\sk_debug.c  ****                     //sk_log_flg3_pre = sk_log_flg3;
 854:.\sk_debug.c  ****                     sk_log_flg3 = 0;
 855:.\sk_debug.c  ****                 sk_PutString01("ADC OFF", CRLF_ON);
 856:.\sk_debug.c  ****                     
 857:.\sk_debug.c  ****                 }
 858:.\sk_debug.c  ****                 else{
 859:.\sk_debug.c  ****                     if( sk_log_flg3_pre & SK_LOG2_DIST7){
 860:.\sk_debug.c  ****                         sk_log_flg3_pre = SK_LOG2_DIST0;
 861:.\sk_debug.c  ****                         sk_log_flg3 = sk_log_flg3_pre;
 862:.\sk_debug.c  ****                     }
 863:.\sk_debug.c  ****                     else{
 864:.\sk_debug.c  ****                         sk_log_flg3_pre = sk_log_flg3_pre << 1;
 865:.\sk_debug.c  ****                         sk_log_flg3 = sk_log_flg3_pre;
 866:.\sk_debug.c  ****                     }
 867:.\sk_debug.c  ****                     
 868:.\sk_debug.c  ****                 }
 869:.\sk_debug.c  ****             }
 870:.\sk_debug.c  **** 
 871:.\sk_debug.c  ****             if (sk_log_flg3 & SK_LOG2_DIST0)             
 872:.\sk_debug.c  ****                 sk_PutString03("ADC DIST0 ON = ", sk_log_flg3, CRLF_ON,16 );
 873:.\sk_debug.c  ****             if (sk_log_flg3 & SK_LOG2_DIST1)             
 874:.\sk_debug.c  ****                 sk_PutString03("ADC DIST1 ON = ", sk_log_flg3, CRLF_ON,16 );
 875:.\sk_debug.c  ****             if (sk_log_flg3 & SK_LOG2_DIST2)             
 876:.\sk_debug.c  ****                 sk_PutString03("ADC DIST2 ON = ", sk_log_flg3, CRLF_ON,16 );
 877:.\sk_debug.c  ****             if (sk_log_flg3 & SK_LOG2_DIST3)             
 878:.\sk_debug.c  ****                 sk_PutString03("ADC DIST3 ON = ", sk_log_flg3, CRLF_ON,16 );
 879:.\sk_debug.c  ****             if (sk_log_flg3 & SK_LOG2_DIST4)             
 880:.\sk_debug.c  ****                 sk_PutString03("ADC DIST4 ON = ", sk_log_flg3, CRLF_ON,16 );
 881:.\sk_debug.c  ****             if (sk_log_flg3 & SK_LOG2_DIST5)             
 882:.\sk_debug.c  ****                 sk_PutString03("ADC DIST5 ON = ", sk_log_flg3, CRLF_ON,16 );
 883:.\sk_debug.c  ****             if (sk_log_flg3 & SK_LOG2_DIST6)             
 884:.\sk_debug.c  ****                 sk_PutString03("ADC DIST6 ON = ", sk_log_flg3, CRLF_ON,16 );
 885:.\sk_debug.c  ****             if (sk_log_flg3 & SK_LOG2_DIST7)             
 886:.\sk_debug.c  ****                 sk_PutString03("ADC DIST7 ON = ", sk_log_flg3, CRLF_ON,16 );
 887:.\sk_debug.c  **** 
 888:.\sk_debug.c  ****             
 889:.\sk_debug.c  ****             break;        
 890:.\sk_debug.c  ****         case 'l':  // L
 891:.\sk_debug.c  ****             if( sk_log_flg2 & SK_LOG2_LOOP_CHK ){
 892:.\sk_debug.c  ****                 sk_log_flg2 &= ~SK_LOG2_LOOP_CHK ;
 893:.\sk_debug.c  ****                 sk_PutString01("LOOP_CHK OFF", CRLF_ON);
 894:.\sk_debug.c  ****             }
 895:.\sk_debug.c  ****             else{
 896:.\sk_debug.c  ****                 sk_log_flg2 |= SK_LOG2_LOOP_CHK ;
 897:.\sk_debug.c  ****                 sk_PutString01("LOOP_CHK ON", CRLF_ON);
 898:.\sk_debug.c  ****             }        
 899:.\sk_debug.c  ****                 
 900:.\sk_debug.c  ****             break;             
 901:.\sk_debug.c  ****         case 'm':  // L
 902:.\sk_debug.c  ****             if( sk_log_flg2 & SK_LOG2_CYCLE_CNT ){
 903:.\sk_debug.c  ****                 sk_log_flg2 &= ~SK_LOG2_CYCLE_CNT ;
ARM GAS  C:\Users\nosak\AppData\Local\Temp\ccBt8IvS.s 			page 24


 904:.\sk_debug.c  ****                 sk_PutString01("CYCLE_CNT OFF", CRLF_ON);
 905:.\sk_debug.c  ****             }
 906:.\sk_debug.c  ****             else{
 907:.\sk_debug.c  ****                 sk_log_flg2 |= SK_LOG2_CYCLE_CNT ;
 908:.\sk_debug.c  ****                 sk_PutString01("CYCLE_CNT ON", CRLF_ON);
 909:.\sk_debug.c  ****             }        
 910:.\sk_debug.c  ****                 
 911:.\sk_debug.c  ****             break;             
 912:.\sk_debug.c  ****         case 'n':  // L
 913:.\sk_debug.c  ****             if( sk_log_flg2 & SK_LOG2_COM_RECIVE  ){
 914:.\sk_debug.c  ****                 sk_log_flg2 &= ~SK_LOG2_COM_RECIVE  ;
 915:.\sk_debug.c  ****                 sk_PutString01("COM_RECIVE  OFF", CRLF_ON);
 916:.\sk_debug.c  ****             }
 917:.\sk_debug.c  ****             else{
 918:.\sk_debug.c  ****                 sk_log_flg2 |= SK_LOG2_COM_RECIVE  ;
 919:.\sk_debug.c  ****                 sk_PutString01("COM_RECIVE  ON", CRLF_ON);
 920:.\sk_debug.c  ****             }        
 921:.\sk_debug.c  ****                 
 922:.\sk_debug.c  ****             break;       
 923:.\sk_debug.c  ****          case 'o':  // L
 924:.\sk_debug.c  ****             if( sk_log_flg2 & SK_LOG2_SPI_READ  ){
 925:.\sk_debug.c  ****                 sk_log_flg2 &= ~SK_LOG2_SPI_READ  ;
 926:.\sk_debug.c  ****                 sk_PutString01("SPI READ LOG OFF", CRLF_ON);
 927:.\sk_debug.c  ****             }
 928:.\sk_debug.c  ****             else{
 929:.\sk_debug.c  ****                 sk_log_flg2 |= SK_LOG2_SPI_READ  ;
 930:.\sk_debug.c  ****                 sk_PutString01("SPI READ LOG ON", CRLF_ON);
 931:.\sk_debug.c  ****             }        
 932:.\sk_debug.c  ****                 
 933:.\sk_debug.c  ****             break;    
 934:.\sk_debug.c  ****         case 'p':  
 935:.\sk_debug.c  ****             if( sk_log_flg2 & SK_LOG2_SPI_SET  ){
 936:.\sk_debug.c  ****                 sk_log_flg2 &= ~SK_LOG2_SPI_SET  ;
 937:.\sk_debug.c  ****                 sk_PutString01("SPI SET LOG OFF", CRLF_ON);
 938:.\sk_debug.c  ****             }
 939:.\sk_debug.c  ****             else{
 940:.\sk_debug.c  ****                 sk_log_flg2 |= SK_LOG2_SPI_SET  ;
 941:.\sk_debug.c  ****                 sk_PutString01("SPI SET LOG ON", CRLF_ON);
 942:.\sk_debug.c  ****             }        
 943:.\sk_debug.c  ****                 
 944:.\sk_debug.c  ****             break;  
 945:.\sk_debug.c  ****         case 'q':  
 946:.\sk_debug.c  ****             if( sk_log_flg2 & SK_LOG2_SPI_WR  ){
 947:.\sk_debug.c  ****                 sk_log_flg2 &= ~SK_LOG2_SPI_WR  ;
 948:.\sk_debug.c  ****                 sk_PutString01("SPI WR LOG OFF", CRLF_ON);
 949:.\sk_debug.c  ****             }
 950:.\sk_debug.c  ****             else{
 951:.\sk_debug.c  ****                 sk_log_flg2 |= SK_LOG2_SPI_WR  ;
 952:.\sk_debug.c  ****                 sk_PutString01("SPI WR LOG ON", CRLF_ON);
 953:.\sk_debug.c  ****             }        
 954:.\sk_debug.c  **** 
 955:.\sk_debug.c  ****             break;  
 956:.\sk_debug.c  ****         case 's':  
 957:.\sk_debug.c  ****             if( sk_log_flg4 & SK_LOG4_MT_PWM  ){
 958:.\sk_debug.c  ****                 sk_log_flg4 &= ~SK_LOG4_MT_PWM  ;
 959:.\sk_debug.c  ****                 sk_PutString01("MT PWM LOG OFF", CRLF_ON);
 960:.\sk_debug.c  ****             }
ARM GAS  C:\Users\nosak\AppData\Local\Temp\ccBt8IvS.s 			page 25


 961:.\sk_debug.c  ****             else{
 962:.\sk_debug.c  ****                 sk_log_flg4 |= SK_LOG4_MT_PWM  ;
 963:.\sk_debug.c  ****                 sk_PutString01("MT PWM LOG ON", CRLF_ON);
 964:.\sk_debug.c  ****             }        
 965:.\sk_debug.c  **** 
 966:.\sk_debug.c  **** 
 967:.\sk_debug.c  ****             break;  
 968:.\sk_debug.c  ****         case 't':  
 969:.\sk_debug.c  ****             if( sk_log_flg4 & SK_LOG4_PWM_DATA  ){
 970:.\sk_debug.c  ****                 sk_log_flg4 &= ~SK_LOG4_PWM_DATA  ;
 971:.\sk_debug.c  ****                 sk_PutString01("MT PWM DATA LOG OFF", CRLF_ON);
 972:.\sk_debug.c  ****             }
 973:.\sk_debug.c  ****             else{
 974:.\sk_debug.c  ****                 sk_log_flg4 |= SK_LOG4_PWM_DATA  ;
 975:.\sk_debug.c  ****                 sk_PutString01("MT PWM DATA LOG ON", CRLF_ON);
 976:.\sk_debug.c  ****             }        
 977:.\sk_debug.c  **** 
 978:.\sk_debug.c  **** 
 979:.\sk_debug.c  ****             break;  
 980:.\sk_debug.c  ****         case 'u':  
 981:.\sk_debug.c  ****             if( sk_log_flg4 & SK_LOG4_ENC_DATA  ){
 982:.\sk_debug.c  ****                 sk_log_flg4 &= ~SK_LOG4_ENC_DATA  ;
 983:.\sk_debug.c  ****                 sk_PutString01("MT ENC DATA LOG OFF", CRLF_ON);
 984:.\sk_debug.c  ****             }
 985:.\sk_debug.c  ****             else{
 986:.\sk_debug.c  ****                 sk_log_flg4 |= SK_LOG4_ENC_DATA  ;
 987:.\sk_debug.c  ****                 sk_PutString01("MT ENC DATA LOG ON", CRLF_ON);
 988:.\sk_debug.c  ****             }        
 989:.\sk_debug.c  **** 
 990:.\sk_debug.c  **** 
 991:.\sk_debug.c  ****             break; 
 992:.\sk_debug.c  ****         case 'v':  
 993:.\sk_debug.c  ****             if( sk_log_flg4 & SK_LOG4_SUB_CALC1   ){
 994:.\sk_debug.c  ****                 sk_log_flg4 &= ~SK_LOG4_SUB_CALC1   ;
 995:.\sk_debug.c  ****                 sk_PutString01("MT CALC LOG OFF", CRLF_ON);
 996:.\sk_debug.c  ****             }
 997:.\sk_debug.c  ****             else{
 998:.\sk_debug.c  ****                 sk_log_flg4 |= SK_LOG4_SUB_CALC1   ;
 999:.\sk_debug.c  ****                 sk_PutString03("MT CALC LOG ON = ",sk_log_flg4, CRLF_ON,16);
1000:.\sk_debug.c  ****                 sk_log_cnt=0;
1001:.\sk_debug.c  ****             }        
1002:.\sk_debug.c  ****             break; 
1003:.\sk_debug.c  ****         case 'w':  
1004:.\sk_debug.c  ****             if( sk_log_flg4 & SK_LOG4_MOT_START   ){
1005:.\sk_debug.c  ****                 sk_log_flg4 &= ~SK_LOG4_MOT_START   ;
1006:.\sk_debug.c  ****                 sk_PutString01("MT STOP", CRLF_ON);
1007:.\sk_debug.c  ****             }
1008:.\sk_debug.c  ****             else{
1009:.\sk_debug.c  ****                 MenueNum = 3;
1010:.\sk_debug.c  ****                 rtn = 0;
1011:.\sk_debug.c  ****             }
1012:.\sk_debug.c  ****             break; 
1013:.\sk_debug.c  ****         case 'x':  
1014:.\sk_debug.c  ****             if( sk_log_flg5 & SK_LOG5_PWM_CALUC   ){
1015:.\sk_debug.c  ****                 sk_log_flg5 &= ~SK_LOG5_PWM_CALUC   ;
1016:.\sk_debug.c  ****                 sk_PutString01("PWM_CALUC OFF", CRLF_ON);
1017:.\sk_debug.c  ****             }
ARM GAS  C:\Users\nosak\AppData\Local\Temp\ccBt8IvS.s 			page 26


1018:.\sk_debug.c  ****             else{
1019:.\sk_debug.c  ****                 sk_log_flg5 |= SK_LOG5_PWM_CALUC  ;
1020:.\sk_debug.c  ****                 
1021:.\sk_debug.c  ****                 sk_log_cnt=0;
1022:.\sk_debug.c  ****             }        
1023:.\sk_debug.c  ****             break; 
1024:.\sk_debug.c  ****         case 'y':  
1025:.\sk_debug.c  ****             if( sk_log_flg5 & SK_LOG5_MT_CTRL   ){
1026:.\sk_debug.c  ****                 sk_log_flg5 &= ~SK_LOG5_MT_CTRL   ;
1027:.\sk_debug.c  ****                 sk_PutString01("MT CTRLC OFF", CRLF_ON);
1028:.\sk_debug.c  ****             }
1029:.\sk_debug.c  ****             else{
1030:.\sk_debug.c  ****                 sk_log_flg5 |= SK_LOG5_MT_CTRL  ;
1031:.\sk_debug.c  ****                 sk_PutString03("MT CTRL ON = ",sk_log_flg4, CRLF_ON,16);
1032:.\sk_debug.c  ****                 ck_mtrlog_cnt = 0;
1033:.\sk_debug.c  ****             }        
1034:.\sk_debug.c  ****             break; 
1035:.\sk_debug.c  ****         case 'z':  
1036:.\sk_debug.c  ****             if( sk_log_flg5 & SK_LOG4_ENC_DATA   ){
1037:.\sk_debug.c  ****                 sk_log_flg5 &= ~SK_LOG4_ENC_DATA   ;
1038:.\sk_debug.c  ****                 sk_PutString01("ENC CNT OFF", CRLF_ON);
1039:.\sk_debug.c  ****                 sk_PutString03("sk_ms0_main[0] = ",sk_ms0_main[0], CRLF_ON,10);
1040:.\sk_debug.c  ****                 sk_PutString03("sk_ms0_main[1] = ",sk_ms0_main[1], CRLF_ON,10);
1041:.\sk_debug.c  ****                 sk_PutString03("sk_ms0_main[2] = ",sk_ms0_main[2], CRLF_ON,10);
1042:.\sk_debug.c  ****                 sk_PutString03("sk_ms0_main[3] = ",sk_ms0_main[3], CRLF_ON,10);
1043:.\sk_debug.c  ****             }
1044:.\sk_debug.c  ****             else{
1045:.\sk_debug.c  ****                 sk_log_flg5 |= SK_LOG4_ENC_DATA  ;
1046:.\sk_debug.c  ****                 sk_PutString03("ENC CNT ON = ",sk_log_flg4, CRLF_ON,16);
1047:.\sk_debug.c  ****                 sk_ms0_main[0] = 0;
1048:.\sk_debug.c  ****                 sk_ms0_main[1] = 0;
1049:.\sk_debug.c  ****                 sk_ms0_main[2] = 0;
1050:.\sk_debug.c  ****                 sk_ms0_main[3] = 0;
1051:.\sk_debug.c  ****             }        
1052:.\sk_debug.c  ****             break; 
1053:.\sk_debug.c  **** 
1054:.\sk_debug.c  ****         case 'r':
1055:.\sk_debug.c  ****         case 'R':
1056:.\sk_debug.c  ****             MenueNum = 0;
1057:.\sk_debug.c  ****         default:  
1058:.\sk_debug.c  ****             rtn = 0;
1059:.\sk_debug.c  ****             break;
1060:.\sk_debug.c  ****     }
1061:.\sk_debug.c  ****     return rtn;
1062:.\sk_debug.c  **** }
1063:.\sk_debug.c  **** 
1064:.\sk_debug.c  **** uint8 Menu03(l_ch)
1065:.\sk_debug.c  **** {
 398              		.loc 1 1065 0
 399              		.cfi_startproc
 400              		@ args = 0, pretend = 0, frame = 0
 401              		@ frame_needed = 0, uses_anonymous_args = 0
 402              	.LVL8:
 403 0000 10B5     		push	{r4, lr}
 404              		.cfi_def_cfa_offset 8
 405              		.cfi_offset 4, -8
 406              		.cfi_offset 14, -4
ARM GAS  C:\Users\nosak\AppData\Local\Temp\ccBt8IvS.s 			page 27


 407              	.LVL9:
1066:.\sk_debug.c  ****     uint8 rtn = 0;
1067:.\sk_debug.c  ****     
1068:.\sk_debug.c  ****     MenueNum = 2;
 408              		.loc 1 1068 0
 409 0002 0222     		movs	r2, #2
 410 0004 1E4B     		ldr	r3, .L58
 411 0006 1A70     		strb	r2, [r3]
1069:.\sk_debug.c  ****     switch(l_ch){
 412              		.loc 1 1069 0
 413 0008 3138     		subs	r0, r0, #49
 414              	.LVL10:
 415 000a 0428     		cmp	r0, #4
 416 000c 18D8     		bhi	.L47
 417 000e DFE800F0 		tbb	[pc, r0]
 418              	.L49:
 419 0012 03       		.byte	(.L48-.L49)/2
 420 0013 07       		.byte	(.L50-.L49)/2
 421 0014 0B       		.byte	(.L51-.L49)/2
 422 0015 0F       		.byte	(.L52-.L49)/2
 423 0016 13       		.byte	(.L53-.L49)/2
 424 0017 00       		.p2align 1
 425              	.L48:
1070:.\sk_debug.c  ****         case '1':
1071:.\sk_debug.c  ****             sk_mt_speed=162;
 426              		.loc 1 1071 0
 427 0018 A222     		movs	r2, #162
 428 001a 1A4B     		ldr	r3, .L58+4
 429 001c 1A80     		strh	r2, [r3]	@ movhi
1072:.\sk_debug.c  ****             break;
 430              		.loc 1 1072 0
 431 001e 12E0     		b	.L54
 432              	.L50:
1073:.\sk_debug.c  ****         case '2':
1074:.\sk_debug.c  ****             sk_mt_speed=250;
 433              		.loc 1 1074 0
 434 0020 FA22     		movs	r2, #250
 435 0022 184B     		ldr	r3, .L58+4
 436 0024 1A80     		strh	r2, [r3]	@ movhi
1075:.\sk_debug.c  ****             break;
 437              		.loc 1 1075 0
 438 0026 0EE0     		b	.L54
 439              	.L51:
1076:.\sk_debug.c  ****         case '3':
1077:.\sk_debug.c  ****             sk_mt_speed=200;
 440              		.loc 1 1077 0
 441 0028 C822     		movs	r2, #200
 442 002a 164B     		ldr	r3, .L58+4
 443 002c 1A80     		strh	r2, [r3]	@ movhi
1078:.\sk_debug.c  ****             break;
 444              		.loc 1 1078 0
 445 002e 0AE0     		b	.L54
 446              	.L52:
1079:.\sk_debug.c  ****         case '4':
1080:.\sk_debug.c  ****             sk_mt_speed=100;
 447              		.loc 1 1080 0
 448 0030 6422     		movs	r2, #100
ARM GAS  C:\Users\nosak\AppData\Local\Temp\ccBt8IvS.s 			page 28


 449 0032 144B     		ldr	r3, .L58+4
 450 0034 1A80     		strh	r2, [r3]	@ movhi
1081:.\sk_debug.c  ****             break;
 451              		.loc 1 1081 0
 452 0036 06E0     		b	.L54
 453              	.L53:
1082:.\sk_debug.c  ****         case '5':
1083:.\sk_debug.c  ****             sk_mt_speed= 50;
 454              		.loc 1 1083 0
 455 0038 3222     		movs	r2, #50
 456 003a 124B     		ldr	r3, .L58+4
 457 003c 1A80     		strh	r2, [r3]	@ movhi
1084:.\sk_debug.c  ****             break;
 458              		.loc 1 1084 0
 459 003e 02E0     		b	.L54
 460              	.L47:
1085:.\sk_debug.c  ****         case '6':
1086:.\sk_debug.c  ****             
1087:.\sk_debug.c  ****         default:  
1088:.\sk_debug.c  ****             sk_mt_speed=162;
 461              		.loc 1 1088 0
 462 0040 A222     		movs	r2, #162
 463 0042 104B     		ldr	r3, .L58+4
 464 0044 1A80     		strh	r2, [r3]	@ movhi
 465              	.L54:
1089:.\sk_debug.c  ****             break;
1090:.\sk_debug.c  ****     }
1091:.\sk_debug.c  ****     
1092:.\sk_debug.c  ****     if( sk_log_flg4 & SK_LOG4_MOT_START   ){
 466              		.loc 1 1092 0
 467 0046 0E4B     		ldr	r3, .L58
 468 0048 5B78     		ldrb	r3, [r3, #1]	@ zero_extendqisi2
 469 004a 13F0100F 		tst	r3, #16
 470 004e 08D0     		beq	.L55
1093:.\sk_debug.c  ****         sk_log_flg4 &= ~SK_LOG4_MOT_START   ;
 471              		.loc 1 1093 0
 472 0050 23F01003 		bic	r3, r3, #16
 473 0054 0A4A     		ldr	r2, .L58
 474 0056 5370     		strb	r3, [r2, #1]
1094:.\sk_debug.c  ****         sk_PutString01("MT STOP", CRLF_ON);
 475              		.loc 1 1094 0
 476 0058 0B48     		ldr	r0, .L58+8
 477              	.LVL11:
 478 005a 0121     		movs	r1, #1
 479 005c FFF7FEFF 		bl	sk_PutString01
 480              	.LVL12:
 481 0060 0CE0     		b	.L56
 482              	.L55:
 483              	.LBB2:
1095:.\sk_debug.c  ****     }
1096:.\sk_debug.c  ****     else{
1097:.\sk_debug.c  ****         sk_log_flg4 |= SK_LOG4_MOT_START  ;
 484              		.loc 1 1097 0
 485 0062 074C     		ldr	r4, .L58
 486 0064 43F01003 		orr	r3, r3, #16
 487 0068 6370     		strb	r3, [r4, #1]
1098:.\sk_debug.c  ****         sk_PutString03("MT START = ",sk_mt_speed, CRLF_ON,10);
ARM GAS  C:\Users\nosak\AppData\Local\Temp\ccBt8IvS.s 			page 29


 488              		.loc 1 1098 0
 489 006a 0848     		ldr	r0, .L58+12
 490 006c 054B     		ldr	r3, .L58+4
 491 006e 1988     		ldrh	r1, [r3]
 492 0070 0122     		movs	r2, #1
 493 0072 0A23     		movs	r3, #10
 494 0074 FFF7FEFF 		bl	sk_PutString03
 495              	.LVL13:
1099:.\sk_debug.c  ****         sk_mt_start = 1;
 496              		.loc 1 1099 0
 497 0078 0123     		movs	r3, #1
 498 007a A370     		strb	r3, [r4, #2]
 499              	.L56:
 500              	.LBE2:
1100:.\sk_debug.c  ****     }  
1101:.\sk_debug.c  ****             
1102:.\sk_debug.c  ****             
1103:.\sk_debug.c  ****     
1104:.\sk_debug.c  ****     return rtn;
1105:.\sk_debug.c  **** }
 501              		.loc 1 1105 0
 502 007c 0020     		movs	r0, #0
 503 007e 10BD     		pop	{r4, pc}
 504              	.L59:
 505              		.align	2
 506              	.L58:
 507 0080 00000000 		.word	.LANCHOR1
 508 0084 00000000 		.word	sk_mt_speed
 509 0088 00000000 		.word	.LC0
 510 008c 08000000 		.word	.LC1
 511              		.cfi_endproc
 512              	.LFE78:
 513              		.size	Menu03, .-Menu03
 514              		.section	.text.Menu04,"ax",%progbits
 515              		.align	2
 516              		.global	Menu04
 517              		.thumb
 518              		.thumb_func
 519              		.type	Menu04, %function
 520              	Menu04:
 521              	.LFB79:
1106:.\sk_debug.c  **** 
1107:.\sk_debug.c  **** uint8 Menu04(l_ch)
1108:.\sk_debug.c  **** {
 522              		.loc 1 1108 0
 523              		.cfi_startproc
 524              		@ args = 0, pretend = 0, frame = 0
 525              		@ frame_needed = 0, uses_anonymous_args = 0
 526              		@ link register save eliminated.
 527              	.LVL14:
1109:.\sk_debug.c  ****     uint8 rtn = 0;
1110:.\sk_debug.c  ****     
1111:.\sk_debug.c  ****     switch(l_ch){
 528              		.loc 1 1111 0
 529 0000 3928     		cmp	r0, #57
 530 0002 04DC     		bgt	.L62
 531 0004 3028     		cmp	r0, #48
ARM GAS  C:\Users\nosak\AppData\Local\Temp\ccBt8IvS.s 			page 30


 532 0006 07DA     		bge	.L63
 533 0008 0D28     		cmp	r0, #13
 534 000a 0FD0     		beq	.L64
 535 000c 15E0     		b	.L61
 536              	.L62:
 537 000e 5228     		cmp	r0, #82
 538 0010 10D0     		beq	.L65
 539 0012 7228     		cmp	r0, #114
 540 0014 0ED0     		beq	.L65
 541 0016 10E0     		b	.L61
 542              	.L63:
1112:.\sk_debug.c  ****         case '1':
1113:.\sk_debug.c  ****         case '2':
1114:.\sk_debug.c  ****         case '3':
1115:.\sk_debug.c  ****         case '4':
1116:.\sk_debug.c  ****         case '5':
1117:.\sk_debug.c  ****         case '6':
1118:.\sk_debug.c  ****         case '7':
1119:.\sk_debug.c  ****         case '8':
1120:.\sk_debug.c  ****         case '9':
1121:.\sk_debug.c  ****         case '0':
1122:.\sk_debug.c  ****             sk_input_ofst *= 10;
 543              		.loc 1 1122 0
 544 0018 094A     		ldr	r2, .L66
 545 001a 9388     		ldrh	r3, [r2, #4]
 546 001c 03EB8303 		add	r3, r3, r3, lsl #2
 547 0020 5B00     		lsls	r3, r3, #1
 548 0022 9BB2     		uxth	r3, r3
1123:.\sk_debug.c  ****             sk_input_ofst += (l_ch - '0');
 549              		.loc 1 1123 0
 550 0024 1844     		add	r0, r0, r3
 551              	.LVL15:
 552 0026 3038     		subs	r0, r0, #48
 553 0028 9080     		strh	r0, [r2, #4]	@ movhi
1124:.\sk_debug.c  ****             break;
 554              		.loc 1 1124 0
 555 002a 06E0     		b	.L61
 556              	.LVL16:
 557              	.L64:
1125:.\sk_debug.c  ****         case 0x0d:
1126:.\sk_debug.c  ****             MenueNum = 5;
 558              		.loc 1 1126 0
 559 002c 0522     		movs	r2, #5
 560 002e 044B     		ldr	r3, .L66
 561 0030 1A70     		strb	r2, [r3]
1127:.\sk_debug.c  ****             break;
 562              		.loc 1 1127 0
 563 0032 02E0     		b	.L61
 564              	.L65:
1128:.\sk_debug.c  ****         case 'r':
1129:.\sk_debug.c  ****         case 'R':
1130:.\sk_debug.c  ****             MenueNum = 0;
 565              		.loc 1 1130 0
 566 0034 0022     		movs	r2, #0
 567 0036 024B     		ldr	r3, .L66
 568 0038 1A70     		strb	r2, [r3]
 569              	.LVL17:
ARM GAS  C:\Users\nosak\AppData\Local\Temp\ccBt8IvS.s 			page 31


 570              	.L61:
1131:.\sk_debug.c  ****             break;
1132:.\sk_debug.c  ****         
1133:.\sk_debug.c  ****         default:  
1134:.\sk_debug.c  ****            
1135:.\sk_debug.c  ****             break;
1136:.\sk_debug.c  ****     }
1137:.\sk_debug.c  ****     
1138:.\sk_debug.c  ****     
1139:.\sk_debug.c  ****     return rtn;
1140:.\sk_debug.c  **** }
 571              		.loc 1 1140 0
 572 003a 0020     		movs	r0, #0
 573 003c 7047     		bx	lr
 574              	.L67:
 575 003e 00BF     		.align	2
 576              	.L66:
 577 0040 00000000 		.word	.LANCHOR1
 578              		.cfi_endproc
 579              	.LFE79:
 580              		.size	Menu04, .-Menu04
 581              		.section	.text.Menu05,"ax",%progbits
 582              		.align	2
 583              		.global	Menu05
 584              		.thumb
 585              		.thumb_func
 586              		.type	Menu05, %function
 587              	Menu05:
 588              	.LFB80:
1141:.\sk_debug.c  **** uint8 Menu05(l_ch)
1142:.\sk_debug.c  **** {
 589              		.loc 1 1142 0
 590              		.cfi_startproc
 591              		@ args = 0, pretend = 0, frame = 0
 592              		@ frame_needed = 0, uses_anonymous_args = 0
 593              	.LVL18:
1143:.\sk_debug.c  ****     uint8 rtn = 0;
1144:.\sk_debug.c  ****     
1145:.\sk_debug.c  ****     switch(l_ch){
 594              		.loc 1 1145 0
 595 0000 5228     		cmp	r0, #82
 596 0002 31D0     		beq	.L70
 597 0004 04DC     		bgt	.L71
 598 0006 A0F13003 		sub	r3, r0, #48
 599 000a 092B     		cmp	r3, #9
 600 000c 06D9     		bls	.L75
 601 000e 03E0     		b	.L77
 602              	.L71:
 603 0010 7228     		cmp	r0, #114
 604 0012 29D0     		beq	.L70
 605 0014 7728     		cmp	r0, #119
 606 0016 0BD0     		beq	.L73
 607              	.LVL19:
 608              	.L77:
1146:.\sk_debug.c  ****         case '1':
1147:.\sk_debug.c  ****         case '2':
1148:.\sk_debug.c  ****         case '3':
ARM GAS  C:\Users\nosak\AppData\Local\Temp\ccBt8IvS.s 			page 32


1149:.\sk_debug.c  ****         case '4':
1150:.\sk_debug.c  ****         case '5':
1151:.\sk_debug.c  ****         case '6':
1152:.\sk_debug.c  ****         case '7':
1153:.\sk_debug.c  ****         case '8':
1154:.\sk_debug.c  ****         case '9':
1155:.\sk_debug.c  ****         case '0':
1156:.\sk_debug.c  ****   
1157:.\sk_debug.c  ****             sk_input_data *= 10;
1158:.\sk_debug.c  ****             sk_input_data += (l_ch - '0');
1159:.\sk_debug.c  ****             break;
1160:.\sk_debug.c  ****         case 0x0d:
1161:.\sk_debug.c  ****             //MenueNum = 0;
1162:.\sk_debug.c  ****             break;
1163:.\sk_debug.c  ****         case 'w' :
1164:.\sk_debug.c  ****             
1165:.\sk_debug.c  ****             if( sk_log_flg5 & SK_LOG5_OUTPUT_P   ){
1166:.\sk_debug.c  ****                 sk_log_flg5 &= ~SK_LOG5_OUTPUT_P   ;
1167:.\sk_debug.c  ****                 sk_PutString01("OUTPUT_OFF", CRLF_ON);
1168:.\sk_debug.c  ****             }
1169:.\sk_debug.c  ****             else{
1170:.\sk_debug.c  ****                 sk_log_flg5 |= SK_LOG5_OUTPUT_P  ;
1171:.\sk_debug.c  ****                 sk_PutString03("OUTPUT_ON= ",sk_log_flg4, CRLF_ON,16);
1172:.\sk_debug.c  ****                 ck_mtrlog_cnt = 0;
1173:.\sk_debug.c  ****             }        
1174:.\sk_debug.c  ****             break;
1175:.\sk_debug.c  ****         case 'r':
1176:.\sk_debug.c  ****         case 'R':
1177:.\sk_debug.c  ****             MenueNum = 0;
1178:.\sk_debug.c  ****             break;
1179:.\sk_debug.c  ****         
1180:.\sk_debug.c  ****         default:  
1181:.\sk_debug.c  ****            
1182:.\sk_debug.c  ****             break;
1183:.\sk_debug.c  ****     }
1184:.\sk_debug.c  ****     
1185:.\sk_debug.c  ****     
1186:.\sk_debug.c  ****     return rtn;
1187:.\sk_debug.c  **** }
 609              		.loc 1 1187 0
 610 0018 0020     		movs	r0, #0
 611 001a 7047     		bx	lr
 612              	.LVL20:
 613              	.L75:
1157:.\sk_debug.c  ****             sk_input_data += (l_ch - '0');
 614              		.loc 1 1157 0
 615 001c 154A     		ldr	r2, .L78
 616 001e D388     		ldrh	r3, [r2, #6]
 617 0020 03EB8303 		add	r3, r3, r3, lsl #2
 618 0024 5B00     		lsls	r3, r3, #1
 619 0026 9BB2     		uxth	r3, r3
1158:.\sk_debug.c  ****             break;
 620              		.loc 1 1158 0
 621 0028 1844     		add	r0, r0, r3
 622              	.LVL21:
 623 002a 3038     		subs	r0, r0, #48
 624 002c D080     		strh	r0, [r2, #6]	@ movhi
ARM GAS  C:\Users\nosak\AppData\Local\Temp\ccBt8IvS.s 			page 33


1159:.\sk_debug.c  ****         case 0x0d:
 625              		.loc 1 1159 0
 626 002e F3E7     		b	.L77
 627              	.LVL22:
 628              	.L73:
1142:.\sk_debug.c  ****     uint8 rtn = 0;
 629              		.loc 1 1142 0
 630 0030 10B5     		push	{r4, lr}
 631              		.cfi_def_cfa_offset 8
 632              		.cfi_offset 4, -8
 633              		.cfi_offset 14, -4
1165:.\sk_debug.c  ****                 sk_log_flg5 &= ~SK_LOG5_OUTPUT_P   ;
 634              		.loc 1 1165 0
 635 0032 104B     		ldr	r3, .L78
 636 0034 1B7A     		ldrb	r3, [r3, #8]	@ zero_extendqisi2
 637 0036 13F0040F 		tst	r3, #4
 638 003a 08D0     		beq	.L74
1166:.\sk_debug.c  ****                 sk_PutString01("OUTPUT_OFF", CRLF_ON);
 639              		.loc 1 1166 0
 640 003c 23F00403 		bic	r3, r3, #4
 641 0040 0C4A     		ldr	r2, .L78
 642 0042 1372     		strb	r3, [r2, #8]
1167:.\sk_debug.c  ****             }
 643              		.loc 1 1167 0
 644 0044 0C48     		ldr	r0, .L78+4
 645              	.LVL23:
 646 0046 0121     		movs	r1, #1
 647 0048 FFF7FEFF 		bl	sk_PutString01
 648              	.LVL24:
 649 004c 10E0     		b	.L69
 650              	.LVL25:
 651              	.L74:
 652              	.LBB3:
1170:.\sk_debug.c  ****                 sk_PutString03("OUTPUT_ON= ",sk_log_flg4, CRLF_ON,16);
 653              		.loc 1 1170 0
 654 004e 094C     		ldr	r4, .L78
 655 0050 43F00403 		orr	r3, r3, #4
 656 0054 2372     		strb	r3, [r4, #8]
1171:.\sk_debug.c  ****                 ck_mtrlog_cnt = 0;
 657              		.loc 1 1171 0
 658 0056 0948     		ldr	r0, .L78+8
 659              	.LVL26:
 660 0058 6178     		ldrb	r1, [r4, #1]	@ zero_extendqisi2
 661 005a 0122     		movs	r2, #1
 662 005c 1023     		movs	r3, #16
 663 005e FFF7FEFF 		bl	sk_PutString03
 664              	.LVL27:
1172:.\sk_debug.c  ****             }        
 665              		.loc 1 1172 0
 666 0062 0023     		movs	r3, #0
 667 0064 6381     		strh	r3, [r4, #10]	@ movhi
 668 0066 03E0     		b	.L69
 669              	.LVL28:
 670              	.L70:
 671              		.cfi_def_cfa_offset 0
 672              		.cfi_restore 4
 673              		.cfi_restore 14
ARM GAS  C:\Users\nosak\AppData\Local\Temp\ccBt8IvS.s 			page 34


 674              	.LBE3:
1177:.\sk_debug.c  ****             break;
 675              		.loc 1 1177 0
 676 0068 0022     		movs	r2, #0
 677 006a 024B     		ldr	r3, .L78
 678 006c 1A70     		strb	r2, [r3]
1178:.\sk_debug.c  ****         
 679              		.loc 1 1178 0
 680 006e D3E7     		b	.L77
 681              	.LVL29:
 682              	.L69:
 683              		.cfi_def_cfa_offset 8
 684              		.cfi_offset 4, -8
 685              		.cfi_offset 14, -4
 686              		.loc 1 1187 0
 687 0070 0020     		movs	r0, #0
 688 0072 10BD     		pop	{r4, pc}
 689              	.L79:
 690              		.align	2
 691              	.L78:
 692 0074 00000000 		.word	.LANCHOR1
 693 0078 14000000 		.word	.LC2
 694 007c 20000000 		.word	.LC3
 695              		.cfi_endproc
 696              	.LFE80:
 697              		.size	Menu05, .-Menu05
 698              		.section	.text.SKOutput_param_Disp,"ax",%progbits
 699              		.align	2
 700              		.global	SKOutput_param_Disp
 701              		.thumb
 702              		.thumb_func
 703              		.type	SKOutput_param_Disp, %function
 704              	SKOutput_param_Disp:
 705              	.LFB81:
1188:.\sk_debug.c  **** 
1189:.\sk_debug.c  **** //***************************************************************************
1190:.\sk_debug.c  **** //
1191:.\sk_debug.c  **** //
1192:.\sk_debug.c  **** //***************************************************************************
1193:.\sk_debug.c  **** void SKOutput_param_Disp(void)
1194:.\sk_debug.c  **** {
 706              		.loc 1 1194 0
 707              		.cfi_startproc
 708              		@ args = 0, pretend = 0, frame = 0
 709              		@ frame_needed = 0, uses_anonymous_args = 0
 710 0000 38B5     		push	{r3, r4, r5, lr}
 711              		.cfi_def_cfa_offset 16
 712              		.cfi_offset 3, -16
 713              		.cfi_offset 4, -12
 714              		.cfi_offset 5, -8
 715              		.cfi_offset 14, -4
 716              	.LVL30:
1195:.\sk_debug.c  ****     uint8 i;
1196:.\sk_debug.c  ****     uint8 dt;
1197:.\sk_debug.c  ****     
1198:.\sk_debug.c  ****     for( i=0; i<145; i++ ){
 717              		.loc 1 1198 0
ARM GAS  C:\Users\nosak\AppData\Local\Temp\ccBt8IvS.s 			page 35


 718 0002 0024     		movs	r4, #0
 719 0004 50E0     		b	.L81
 720              	.LVL31:
 721              	.L94:
 722              	.LBB4:
1199:.\sk_debug.c  ****         if( i < 59 ){
 723              		.loc 1 1199 0
 724 0006 3A2C     		cmp	r4, #58
 725 0008 02D8     		bhi	.L82
1200:.\sk_debug.c  ****             dt = outbuff1[i];
 726              		.loc 1 1200 0
 727 000a 384B     		ldr	r3, .L98
 728 000c 1D5D     		ldrb	r5, [r3, r4]	@ zero_extendqisi2
 729              	.LVL32:
 730 000e 0AE0     		b	.L83
 731              	.LVL33:
 732              	.L82:
1201:.\sk_debug.c  ****         }
1202:.\sk_debug.c  ****         else if( i < 115 ){
 733              		.loc 1 1202 0
 734 0010 722C     		cmp	r4, #114
 735 0012 04D8     		bhi	.L84
1203:.\sk_debug.c  ****             dt = outbuff2[i-59];
 736              		.loc 1 1203 0
 737 0014 A4F13B03 		sub	r3, r4, #59
 738 0018 354A     		ldr	r2, .L98+4
 739 001a D55C     		ldrb	r5, [r2, r3]	@ zero_extendqisi2
 740              	.LVL34:
 741 001c 03E0     		b	.L83
 742              	.LVL35:
 743              	.L84:
1204:.\sk_debug.c  ****         }
1205:.\sk_debug.c  ****         else{
1206:.\sk_debug.c  ****             dt = outbuff3[i-115];
 744              		.loc 1 1206 0
 745 001e A4F17303 		sub	r3, r4, #115
 746 0022 344A     		ldr	r2, .L98+8
 747 0024 D55C     		ldrb	r5, [r2, r3]	@ zero_extendqisi2
 748              	.LVL36:
 749              	.L83:
1207:.\sk_debug.c  ****         }
1208:.\sk_debug.c  ****      
1209:.\sk_debug.c  ****         sk_PutString03(" output[",i,CRLF_NONE,10);
 750              		.loc 1 1209 0
 751 0026 3448     		ldr	r0, .L98+12
 752 0028 2146     		mov	r1, r4
 753 002a 0022     		movs	r2, #0
 754 002c 0A23     		movs	r3, #10
 755 002e FFF7FEFF 		bl	sk_PutString03
 756              	.LVL37:
1210:.\sk_debug.c  ****         sk_PutString03("] = ",dt,CRLF_NONE,10);
 757              		.loc 1 1210 0
 758 0032 3248     		ldr	r0, .L98+16
 759 0034 2946     		mov	r1, r5
 760 0036 0022     		movs	r2, #0
 761 0038 0A23     		movs	r3, #10
 762 003a FFF7FEFF 		bl	sk_PutString03
ARM GAS  C:\Users\nosak\AppData\Local\Temp\ccBt8IvS.s 			page 36


 763              	.LVL38:
1211:.\sk_debug.c  ****         sk_PutString03(" ( 0x",dt,CRLF_NONE,16);
 764              		.loc 1 1211 0
 765 003e 3048     		ldr	r0, .L98+20
 766 0040 2946     		mov	r1, r5
 767 0042 0022     		movs	r2, #0
 768 0044 1023     		movs	r3, #16
 769 0046 FFF7FEFF 		bl	sk_PutString03
 770              	.LVL39:
1212:.\sk_debug.c  ****         
1213:.\sk_debug.c  ****         switch(i){
 771              		.loc 1 1213 0
 772 004a A4F18703 		sub	r3, r4, #135
 773 004e 082B     		cmp	r3, #8
 774 0050 24D8     		bhi	.L85
 775 0052 DFE803F0 		tbb	[pc, r3]
 776              	.L87:
 777 0056 05       		.byte	(.L86-.L87)/2
 778 0057 0A       		.byte	(.L88-.L87)/2
 779 0058 0F       		.byte	(.L89-.L87)/2
 780 0059 14       		.byte	(.L90-.L87)/2
 781 005a 19       		.byte	(.L91-.L87)/2
 782 005b 23       		.byte	(.L85-.L87)/2
 783 005c 23       		.byte	(.L85-.L87)/2
 784 005d 23       		.byte	(.L85-.L87)/2
 785 005e 1E       		.byte	(.L92-.L87)/2
 786 005f 00       		.p2align 1
 787              	.L86:
1214:.\sk_debug.c  ****         case 135:
1215:.\sk_debug.c  ****             
1216:.\sk_debug.c  ****             sk_PutString01(" )  DIST0(front）",CRLF_ON);
 788              		.loc 1 1216 0
 789 0060 2848     		ldr	r0, .L98+24
 790 0062 0121     		movs	r1, #1
 791 0064 FFF7FEFF 		bl	sk_PutString01
 792              	.LVL40:
1217:.\sk_debug.c  **** 
1218:.\sk_debug.c  ****             break;
 793              		.loc 1 1218 0
 794 0068 1CE0     		b	.L93
 795              	.L88:
1219:.\sk_debug.c  ****         case 136:
1220:.\sk_debug.c  ****             sk_PutString01(" )  DIST1（Right)",CRLF_ON);
 796              		.loc 1 1220 0
 797 006a 2748     		ldr	r0, .L98+28
 798 006c 0121     		movs	r1, #1
 799 006e FFF7FEFF 		bl	sk_PutString01
 800              	.LVL41:
1221:.\sk_debug.c  ****             break;
 801              		.loc 1 1221 0
 802 0072 17E0     		b	.L93
 803              	.L89:
1222:.\sk_debug.c  ****         case 137:
1223:.\sk_debug.c  ****             sk_PutString01(" )  DIST2（Rear))",CRLF_ON);
 804              		.loc 1 1223 0
 805 0074 2548     		ldr	r0, .L98+32
 806 0076 0121     		movs	r1, #1
ARM GAS  C:\Users\nosak\AppData\Local\Temp\ccBt8IvS.s 			page 37


 807 0078 FFF7FEFF 		bl	sk_PutString01
 808              	.LVL42:
1224:.\sk_debug.c  **** 
1225:.\sk_debug.c  ****             break;
 809              		.loc 1 1225 0
 810 007c 12E0     		b	.L93
 811              	.L90:
1226:.\sk_debug.c  ****         case 138:
1227:.\sk_debug.c  ****             sk_PutString01(" )  DIST3（Left))",CRLF_ON);
 812              		.loc 1 1227 0
 813 007e 2448     		ldr	r0, .L98+36
 814 0080 0121     		movs	r1, #1
 815 0082 FFF7FEFF 		bl	sk_PutString01
 816              	.LVL43:
1228:.\sk_debug.c  **** 
1229:.\sk_debug.c  ****             break;
 817              		.loc 1 1229 0
 818 0086 0DE0     		b	.L93
 819              	.L91:
1230:.\sk_debug.c  ****             
1231:.\sk_debug.c  ****         case 139:
1232:.\sk_debug.c  ****             sk_PutString01(" )  DIST_STEP)",CRLF_ON);
 820              		.loc 1 1232 0
 821 0088 2248     		ldr	r0, .L98+40
 822 008a 0121     		movs	r1, #1
 823 008c FFF7FEFF 		bl	sk_PutString01
 824              	.LVL44:
1233:.\sk_debug.c  ****             break;
 825              		.loc 1 1233 0
 826 0090 08E0     		b	.L93
 827              	.L92:
1234:.\sk_debug.c  ****                         
1235:.\sk_debug.c  ****         case 143:
1236:.\sk_debug.c  ****             sk_PutString01(" )  BMP_SW)",CRLF_ON);
 828              		.loc 1 1236 0
 829 0092 2148     		ldr	r0, .L98+44
 830 0094 0121     		movs	r1, #1
 831 0096 FFF7FEFF 		bl	sk_PutString01
 832              	.LVL45:
1237:.\sk_debug.c  ****             break;
 833              		.loc 1 1237 0
 834 009a 03E0     		b	.L93
 835              	.L85:
1238:.\sk_debug.c  ****         default:
1239:.\sk_debug.c  ****             sk_PutString01(" )",CRLF_ON);
 836              		.loc 1 1239 0
 837 009c 1F48     		ldr	r0, .L98+48
 838 009e 0121     		movs	r1, #1
 839 00a0 FFF7FEFF 		bl	sk_PutString01
 840              	.LVL46:
 841              	.L93:
 842              	.LBE4:
1198:.\sk_debug.c  ****         if( i < 59 ){
 843              		.loc 1 1198 0 discriminator 2
 844 00a4 0134     		adds	r4, r4, #1
 845              	.LVL47:
 846 00a6 E4B2     		uxtb	r4, r4
ARM GAS  C:\Users\nosak\AppData\Local\Temp\ccBt8IvS.s 			page 38


 847              	.LVL48:
 848              	.L81:
1198:.\sk_debug.c  ****         if( i < 59 ){
 849              		.loc 1 1198 0 is_stmt 0 discriminator 1
 850 00a8 902C     		cmp	r4, #144
 851 00aa ACD9     		bls	.L94
 852 00ac 0024     		movs	r4, #0
 853              	.LVL49:
 854 00ae 19E0     		b	.L95
 855              	.LVL50:
 856              	.L96:
 857              	.LBB5:
1240:.\sk_debug.c  ****             break;
1241:.\sk_debug.c  ****         }
1242:.\sk_debug.c  ****         
1243:.\sk_debug.c  ****     }
1244:.\sk_debug.c  ****     
1245:.\sk_debug.c  ****     
1246:.\sk_debug.c  ****     for( i=0; i<OUT2TAG_LENGTH; i++ ){
1247:.\sk_debug.c  ****         dt = output2_tag[i];
 858              		.loc 1 1247 0 is_stmt 1 discriminator 3
 859 00b0 1B4B     		ldr	r3, .L98+52
 860 00b2 1D5D     		ldrb	r5, [r3, r4]	@ zero_extendqisi2
 861              	.LVL51:
1248:.\sk_debug.c  ****         sk_PutString03(" output2_tag[",i,CRLF_NONE,10);
 862              		.loc 1 1248 0 discriminator 3
 863 00b4 1B48     		ldr	r0, .L98+56
 864 00b6 2146     		mov	r1, r4
 865 00b8 0022     		movs	r2, #0
 866 00ba 0A23     		movs	r3, #10
 867 00bc FFF7FEFF 		bl	sk_PutString03
 868              	.LVL52:
1249:.\sk_debug.c  ****         sk_PutString03("] = ",dt,CRLF_NONE,10);
 869              		.loc 1 1249 0 discriminator 3
 870 00c0 0E48     		ldr	r0, .L98+16
 871 00c2 2946     		mov	r1, r5
 872 00c4 0022     		movs	r2, #0
 873 00c6 0A23     		movs	r3, #10
 874 00c8 FFF7FEFF 		bl	sk_PutString03
 875              	.LVL53:
1250:.\sk_debug.c  ****         sk_PutString03(" ( 0x",dt,CRLF_NONE,16);
 876              		.loc 1 1250 0 discriminator 3
 877 00cc 0C48     		ldr	r0, .L98+20
 878 00ce 2946     		mov	r1, r5
 879 00d0 0022     		movs	r2, #0
 880 00d2 1023     		movs	r3, #16
 881 00d4 FFF7FEFF 		bl	sk_PutString03
 882              	.LVL54:
1251:.\sk_debug.c  ****         sk_PutString01(" )",CRLF_ON);
 883              		.loc 1 1251 0 discriminator 3
 884 00d8 1048     		ldr	r0, .L98+48
 885 00da 0121     		movs	r1, #1
 886 00dc FFF7FEFF 		bl	sk_PutString01
 887              	.LVL55:
 888              	.LBE5:
1246:.\sk_debug.c  ****         dt = output2_tag[i];
 889              		.loc 1 1246 0 discriminator 3
ARM GAS  C:\Users\nosak\AppData\Local\Temp\ccBt8IvS.s 			page 39


 890 00e0 0134     		adds	r4, r4, #1
 891              	.LVL56:
 892 00e2 E4B2     		uxtb	r4, r4
 893              	.LVL57:
 894              	.L95:
1246:.\sk_debug.c  ****         dt = output2_tag[i];
 895              		.loc 1 1246 0 is_stmt 0 discriminator 1
 896 00e4 202C     		cmp	r4, #32
 897 00e6 E3D9     		bls	.L96
1252:.\sk_debug.c  ****     }    
1253:.\sk_debug.c  ****    
1254:.\sk_debug.c  **** }
 898              		.loc 1 1254 0 is_stmt 1
 899 00e8 38BD     		pop	{r3, r4, r5, pc}
 900              	.LVL58:
 901              	.L99:
 902 00ea 00BF     		.align	2
 903              	.L98:
 904 00ec 00000000 		.word	outbuff1
 905 00f0 00000000 		.word	outbuff2
 906 00f4 00000000 		.word	outbuff3
 907 00f8 2C000000 		.word	.LC4
 908 00fc 38000000 		.word	.LC5
 909 0100 40000000 		.word	.LC6
 910 0104 48000000 		.word	.LC7
 911 0108 5C000000 		.word	.LC8
 912 010c 70000000 		.word	.LC9
 913 0110 84000000 		.word	.LC10
 914 0114 98000000 		.word	.LC11
 915 0118 A8000000 		.word	.LC12
 916 011c B4000000 		.word	.LC13
 917 0120 00000000 		.word	output2_tag
 918 0124 B8000000 		.word	.LC14
 919              		.cfi_endproc
 920              	.LFE81:
 921              		.size	SKOutput_param_Disp, .-SKOutput_param_Disp
 922              		.section	.text.Display_parameter,"ax",%progbits
 923              		.align	2
 924              		.global	Display_parameter
 925              		.thumb
 926              		.thumb_func
 927              		.type	Display_parameter, %function
 928              	Display_parameter:
 929              	.LFB82:
1255:.\sk_debug.c  **** 
1256:.\sk_debug.c  **** 
1257:.\sk_debug.c  **** //***************************************************************************
1258:.\sk_debug.c  **** //
1259:.\sk_debug.c  **** //
1260:.\sk_debug.c  **** //***************************************************************************
1261:.\sk_debug.c  **** void Display_parameter(void)
1262:.\sk_debug.c  **** {
 930              		.loc 1 1262 0
 931              		.cfi_startproc
 932              		@ args = 0, pretend = 0, frame = 0
 933              		@ frame_needed = 0, uses_anonymous_args = 0
 934 0000 10B5     		push	{r4, lr}
ARM GAS  C:\Users\nosak\AppData\Local\Temp\ccBt8IvS.s 			page 40


 935              		.cfi_def_cfa_offset 8
 936              		.cfi_offset 4, -8
 937              		.cfi_offset 14, -4
1263:.\sk_debug.c  ****     sk_PutString01("",CRLF_ON);
 938              		.loc 1 1263 0
 939 0002 B54C     		ldr	r4, .L102
 940 0004 2046     		mov	r0, r4
 941 0006 0121     		movs	r1, #1
 942 0008 FFF7FEFF 		bl	sk_PutString01
 943              	.LVL59:
1264:.\sk_debug.c  **** 
1265:.\sk_debug.c  **** 
1266:.\sk_debug.c  ****     sk_PutString01("***** uint16 *****",CRLF_ON);
 944              		.loc 1 1266 0
 945 000c B348     		ldr	r0, .L102+4
 946 000e 0121     		movs	r1, #1
 947 0010 FFF7FEFF 		bl	sk_PutString01
 948              	.LVL60:
1267:.\sk_debug.c  ****     sk_PutString04("dist_front = ",dist_front ,CRLF_ON );
 949              		.loc 1 1267 0
 950 0014 B248     		ldr	r0, .L102+8
 951 0016 B34B     		ldr	r3, .L102+12
 952 0018 1988     		ldrh	r1, [r3]
 953 001a 0122     		movs	r2, #1
 954 001c FFF7FEFF 		bl	sk_PutString04
 955              	.LVL61:
1268:.\sk_debug.c  ****     sk_PutString04("dist_rear = ",dist_rear ,CRLF_ON );
 956              		.loc 1 1268 0
 957 0020 B148     		ldr	r0, .L102+16
 958 0022 B24B     		ldr	r3, .L102+20
 959 0024 1988     		ldrh	r1, [r3]
 960 0026 0122     		movs	r2, #1
 961 0028 FFF7FEFF 		bl	sk_PutString04
 962              	.LVL62:
1269:.\sk_debug.c  ****     sk_PutString04("dist_fr = ",dist_fr ,CRLF_ON );
 963              		.loc 1 1269 0
 964 002c B048     		ldr	r0, .L102+24
 965 002e B14B     		ldr	r3, .L102+28
 966 0030 1988     		ldrh	r1, [r3]
 967 0032 0122     		movs	r2, #1
 968 0034 FFF7FEFF 		bl	sk_PutString04
 969              	.LVL63:
1270:.\sk_debug.c  ****     sk_PutString04("dist_fl = ",dist_fl ,CRLF_ON );
 970              		.loc 1 1270 0
 971 0038 AF48     		ldr	r0, .L102+32
 972 003a B04B     		ldr	r3, .L102+36
 973 003c 1988     		ldrh	r1, [r3]
 974 003e 0122     		movs	r2, #1
 975 0040 FFF7FEFF 		bl	sk_PutString04
 976              	.LVL64:
1271:.\sk_debug.c  ****     sk_PutString04("dist_st = ",dist_st ,CRLF_ON );
 977              		.loc 1 1271 0
 978 0044 AE48     		ldr	r0, .L102+40
 979 0046 AF4B     		ldr	r3, .L102+44
 980 0048 1988     		ldrh	r1, [r3]
 981 004a 0122     		movs	r2, #1
 982 004c FFF7FEFF 		bl	sk_PutString04
ARM GAS  C:\Users\nosak\AppData\Local\Temp\ccBt8IvS.s 			page 41


 983              	.LVL65:
1272:.\sk_debug.c  ****     sk_PutString04("v_bat_16 = ",v_bat_16 ,CRLF_ON );
 984              		.loc 1 1272 0
 985 0050 AD48     		ldr	r0, .L102+48
 986 0052 AE4B     		ldr	r3, .L102+52
 987 0054 1988     		ldrh	r1, [r3]
 988 0056 0122     		movs	r2, #1
 989 0058 FFF7FEFF 		bl	sk_PutString04
 990              	.LVL66:
1273:.\sk_debug.c  ****     sk_PutString04("pvm1_16 = ",pvm1_16 ,CRLF_ON );
 991              		.loc 1 1273 0
 992 005c AC48     		ldr	r0, .L102+56
 993 005e AD4B     		ldr	r3, .L102+60
 994 0060 1988     		ldrh	r1, [r3]
 995 0062 0122     		movs	r2, #1
 996 0064 FFF7FEFF 		bl	sk_PutString04
 997              	.LVL67:
1274:.\sk_debug.c  ****     sk_PutString04("pvm2_16 = ",pvm2_16 ,CRLF_ON );
 998              		.loc 1 1274 0
 999 0068 AB48     		ldr	r0, .L102+64
 1000 006a AC4B     		ldr	r3, .L102+68
 1001 006c 1988     		ldrh	r1, [r3]
 1002 006e 0122     		movs	r2, #1
 1003 0070 FFF7FEFF 		bl	sk_PutString04
 1004              	.LVL68:
1275:.\sk_debug.c  ****     sk_PutString04("max_spd_chg = ",max_spd_chg ,CRLF_ON );
 1005              		.loc 1 1275 0
 1006 0074 AA48     		ldr	r0, .L102+72
 1007 0076 AB4B     		ldr	r3, .L102+76
 1008 0078 B3F90010 		ldrsh	r1, [r3]
 1009 007c 0122     		movs	r2, #1
 1010 007e FFF7FEFF 		bl	sk_PutString04
 1011              	.LVL69:
1276:.\sk_debug.c  ****     sk_PutString04("max_rpm = ",max_rpm ,CRLF_ON );
 1012              		.loc 1 1276 0
 1013 0082 A948     		ldr	r0, .L102+80
 1014 0084 A94B     		ldr	r3, .L102+84
 1015 0086 1988     		ldrh	r1, [r3]
 1016 0088 0122     		movs	r2, #1
 1017 008a FFF7FEFF 		bl	sk_PutString04
 1018              	.LVL70:
1277:.\sk_debug.c  ****     sk_PutString04("gear_motor = ",gear_motor ,CRLF_ON );
 1019              		.loc 1 1277 0
 1020 008e A848     		ldr	r0, .L102+88
 1021 0090 A84B     		ldr	r3, .L102+92
 1022 0092 1988     		ldrh	r1, [r3]
 1023 0094 0122     		movs	r2, #1
 1024 0096 FFF7FEFF 		bl	sk_PutString04
 1025              	.LVL71:
1278:.\sk_debug.c  ****     sk_PutString04("samp_rate = ",samp_rate ,CRLF_ON );
 1026              		.loc 1 1278 0
 1027 009a A748     		ldr	r0, .L102+96
 1028 009c A74B     		ldr	r3, .L102+100
 1029 009e 1988     		ldrh	r1, [r3]
 1030 00a0 0122     		movs	r2, #1
 1031 00a2 FFF7FEFF 		bl	sk_PutString04
 1032              	.LVL72:
ARM GAS  C:\Users\nosak\AppData\Local\Temp\ccBt8IvS.s 			page 42


1279:.\sk_debug.c  ****     sk_PutString04("enc_count = ",enc_count ,CRLF_ON );
 1033              		.loc 1 1279 0
 1034 00a6 A648     		ldr	r0, .L102+104
 1035 00a8 A64B     		ldr	r3, .L102+108
 1036 00aa 1988     		ldrh	r1, [r3]
 1037 00ac 0122     		movs	r2, #1
 1038 00ae FFF7FEFF 		bl	sk_PutString04
 1039              	.LVL73:
1280:.\sk_debug.c  ****     sk_PutString04("enc_malti = ",enc_malti ,CRLF_ON );
 1040              		.loc 1 1280 0
 1041 00b2 A548     		ldr	r0, .L102+112
 1042 00b4 A54B     		ldr	r3, .L102+116
 1043 00b6 1988     		ldrh	r1, [r3]
 1044 00b8 0122     		movs	r2, #1
 1045 00ba FFF7FEFF 		bl	sk_PutString04
 1046              	.LVL74:
1281:.\sk_debug.c  ****     sk_PutString04("dim_wheel_i16 = ",dim_wheel_i16 ,CRLF_ON );
 1047              		.loc 1 1281 0
 1048 00be A448     		ldr	r0, .L102+120
 1049 00c0 A44B     		ldr	r3, .L102+124
 1050 00c2 1988     		ldrh	r1, [r3]
 1051 00c4 0122     		movs	r2, #1
 1052 00c6 FFF7FEFF 		bl	sk_PutString04
 1053              	.LVL75:
1282:.\sk_debug.c  ****     sk_PutString04("dist_wheel_i16 = ",dist_wheel_i16 ,CRLF_ON );
 1054              		.loc 1 1282 0
 1055 00ca A348     		ldr	r0, .L102+128
 1056 00cc A34B     		ldr	r3, .L102+132
 1057 00ce 1988     		ldrh	r1, [r3]
 1058 00d0 0122     		movs	r2, #1
 1059 00d2 FFF7FEFF 		bl	sk_PutString04
 1060              	.LVL76:
1283:.\sk_debug.c  ****     sk_PutString04("toruque_const_i16 = ",toruque_const_i16 ,CRLF_ON );
 1061              		.loc 1 1283 0
 1062 00d6 A248     		ldr	r0, .L102+136
 1063 00d8 A24B     		ldr	r3, .L102+140
 1064 00da 1988     		ldrh	r1, [r3]
 1065 00dc 0122     		movs	r2, #1
 1066 00de FFF7FEFF 		bl	sk_PutString04
 1067              	.LVL77:
1284:.\sk_debug.c  ****     sk_PutString04("speed_const_i16 = ",speed_const_i16 ,CRLF_ON );
 1068              		.loc 1 1284 0
 1069 00e2 A148     		ldr	r0, .L102+144
 1070 00e4 A14B     		ldr	r3, .L102+148
 1071 00e6 1988     		ldrh	r1, [r3]
 1072 00e8 0122     		movs	r2, #1
 1073 00ea FFF7FEFF 		bl	sk_PutString04
 1074              	.LVL78:
1285:.\sk_debug.c  ****     sk_PutString04("spd_torq_grad_i16 = ",spd_torq_grad_i16 ,CRLF_ON );
 1075              		.loc 1 1285 0
 1076 00ee A048     		ldr	r0, .L102+152
 1077 00f0 A04B     		ldr	r3, .L102+156
 1078 00f2 1988     		ldrh	r1, [r3]
 1079 00f4 0122     		movs	r2, #1
 1080 00f6 FFF7FEFF 		bl	sk_PutString04
 1081              	.LVL79:
1286:.\sk_debug.c  ****     sk_PutString04("acc_limit_f_i16 = ",acc_limit_f_i16 ,CRLF_ON );
ARM GAS  C:\Users\nosak\AppData\Local\Temp\ccBt8IvS.s 			page 43


 1082              		.loc 1 1286 0
 1083 00fa 9F48     		ldr	r0, .L102+160
 1084 00fc 9F4B     		ldr	r3, .L102+164
 1085 00fe B3F90010 		ldrsh	r1, [r3]
 1086 0102 0122     		movs	r2, #1
 1087 0104 FFF7FEFF 		bl	sk_PutString04
 1088              	.LVL80:
1287:.\sk_debug.c  ****     sk_PutString04("acc_limit_r_i16 = ",acc_limit_r_i16 ,CRLF_ON );
 1089              		.loc 1 1287 0
 1090 0108 9D48     		ldr	r0, .L102+168
 1091 010a 9E4B     		ldr	r3, .L102+172
 1092 010c B3F90010 		ldrsh	r1, [r3]
 1093 0110 0122     		movs	r2, #1
 1094 0112 FFF7FEFF 		bl	sk_PutString04
 1095              	.LVL81:
1288:.\sk_debug.c  ****     sk_PutString04("acc_limit_s_i16 = ",acc_limit_s_i16 ,CRLF_ON );
 1096              		.loc 1 1288 0
 1097 0116 9C48     		ldr	r0, .L102+176
 1098 0118 9C4B     		ldr	r3, .L102+180
 1099 011a B3F90010 		ldrsh	r1, [r3]
 1100 011e 0122     		movs	r2, #1
 1101 0120 FFF7FEFF 		bl	sk_PutString04
 1102              	.LVL82:
1289:.\sk_debug.c  ****     sk_PutString04("safty_const_i16 = ",safty_const_i16 ,CRLF_ON );
 1103              		.loc 1 1289 0
 1104 0124 9A48     		ldr	r0, .L102+184
 1105 0126 9B4B     		ldr	r3, .L102+188
 1106 0128 B3F90010 		ldrsh	r1, [r3]
 1107 012c 0122     		movs	r2, #1
 1108 012e FFF7FEFF 		bl	sk_PutString04
 1109              	.LVL83:
1290:.\sk_debug.c  ****     sk_PutString04("kvp_i16 = ",kvp_i16 ,CRLF_ON );
 1110              		.loc 1 1290 0
 1111 0132 9948     		ldr	r0, .L102+192
 1112 0134 994B     		ldr	r3, .L102+196
 1113 0136 B3F90010 		ldrsh	r1, [r3]
 1114 013a 0122     		movs	r2, #1
 1115 013c FFF7FEFF 		bl	sk_PutString04
 1116              	.LVL84:
1291:.\sk_debug.c  ****     sk_PutString04("kcp_i16 = ",kcp_i16 ,CRLF_ON );
 1117              		.loc 1 1291 0
 1118 0140 9748     		ldr	r0, .L102+200
 1119 0142 984B     		ldr	r3, .L102+204
 1120 0144 B3F90010 		ldrsh	r1, [r3]
 1121 0148 0122     		movs	r2, #1
 1122 014a FFF7FEFF 		bl	sk_PutString04
 1123              	.LVL85:
1292:.\sk_debug.c  ****     sk_PutString04("kvi_i16 = ",kvi_i16 ,CRLF_ON );
 1124              		.loc 1 1292 0
 1125 014e 9648     		ldr	r0, .L102+208
 1126 0150 964B     		ldr	r3, .L102+212
 1127 0152 B3F90010 		ldrsh	r1, [r3]
 1128 0156 0122     		movs	r2, #1
 1129 0158 FFF7FEFF 		bl	sk_PutString04
 1130              	.LVL86:
1293:.\sk_debug.c  ****     sk_PutString04("kci_i16 = ",kci_i16 ,CRLF_ON );
 1131              		.loc 1 1293 0
ARM GAS  C:\Users\nosak\AppData\Local\Temp\ccBt8IvS.s 			page 44


 1132 015c 9448     		ldr	r0, .L102+216
 1133 015e 954B     		ldr	r3, .L102+220
 1134 0160 B3F90010 		ldrsh	r1, [r3]
 1135 0164 0122     		movs	r2, #1
 1136 0166 FFF7FEFF 		bl	sk_PutString04
 1137              	.LVL87:
1294:.\sk_debug.c  ****     sk_PutString04("kdl_i16 = ",kdl_i16 ,CRLF_ON );
 1138              		.loc 1 1294 0
 1139 016a 9348     		ldr	r0, .L102+224
 1140 016c 934B     		ldr	r3, .L102+228
 1141 016e B3F90010 		ldrsh	r1, [r3]
 1142 0172 0122     		movs	r2, #1
 1143 0174 FFF7FEFF 		bl	sk_PutString04
 1144              	.LVL88:
1295:.\sk_debug.c  ****     sk_PutString04("kdr_i16 = ",kdr_i16 ,CRLF_ON );
 1145              		.loc 1 1295 0
 1146 0178 9148     		ldr	r0, .L102+232
 1147 017a 924B     		ldr	r3, .L102+236
 1148 017c B3F90010 		ldrsh	r1, [r3]
 1149 0180 0122     		movs	r2, #1
 1150 0182 FFF7FEFF 		bl	sk_PutString04
 1151              	.LVL89:
1296:.\sk_debug.c  ****     sk_PutString04("satv_i16 = ",satv_i16 ,CRLF_ON );
 1152              		.loc 1 1296 0
 1153 0186 9048     		ldr	r0, .L102+240
 1154 0188 904B     		ldr	r3, .L102+244
 1155 018a B3F90010 		ldrsh	r1, [r3]
 1156 018e 0122     		movs	r2, #1
 1157 0190 FFF7FEFF 		bl	sk_PutString04
 1158              	.LVL90:
1297:.\sk_debug.c  ****     sk_PutString04("satc_i16 = ",satc_i16 ,CRLF_ON );
 1159              		.loc 1 1297 0
 1160 0194 8E48     		ldr	r0, .L102+248
 1161 0196 8F4B     		ldr	r3, .L102+252
 1162 0198 B3F90010 		ldrsh	r1, [r3]
 1163 019c 0122     		movs	r2, #1
 1164 019e FFF7FEFF 		bl	sk_PutString04
 1165              	.LVL91:
1298:.\sk_debug.c  **** 
1299:.\sk_debug.c  ****     sk_PutString01("",CRLF_ON);
 1166              		.loc 1 1299 0
 1167 01a2 2046     		mov	r0, r4
 1168 01a4 0121     		movs	r1, #1
 1169 01a6 FFF7FEFF 		bl	sk_PutString01
 1170              	.LVL92:
1300:.\sk_debug.c  ****     sk_PutString01("***** uint8 *****",CRLF_ON);
 1171              		.loc 1 1300 0
 1172 01aa 8B48     		ldr	r0, .L102+256
 1173 01ac 0121     		movs	r1, #1
 1174 01ae FFF7FEFF 		bl	sk_PutString01
 1175              	.LVL93:
1301:.\sk_debug.c  ****     sk_PutString04("adin = ",adin ,CRLF_ON );
 1176              		.loc 1 1301 0
 1177 01b2 8A48     		ldr	r0, .L102+260
 1178 01b4 8A4B     		ldr	r3, .L102+264
 1179 01b6 1978     		ldrb	r1, [r3]	@ zero_extendqisi2
 1180 01b8 0122     		movs	r2, #1
ARM GAS  C:\Users\nosak\AppData\Local\Temp\ccBt8IvS.s 			page 45


 1181 01ba FFF7FEFF 		bl	sk_PutString04
 1182              	.LVL94:
1302:.\sk_debug.c  ****     sk_PutString04("blk0 = ",blk0 ,CRLF_ON );
 1183              		.loc 1 1302 0
 1184 01be 8948     		ldr	r0, .L102+268
 1185 01c0 894B     		ldr	r3, .L102+272
 1186 01c2 1978     		ldrb	r1, [r3]	@ zero_extendqisi2
 1187 01c4 0122     		movs	r2, #1
 1188 01c6 FFF7FEFF 		bl	sk_PutString04
 1189              	.LVL95:
1303:.\sk_debug.c  ****     sk_PutString04("blk1 = ",blk1 ,CRLF_ON );
 1190              		.loc 1 1303 0
 1191 01ca 8848     		ldr	r0, .L102+276
 1192 01cc 884B     		ldr	r3, .L102+280
 1193 01ce 1978     		ldrb	r1, [r3]	@ zero_extendqisi2
 1194 01d0 0122     		movs	r2, #1
 1195 01d2 FFF7FEFF 		bl	sk_PutString04
 1196              	.LVL96:
1304:.\sk_debug.c  ****     sk_PutString04("blk2 = ",blk2 ,CRLF_ON );
 1197              		.loc 1 1304 0
 1198 01d6 8748     		ldr	r0, .L102+284
 1199 01d8 874B     		ldr	r3, .L102+288
 1200 01da 1978     		ldrb	r1, [r3]	@ zero_extendqisi2
 1201 01dc 0122     		movs	r2, #1
 1202 01de FFF7FEFF 		bl	sk_PutString04
 1203              	.LVL97:
1305:.\sk_debug.c  ****     sk_PutString04("blk3 = ",blk3 ,CRLF_ON );
 1204              		.loc 1 1305 0
 1205 01e2 8648     		ldr	r0, .L102+292
 1206 01e4 864B     		ldr	r3, .L102+296
 1207 01e6 1978     		ldrb	r1, [r3]	@ zero_extendqisi2
 1208 01e8 0122     		movs	r2, #1
 1209 01ea FFF7FEFF 		bl	sk_PutString04
 1210              	.LVL98:
1306:.\sk_debug.c  ****     sk_PutString04("bwp_sw = ",bwp_sw ,CRLF_ON );
 1211              		.loc 1 1306 0
 1212 01ee 8548     		ldr	r0, .L102+300
 1213 01f0 854B     		ldr	r3, .L102+304
 1214 01f2 1978     		ldrb	r1, [r3]	@ zero_extendqisi2
 1215 01f4 0122     		movs	r2, #1
 1216 01f6 FFF7FEFF 		bl	sk_PutString04
 1217              	.LVL99:
1307:.\sk_debug.c  ****     sk_PutString04("calc_ratio = ",calc_ratio ,CRLF_ON );
 1218              		.loc 1 1307 0
 1219 01fa 8448     		ldr	r0, .L102+308
 1220 01fc 844B     		ldr	r3, .L102+312
 1221 01fe 1978     		ldrb	r1, [r3]	@ zero_extendqisi2
 1222 0200 0122     		movs	r2, #1
 1223 0202 FFF7FEFF 		bl	sk_PutString04
 1224              	.LVL100:
1308:.\sk_debug.c  ****     sk_PutString04("com_status = ",com_status ,CRLF_ON );
 1225              		.loc 1 1308 0
 1226 0206 8348     		ldr	r0, .L102+316
 1227 0208 834B     		ldr	r3, .L102+320
 1228 020a 1978     		ldrb	r1, [r3]	@ zero_extendqisi2
 1229 020c 0122     		movs	r2, #1
 1230 020e FFF7FEFF 		bl	sk_PutString04
ARM GAS  C:\Users\nosak\AppData\Local\Temp\ccBt8IvS.s 			page 46


 1231              	.LVL101:
1309:.\sk_debug.c  ****     sk_PutString04("cw0 = ",cw0 ,CRLF_ON );
 1232              		.loc 1 1309 0
 1233 0212 8248     		ldr	r0, .L102+324
 1234 0214 824B     		ldr	r3, .L102+328
 1235 0216 93F90010 		ldrsb	r1, [r3]
 1236 021a 0122     		movs	r2, #1
 1237 021c FFF7FEFF 		bl	sk_PutString04
 1238              	.LVL102:
1310:.\sk_debug.c  ****     sk_PutString04("cw1 = ",cw1 ,CRLF_ON );
 1239              		.loc 1 1310 0
 1240 0220 8048     		ldr	r0, .L102+332
 1241 0222 814B     		ldr	r3, .L102+336
 1242 0224 93F90010 		ldrsb	r1, [r3]
 1243 0228 0122     		movs	r2, #1
 1244 022a FFF7FEFF 		bl	sk_PutString04
 1245              	.LVL103:
1311:.\sk_debug.c  ****     sk_PutString04("cw2 = ",cw2 ,CRLF_ON );
 1246              		.loc 1 1311 0
 1247 022e 7F48     		ldr	r0, .L102+340
 1248 0230 7F4B     		ldr	r3, .L102+344
 1249 0232 93F90010 		ldrsb	r1, [r3]
 1250 0236 0122     		movs	r2, #1
 1251 0238 FFF7FEFF 		bl	sk_PutString04
 1252              	.LVL104:
1312:.\sk_debug.c  ****     sk_PutString04("cw3 = ",cw3 ,CRLF_ON );
 1253              		.loc 1 1312 0
 1254 023c 7D48     		ldr	r0, .L102+348
 1255 023e 7E4B     		ldr	r3, .L102+352
 1256 0240 93F90010 		ldrsb	r1, [r3]
 1257 0244 0122     		movs	r2, #1
 1258 0246 FFF7FEFF 		bl	sk_PutString04
 1259              	.LVL105:
1313:.\sk_debug.c  ****     sk_PutString04("cycle_count = ",cycle_count ,CRLF_ON );
 1260              		.loc 1 1313 0
 1261 024a 7C48     		ldr	r0, .L102+356
 1262 024c 7C4B     		ldr	r3, .L102+360
 1263 024e 1978     		ldrb	r1, [r3]	@ zero_extendqisi2
 1264 0250 0122     		movs	r2, #1
 1265 0252 FFF7FEFF 		bl	sk_PutString04
 1266              	.LVL106:
1314:.\sk_debug.c  ****     sk_PutString04("cycle_count_buf = ",cycle_count_buf ,CRLF_ON );
 1267              		.loc 1 1314 0
 1268 0256 7B48     		ldr	r0, .L102+364
 1269 0258 7B4B     		ldr	r3, .L102+368
 1270 025a 1978     		ldrb	r1, [r3]	@ zero_extendqisi2
 1271 025c 0122     		movs	r2, #1
 1272 025e FFF7FEFF 		bl	sk_PutString04
 1273              	.LVL107:
1315:.\sk_debug.c  ****     sk_PutString04("cycle_count_pre = ",cycle_count_pre ,CRLF_ON );
 1274              		.loc 1 1315 0
 1275 0262 7A48     		ldr	r0, .L102+372
 1276 0264 7A4B     		ldr	r3, .L102+376
 1277 0266 1978     		ldrb	r1, [r3]	@ zero_extendqisi2
 1278 0268 0122     		movs	r2, #1
 1279 026a FFF7FEFF 		bl	sk_PutString04
 1280              	.LVL108:
ARM GAS  C:\Users\nosak\AppData\Local\Temp\ccBt8IvS.s 			page 47


1316:.\sk_debug.c  ****     sk_PutString04("diag_count = ",diag_count ,CRLF_ON );
 1281              		.loc 1 1316 0
 1282 026e 7948     		ldr	r0, .L102+380
 1283 0270 794B     		ldr	r3, .L102+384
 1284 0272 1978     		ldrb	r1, [r3]	@ zero_extendqisi2
 1285 0274 0122     		movs	r2, #1
 1286 0276 FFF7FEFF 		bl	sk_PutString04
 1287              	.LVL109:
1317:.\sk_debug.c  ****     sk_PutString04("die_status = ",die_status ,CRLF_ON );
 1288              		.loc 1 1317 0
 1289 027a 7848     		ldr	r0, .L102+388
 1290 027c 784B     		ldr	r3, .L102+392
 1291 027e 1978     		ldrb	r1, [r3]	@ zero_extendqisi2
 1292 0280 0122     		movs	r2, #1
 1293 0282 FFF7FEFF 		bl	sk_PutString04
 1294              	.LVL110:
1318:.\sk_debug.c  ****     sk_PutString04("direct = ",direct ,CRLF_ON );
 1295              		.loc 1 1318 0
 1296 0286 7748     		ldr	r0, .L102+396
 1297 0288 774B     		ldr	r3, .L102+400
 1298 028a 1978     		ldrb	r1, [r3]	@ zero_extendqisi2
 1299 028c 0122     		movs	r2, #1
 1300 028e FFF7FEFF 		bl	sk_PutString04
 1301              	.LVL111:
1319:.\sk_debug.c  ****     sk_PutString04("drive_wheels = ",drive_wheels ,CRLF_ON );
 1302              		.loc 1 1319 0
 1303 0292 7648     		ldr	r0, .L102+404
 1304 0294 764B     		ldr	r3, .L102+408
 1305 0296 1978     		ldrb	r1, [r3]	@ zero_extendqisi2
 1306 0298 0122     		movs	r2, #1
 1307 029a FFF7FEFF 		bl	sk_PutString04
 1308              	.LVL112:
1320:.\sk_debug.c  ****     sk_PutString04("encd0 = ",encd0 ,CRLF_ON );
 1309              		.loc 1 1320 0
 1310 029e 7548     		ldr	r0, .L102+412
 1311 02a0 754B     		ldr	r3, .L102+416
 1312 02a2 93F90010 		ldrsb	r1, [r3]
 1313 02a6 0122     		movs	r2, #1
 1314 02a8 FFF7FEFF 		bl	sk_PutString04
 1315              	.LVL113:
1321:.\sk_debug.c  ****     sk_PutString04("encd1 = ",encd1 ,CRLF_ON );
 1316              		.loc 1 1321 0
 1317 02ac 7348     		ldr	r0, .L102+420
 1318 02ae 744B     		ldr	r3, .L102+424
 1319 02b0 93F90010 		ldrsb	r1, [r3]
 1320 02b4 0122     		movs	r2, #1
 1321 02b6 FFF7FEFF 		bl	sk_PutString04
 1322              	.LVL114:
1322:.\sk_debug.c  ****     sk_PutString04("encd2 = ",encd2 ,CRLF_ON );
 1323              		.loc 1 1322 0
 1324 02ba 7248     		ldr	r0, .L102+428
 1325 02bc 724B     		ldr	r3, .L102+432
 1326 02be 93F90010 		ldrsb	r1, [r3]
 1327 02c2 0122     		movs	r2, #1
 1328 02c4 FFF7FEFF 		bl	sk_PutString04
 1329              	.LVL115:
1323:.\sk_debug.c  ****     sk_PutString04("encd3 = ",encd3 ,CRLF_ON );
ARM GAS  C:\Users\nosak\AppData\Local\Temp\ccBt8IvS.s 			page 48


 1330              		.loc 1 1323 0
 1331 02c8 7048     		ldr	r0, .L102+436
 1332 02ca 714B     		ldr	r3, .L102+440
 1333 02cc 93F90010 		ldrsb	r1, [r3]
 1334 02d0 0122     		movs	r2, #1
 1335 02d2 FFF7FEFF 		bl	sk_PutString04
 1336              	.LVL116:
 1337 02d6 DDE0     		b	.L103
 1338              	.L104:
 1339              		.align	2
 1340              	.L102:
 1341 02d8 C8000000 		.word	.LC15
 1342 02dc CC000000 		.word	.LC16
 1343 02e0 E0000000 		.word	.LC17
 1344 02e4 00000000 		.word	dist_front
 1345 02e8 F0000000 		.word	.LC18
 1346 02ec 00000000 		.word	dist_rear
 1347 02f0 00010000 		.word	.LC19
 1348 02f4 00000000 		.word	dist_fr
 1349 02f8 0C010000 		.word	.LC20
 1350 02fc 00000000 		.word	dist_fl
 1351 0300 18010000 		.word	.LC21
 1352 0304 00000000 		.word	dist_st
 1353 0308 24010000 		.word	.LC22
 1354 030c 00000000 		.word	v_bat_16
 1355 0310 30010000 		.word	.LC23
 1356 0314 00000000 		.word	pvm1_16
 1357 0318 3C010000 		.word	.LC24
 1358 031c 00000000 		.word	pvm2_16
 1359 0320 48010000 		.word	.LC25
 1360 0324 00000000 		.word	max_spd_chg
 1361 0328 58010000 		.word	.LC26
 1362 032c 00000000 		.word	max_rpm
 1363 0330 64010000 		.word	.LC27
 1364 0334 00000000 		.word	gear_motor
 1365 0338 74010000 		.word	.LC28
 1366 033c 00000000 		.word	samp_rate
 1367 0340 84010000 		.word	.LC29
 1368 0344 00000000 		.word	enc_count
 1369 0348 94010000 		.word	.LC30
 1370 034c 00000000 		.word	enc_malti
 1371 0350 A4010000 		.word	.LC31
 1372 0354 00000000 		.word	dim_wheel_i16
 1373 0358 B8010000 		.word	.LC32
 1374 035c 00000000 		.word	dist_wheel_i16
 1375 0360 CC010000 		.word	.LC33
 1376 0364 00000000 		.word	toruque_const_i16
 1377 0368 E4010000 		.word	.LC34
 1378 036c 00000000 		.word	speed_const_i16
 1379 0370 F8010000 		.word	.LC35
 1380 0374 00000000 		.word	spd_torq_grad_i16
 1381 0378 10020000 		.word	.LC36
 1382 037c 00000000 		.word	acc_limit_f_i16
 1383 0380 24020000 		.word	.LC37
 1384 0384 00000000 		.word	acc_limit_r_i16
 1385 0388 38020000 		.word	.LC38
 1386 038c 00000000 		.word	acc_limit_s_i16
ARM GAS  C:\Users\nosak\AppData\Local\Temp\ccBt8IvS.s 			page 49


 1387 0390 4C020000 		.word	.LC39
 1388 0394 00000000 		.word	safty_const_i16
 1389 0398 60020000 		.word	.LC40
 1390 039c 00000000 		.word	kvp_i16
 1391 03a0 6C020000 		.word	.LC41
 1392 03a4 00000000 		.word	kcp_i16
 1393 03a8 78020000 		.word	.LC42
 1394 03ac 00000000 		.word	kvi_i16
 1395 03b0 84020000 		.word	.LC43
 1396 03b4 00000000 		.word	kci_i16
 1397 03b8 90020000 		.word	.LC44
 1398 03bc 00000000 		.word	kdl_i16
 1399 03c0 9C020000 		.word	.LC45
 1400 03c4 00000000 		.word	kdr_i16
 1401 03c8 A8020000 		.word	.LC46
 1402 03cc 00000000 		.word	satv_i16
 1403 03d0 B4020000 		.word	.LC47
 1404 03d4 00000000 		.word	satc_i16
 1405 03d8 C0020000 		.word	.LC48
 1406 03dc D4020000 		.word	.LC49
 1407 03e0 00000000 		.word	adin
 1408 03e4 DC020000 		.word	.LC50
 1409 03e8 00000000 		.word	blk0
 1410 03ec E4020000 		.word	.LC51
 1411 03f0 00000000 		.word	blk1
 1412 03f4 EC020000 		.word	.LC52
 1413 03f8 00000000 		.word	blk2
 1414 03fc F4020000 		.word	.LC53
 1415 0400 00000000 		.word	blk3
 1416 0404 FC020000 		.word	.LC54
 1417 0408 00000000 		.word	bwp_sw
 1418 040c 08030000 		.word	.LC55
 1419 0410 00000000 		.word	calc_ratio
 1420 0414 18030000 		.word	.LC56
 1421 0418 00000000 		.word	com_status
 1422 041c 28030000 		.word	.LC57
 1423 0420 00000000 		.word	cw0
 1424 0424 30030000 		.word	.LC58
 1425 0428 00000000 		.word	cw1
 1426 042c 38030000 		.word	.LC59
 1427 0430 00000000 		.word	cw2
 1428 0434 40030000 		.word	.LC60
 1429 0438 00000000 		.word	cw3
 1430 043c 48030000 		.word	.LC61
 1431 0440 00000000 		.word	cycle_count
 1432 0444 58030000 		.word	.LC62
 1433 0448 00000000 		.word	cycle_count_buf
 1434 044c 6C030000 		.word	.LC63
 1435 0450 00000000 		.word	cycle_count_pre
 1436 0454 80030000 		.word	.LC64
 1437 0458 00000000 		.word	diag_count
 1438 045c 90030000 		.word	.LC65
 1439 0460 00000000 		.word	die_status
 1440 0464 A0030000 		.word	.LC66
 1441 0468 00000000 		.word	direct
 1442 046c AC030000 		.word	.LC67
 1443 0470 00000000 		.word	drive_wheels
ARM GAS  C:\Users\nosak\AppData\Local\Temp\ccBt8IvS.s 			page 50


 1444 0474 BC030000 		.word	.LC68
 1445 0478 00000000 		.word	encd0
 1446 047c C8030000 		.word	.LC69
 1447 0480 00000000 		.word	encd1
 1448 0484 D4030000 		.word	.LC70
 1449 0488 00000000 		.word	encd2
 1450 048c E0030000 		.word	.LC71
 1451 0490 00000000 		.word	encd3
 1452              	.L103:
1324:.\sk_debug.c  ****     sk_PutString04("err_wdt_atm_spi = ",err_wdt_atm_spi ,CRLF_ON );
 1453              		.loc 1 1324 0
 1454 0494 AF48     		ldr	r0, .L105
 1455 0496 B04B     		ldr	r3, .L105+4
 1456 0498 1978     		ldrb	r1, [r3]	@ zero_extendqisi2
 1457 049a 0122     		movs	r2, #1
 1458 049c FFF7FEFF 		bl	sk_PutString04
 1459              	.LVL117:
1325:.\sk_debug.c  ****     sk_PutString04("err_wdt_axis9_spi = ",err_wdt_axis9_spi ,CRLF_ON );
 1460              		.loc 1 1325 0
 1461 04a0 AE48     		ldr	r0, .L105+8
 1462 04a2 AF4B     		ldr	r3, .L105+12
 1463 04a4 1978     		ldrb	r1, [r3]	@ zero_extendqisi2
 1464 04a6 0122     		movs	r2, #1
 1465 04a8 FFF7FEFF 		bl	sk_PutString04
 1466              	.LVL118:
1326:.\sk_debug.c  ****     sk_PutString04("err_wdt_body_oh[0] = ",err_wdt_body_oh[0] ,CRLF_ON );
 1467              		.loc 1 1326 0
 1468 04ac AD4C     		ldr	r4, .L105+16
 1469 04ae AE48     		ldr	r0, .L105+20
 1470 04b0 2178     		ldrb	r1, [r4]	@ zero_extendqisi2
 1471 04b2 0122     		movs	r2, #1
 1472 04b4 FFF7FEFF 		bl	sk_PutString04
 1473              	.LVL119:
1327:.\sk_debug.c  ****     sk_PutString04("err_wdt_body_oh[1] = ",err_wdt_body_oh[1] ,CRLF_ON );
 1474              		.loc 1 1327 0
 1475 04b8 AC48     		ldr	r0, .L105+24
 1476 04ba 6178     		ldrb	r1, [r4, #1]	@ zero_extendqisi2
 1477 04bc 0122     		movs	r2, #1
 1478 04be FFF7FEFF 		bl	sk_PutString04
 1479              	.LVL120:
1328:.\sk_debug.c  ****     sk_PutString04("err_wdt_body_oh[2] = ",err_wdt_body_oh[2] ,CRLF_ON );
 1480              		.loc 1 1328 0
 1481 04c2 AB48     		ldr	r0, .L105+28
 1482 04c4 A178     		ldrb	r1, [r4, #2]	@ zero_extendqisi2
 1483 04c6 0122     		movs	r2, #1
 1484 04c8 FFF7FEFF 		bl	sk_PutString04
 1485              	.LVL121:
1329:.\sk_debug.c  ****     sk_PutString04("err_wdt_cpuv[0] = ",err_wdt_cpuv[0] ,CRLF_ON );
 1486              		.loc 1 1329 0
 1487 04cc A94C     		ldr	r4, .L105+32
 1488 04ce AA48     		ldr	r0, .L105+36
 1489 04d0 2178     		ldrb	r1, [r4]	@ zero_extendqisi2
 1490 04d2 0122     		movs	r2, #1
 1491 04d4 FFF7FEFF 		bl	sk_PutString04
 1492              	.LVL122:
1330:.\sk_debug.c  ****     sk_PutString04("err_wdt_cpuv[1] = ",err_wdt_cpuv[1] ,CRLF_ON );
 1493              		.loc 1 1330 0
ARM GAS  C:\Users\nosak\AppData\Local\Temp\ccBt8IvS.s 			page 51


 1494 04d8 A848     		ldr	r0, .L105+40
 1495 04da 6178     		ldrb	r1, [r4, #1]	@ zero_extendqisi2
 1496 04dc 0122     		movs	r2, #1
 1497 04de FFF7FEFF 		bl	sk_PutString04
 1498              	.LVL123:
1331:.\sk_debug.c  ****     sk_PutString04("err_wdt_cpuv[2] = ",err_wdt_cpuv[2] ,CRLF_ON );
 1499              		.loc 1 1331 0
 1500 04e2 A748     		ldr	r0, .L105+44
 1501 04e4 A178     		ldrb	r1, [r4, #2]	@ zero_extendqisi2
 1502 04e6 0122     		movs	r2, #1
 1503 04e8 FFF7FEFF 		bl	sk_PutString04
 1504              	.LVL124:
1332:.\sk_debug.c  ****     sk_PutString04("err_wdt_cpuv[3] = ",err_wdt_cpuv[3] ,CRLF_ON );
 1505              		.loc 1 1332 0
 1506 04ec A548     		ldr	r0, .L105+48
 1507 04ee E178     		ldrb	r1, [r4, #3]	@ zero_extendqisi2
 1508 04f0 0122     		movs	r2, #1
 1509 04f2 FFF7FEFF 		bl	sk_PutString04
 1510              	.LVL125:
1333:.\sk_debug.c  ****     sk_PutString04("err_wdt_die_otp = ",err_wdt_die_otp ,CRLF_ON );
 1511              		.loc 1 1333 0
 1512 04f6 A448     		ldr	r0, .L105+52
 1513 04f8 A44B     		ldr	r3, .L105+56
 1514 04fa 1978     		ldrb	r1, [r3]	@ zero_extendqisi2
 1515 04fc 0122     		movs	r2, #1
 1516 04fe FFF7FEFF 		bl	sk_PutString04
 1517              	.LVL126:
1334:.\sk_debug.c  ****     sk_PutString04("err_wdt_drv_dis = ",err_wdt_drv_dis ,CRLF_ON );
 1518              		.loc 1 1334 0
 1519 0502 A348     		ldr	r0, .L105+60
 1520 0504 A34B     		ldr	r3, .L105+64
 1521 0506 1978     		ldrb	r1, [r3]	@ zero_extendqisi2
 1522 0508 0122     		movs	r2, #1
 1523 050a FFF7FEFF 		bl	sk_PutString04
 1524              	.LVL127:
1335:.\sk_debug.c  ****     sk_PutString04("err_wdt_drv_spi[0] = ",err_wdt_drv_spi[0] ,CRLF_ON );
 1525              		.loc 1 1335 0
 1526 050e A24C     		ldr	r4, .L105+68
 1527 0510 A248     		ldr	r0, .L105+72
 1528 0512 2178     		ldrb	r1, [r4]	@ zero_extendqisi2
 1529 0514 0122     		movs	r2, #1
 1530 0516 FFF7FEFF 		bl	sk_PutString04
 1531              	.LVL128:
1336:.\sk_debug.c  ****     sk_PutString04("err_wdt_drv_spi[1] = ",err_wdt_drv_spi[1] ,CRLF_ON );
 1532              		.loc 1 1336 0
 1533 051a A148     		ldr	r0, .L105+76
 1534 051c 6178     		ldrb	r1, [r4, #1]	@ zero_extendqisi2
 1535 051e 0122     		movs	r2, #1
 1536 0520 FFF7FEFF 		bl	sk_PutString04
 1537              	.LVL129:
1337:.\sk_debug.c  ****     sk_PutString04("err_wdt_drv_spi[2] = ",err_wdt_drv_spi[2] ,CRLF_ON );
 1538              		.loc 1 1337 0
 1539 0524 9F48     		ldr	r0, .L105+80
 1540 0526 A178     		ldrb	r1, [r4, #2]	@ zero_extendqisi2
 1541 0528 0122     		movs	r2, #1
 1542 052a FFF7FEFF 		bl	sk_PutString04
 1543              	.LVL130:
ARM GAS  C:\Users\nosak\AppData\Local\Temp\ccBt8IvS.s 			page 52


1338:.\sk_debug.c  ****     sk_PutString04("err_wdt_drv_spi[3] = ",err_wdt_drv_spi[3] ,CRLF_ON );
 1544              		.loc 1 1338 0
 1545 052e 9E48     		ldr	r0, .L105+84
 1546 0530 E178     		ldrb	r1, [r4, #3]	@ zero_extendqisi2
 1547 0532 0122     		movs	r2, #1
 1548 0534 FFF7FEFF 		bl	sk_PutString04
 1549              	.LVL131:
1339:.\sk_debug.c  **** 
1340:.\sk_debug.c  ****     sk_PutString04("err_wdt_em_stop_out = ",err_wdt_em_stop_out ,CRLF_ON );
 1550              		.loc 1 1340 0
 1551 0538 9C48     		ldr	r0, .L105+88
 1552 053a 9D4B     		ldr	r3, .L105+92
 1553 053c 1978     		ldrb	r1, [r3]	@ zero_extendqisi2
 1554 053e 0122     		movs	r2, #1
 1555 0540 FFF7FEFF 		bl	sk_PutString04
 1556              	.LVL132:
1341:.\sk_debug.c  **** 
1342:.\sk_debug.c  ****     sk_PutString04("err_wdt_gdf[0] = ",err_wdt_gdf[0] ,CRLF_ON );
 1557              		.loc 1 1342 0
 1558 0544 9B4C     		ldr	r4, .L105+96
 1559 0546 9C48     		ldr	r0, .L105+100
 1560 0548 2178     		ldrb	r1, [r4]	@ zero_extendqisi2
 1561 054a 0122     		movs	r2, #1
 1562 054c FFF7FEFF 		bl	sk_PutString04
 1563              	.LVL133:
1343:.\sk_debug.c  ****     sk_PutString04("err_wdt_gdf[1] = ",err_wdt_gdf[1] ,CRLF_ON );
 1564              		.loc 1 1343 0
 1565 0550 9A48     		ldr	r0, .L105+104
 1566 0552 6178     		ldrb	r1, [r4, #1]	@ zero_extendqisi2
 1567 0554 0122     		movs	r2, #1
 1568 0556 FFF7FEFF 		bl	sk_PutString04
 1569              	.LVL134:
1344:.\sk_debug.c  ****     sk_PutString04("err_wdt_gdf[2] = ",err_wdt_gdf[2] ,CRLF_ON );
 1570              		.loc 1 1344 0
 1571 055a 9948     		ldr	r0, .L105+108
 1572 055c A178     		ldrb	r1, [r4, #2]	@ zero_extendqisi2
 1573 055e 0122     		movs	r2, #1
 1574 0560 FFF7FEFF 		bl	sk_PutString04
 1575              	.LVL135:
1345:.\sk_debug.c  ****     sk_PutString04("err_wdt_gdf[3] = ",err_wdt_gdf[3] ,CRLF_ON );
 1576              		.loc 1 1345 0
 1577 0564 9748     		ldr	r0, .L105+112
 1578 0566 E178     		ldrb	r1, [r4, #3]	@ zero_extendqisi2
 1579 0568 0122     		movs	r2, #1
 1580 056a FFF7FEFF 		bl	sk_PutString04
 1581              	.LVL136:
1346:.\sk_debug.c  **** 
1347:.\sk_debug.c  ****     sk_PutString04("err_wdt_mot_fault = ",err_wdt_mot_fault ,CRLF_ON );
 1582              		.loc 1 1347 0
 1583 056e 9648     		ldr	r0, .L105+116
 1584 0570 964B     		ldr	r3, .L105+120
 1585 0572 1978     		ldrb	r1, [r3]	@ zero_extendqisi2
 1586 0574 0122     		movs	r2, #1
 1587 0576 FFF7FEFF 		bl	sk_PutString04
 1588              	.LVL137:
1348:.\sk_debug.c  **** 
1349:.\sk_debug.c  ****     sk_PutString04("err_wdt_otsd[0] = ",err_wdt_otsd[0] ,CRLF_ON );
ARM GAS  C:\Users\nosak\AppData\Local\Temp\ccBt8IvS.s 			page 53


 1589              		.loc 1 1349 0
 1590 057a 954C     		ldr	r4, .L105+124
 1591 057c 9548     		ldr	r0, .L105+128
 1592 057e 2178     		ldrb	r1, [r4]	@ zero_extendqisi2
 1593 0580 0122     		movs	r2, #1
 1594 0582 FFF7FEFF 		bl	sk_PutString04
 1595              	.LVL138:
1350:.\sk_debug.c  ****     sk_PutString04("err_wdt_otsd[1] = ",err_wdt_otsd[1] ,CRLF_ON );
 1596              		.loc 1 1350 0
 1597 0586 9448     		ldr	r0, .L105+132
 1598 0588 6178     		ldrb	r1, [r4, #1]	@ zero_extendqisi2
 1599 058a 0122     		movs	r2, #1
 1600 058c FFF7FEFF 		bl	sk_PutString04
 1601              	.LVL139:
1351:.\sk_debug.c  ****     sk_PutString04("err_wdt_otsd[2] = ",err_wdt_otsd[2] ,CRLF_ON );
 1602              		.loc 1 1351 0
 1603 0590 9248     		ldr	r0, .L105+136
 1604 0592 A178     		ldrb	r1, [r4, #2]	@ zero_extendqisi2
 1605 0594 0122     		movs	r2, #1
 1606 0596 FFF7FEFF 		bl	sk_PutString04
 1607              	.LVL140:
1352:.\sk_debug.c  ****     sk_PutString04("err_wdt_otsd[3] = ",err_wdt_otsd[3] ,CRLF_ON );
 1608              		.loc 1 1352 0
 1609 059a 9148     		ldr	r0, .L105+140
 1610 059c E178     		ldrb	r1, [r4, #3]	@ zero_extendqisi2
 1611 059e 0122     		movs	r2, #1
 1612 05a0 FFF7FEFF 		bl	sk_PutString04
 1613              	.LVL141:
1353:.\sk_debug.c  ****     sk_PutString04("err_wdt_otw[0] = ",err_wdt_otw[0] ,CRLF_ON );
 1614              		.loc 1 1353 0
 1615 05a4 8F4C     		ldr	r4, .L105+144
 1616 05a6 9048     		ldr	r0, .L105+148
 1617 05a8 2178     		ldrb	r1, [r4]	@ zero_extendqisi2
 1618 05aa 0122     		movs	r2, #1
 1619 05ac FFF7FEFF 		bl	sk_PutString04
 1620              	.LVL142:
1354:.\sk_debug.c  ****     sk_PutString04("err_wdt_otw[1] = ",err_wdt_otw[1] ,CRLF_ON );
 1621              		.loc 1 1354 0
 1622 05b0 8E48     		ldr	r0, .L105+152
 1623 05b2 6178     		ldrb	r1, [r4, #1]	@ zero_extendqisi2
 1624 05b4 0122     		movs	r2, #1
 1625 05b6 FFF7FEFF 		bl	sk_PutString04
 1626              	.LVL143:
1355:.\sk_debug.c  ****     sk_PutString04("err_wdt_otw[2] = ",err_wdt_otw[2] ,CRLF_ON );
 1627              		.loc 1 1355 0
 1628 05ba 8D48     		ldr	r0, .L105+156
 1629 05bc A178     		ldrb	r1, [r4, #2]	@ zero_extendqisi2
 1630 05be 0122     		movs	r2, #1
 1631 05c0 FFF7FEFF 		bl	sk_PutString04
 1632              	.LVL144:
1356:.\sk_debug.c  ****     sk_PutString04("err_wdt_otw[3] = ",err_wdt_otw[3] ,CRLF_ON );
 1633              		.loc 1 1356 0
 1634 05c4 8B48     		ldr	r0, .L105+160
 1635 05c6 E178     		ldrb	r1, [r4, #3]	@ zero_extendqisi2
 1636 05c8 0122     		movs	r2, #1
 1637 05ca FFF7FEFF 		bl	sk_PutString04
 1638              	.LVL145:
ARM GAS  C:\Users\nosak\AppData\Local\Temp\ccBt8IvS.s 			page 54


1357:.\sk_debug.c  ****     sk_PutString04("err_wdt_ov_spd[0] = ",err_wdt_ov_spd[0] ,CRLF_ON );
 1639              		.loc 1 1357 0
 1640 05ce 8A4C     		ldr	r4, .L105+164
 1641 05d0 8A48     		ldr	r0, .L105+168
 1642 05d2 2178     		ldrb	r1, [r4]	@ zero_extendqisi2
 1643 05d4 0122     		movs	r2, #1
 1644 05d6 FFF7FEFF 		bl	sk_PutString04
 1645              	.LVL146:
1358:.\sk_debug.c  ****     sk_PutString04("err_wdt_ov_spd[1] = ",err_wdt_ov_spd[1] ,CRLF_ON );
 1646              		.loc 1 1358 0
 1647 05da 8948     		ldr	r0, .L105+172
 1648 05dc 6178     		ldrb	r1, [r4, #1]	@ zero_extendqisi2
 1649 05de 0122     		movs	r2, #1
 1650 05e0 FFF7FEFF 		bl	sk_PutString04
 1651              	.LVL147:
1359:.\sk_debug.c  ****     sk_PutString04("err_wdt_ov_spd[2] = ",err_wdt_ov_spd[2] ,CRLF_ON );
 1652              		.loc 1 1359 0
 1653 05e4 8748     		ldr	r0, .L105+176
 1654 05e6 A178     		ldrb	r1, [r4, #2]	@ zero_extendqisi2
 1655 05e8 0122     		movs	r2, #1
 1656 05ea FFF7FEFF 		bl	sk_PutString04
 1657              	.LVL148:
1360:.\sk_debug.c  ****     sk_PutString04("err_wdt_ov_spd[3] = ",err_wdt_ov_spd[3] ,CRLF_ON );
 1658              		.loc 1 1360 0
 1659 05ee 8648     		ldr	r0, .L105+180
 1660 05f0 E178     		ldrb	r1, [r4, #3]	@ zero_extendqisi2
 1661 05f2 0122     		movs	r2, #1
 1662 05f4 FFF7FEFF 		bl	sk_PutString04
 1663              	.LVL149:
1361:.\sk_debug.c  **** 
1362:.\sk_debug.c  ****     sk_PutString04("err_wdt_pvm_low[0] = ",err_wdt_pvm_low[0] ,CRLF_ON );
 1664              		.loc 1 1362 0
 1665 05f8 844C     		ldr	r4, .L105+184
 1666 05fa 8548     		ldr	r0, .L105+188
 1667 05fc 2178     		ldrb	r1, [r4]	@ zero_extendqisi2
 1668 05fe 0122     		movs	r2, #1
 1669 0600 FFF7FEFF 		bl	sk_PutString04
 1670              	.LVL150:
1363:.\sk_debug.c  ****     sk_PutString04("err_wdt_pvm_low[1] = ",err_wdt_pvm_low[1] ,CRLF_ON );
 1671              		.loc 1 1363 0
 1672 0604 8348     		ldr	r0, .L105+192
 1673 0606 6178     		ldrb	r1, [r4, #1]	@ zero_extendqisi2
 1674 0608 0122     		movs	r2, #1
 1675 060a FFF7FEFF 		bl	sk_PutString04
 1676              	.LVL151:
1364:.\sk_debug.c  ****     sk_PutString04("err_wdt_pvm_ocpat[0] = ",err_wdt_pvm_ocpat[0] ,CRLF_ON );
 1677              		.loc 1 1364 0
 1678 060e 824C     		ldr	r4, .L105+196
 1679 0610 8248     		ldr	r0, .L105+200
 1680 0612 2178     		ldrb	r1, [r4]	@ zero_extendqisi2
 1681 0614 0122     		movs	r2, #1
 1682 0616 FFF7FEFF 		bl	sk_PutString04
 1683              	.LVL152:
1365:.\sk_debug.c  ****     sk_PutString04("err_wdt_pvm_ocpat[1] = ",err_wdt_pvm_ocpat[1] ,CRLF_ON );
 1684              		.loc 1 1365 0
 1685 061a 8148     		ldr	r0, .L105+204
 1686 061c 6178     		ldrb	r1, [r4, #1]	@ zero_extendqisi2
ARM GAS  C:\Users\nosak\AppData\Local\Temp\ccBt8IvS.s 			page 55


 1687 061e 0122     		movs	r2, #1
 1688 0620 FFF7FEFF 		bl	sk_PutString04
 1689              	.LVL153:
1366:.\sk_debug.c  **** 
1367:.\sk_debug.c  ****     sk_PutString04("err_wdt_pvm_ocur[0] = ",err_wdt_pvm_ocur[0] ,CRLF_ON );
 1690              		.loc 1 1367 0
 1691 0624 7F4C     		ldr	r4, .L105+208
 1692 0626 8048     		ldr	r0, .L105+212
 1693 0628 2178     		ldrb	r1, [r4]	@ zero_extendqisi2
 1694 062a 0122     		movs	r2, #1
 1695 062c FFF7FEFF 		bl	sk_PutString04
 1696              	.LVL154:
1368:.\sk_debug.c  ****     sk_PutString04("err_wdt_pvm_ocur[1] = ",err_wdt_pvm_ocur[1] ,CRLF_ON );
 1697              		.loc 1 1368 0
 1698 0630 7E48     		ldr	r0, .L105+216
 1699 0632 6178     		ldrb	r1, [r4, #1]	@ zero_extendqisi2
 1700 0634 0122     		movs	r2, #1
 1701 0636 FFF7FEFF 		bl	sk_PutString04
 1702              	.LVL155:
1369:.\sk_debug.c  **** 
1370:.\sk_debug.c  ****     sk_PutString04("err_wdt_sa_ocp[0] = ",err_wdt_sa_ocp[0] ,CRLF_ON );
 1703              		.loc 1 1370 0
 1704 063a 7D4C     		ldr	r4, .L105+220
 1705 063c 7D48     		ldr	r0, .L105+224
 1706 063e 2178     		ldrb	r1, [r4]	@ zero_extendqisi2
 1707 0640 0122     		movs	r2, #1
 1708 0642 FFF7FEFF 		bl	sk_PutString04
 1709              	.LVL156:
1371:.\sk_debug.c  ****     sk_PutString04("err_wdt_sa_ocp[1] = ",err_wdt_sa_ocp[1] ,CRLF_ON );
 1710              		.loc 1 1371 0
 1711 0646 7C48     		ldr	r0, .L105+228
 1712 0648 6178     		ldrb	r1, [r4, #1]	@ zero_extendqisi2
 1713 064a 0122     		movs	r2, #1
 1714 064c FFF7FEFF 		bl	sk_PutString04
 1715              	.LVL157:
1372:.\sk_debug.c  ****     sk_PutString04("err_wdt_sa_ocp[2] = ",err_wdt_sa_ocp[2] ,CRLF_ON );
 1716              		.loc 1 1372 0
 1717 0650 7A48     		ldr	r0, .L105+232
 1718 0652 A178     		ldrb	r1, [r4, #2]	@ zero_extendqisi2
 1719 0654 0122     		movs	r2, #1
 1720 0656 FFF7FEFF 		bl	sk_PutString04
 1721              	.LVL158:
1373:.\sk_debug.c  ****     sk_PutString04("err_wdt_sa_ocp[3] = ",err_wdt_sa_ocp[3] ,CRLF_ON );
 1722              		.loc 1 1373 0
 1723 065a 7948     		ldr	r0, .L105+236
 1724 065c E178     		ldrb	r1, [r4, #3]	@ zero_extendqisi2
 1725 065e 0122     		movs	r2, #1
 1726 0660 FFF7FEFF 		bl	sk_PutString04
 1727              	.LVL159:
1374:.\sk_debug.c  ****     sk_PutString04("err_wdt_sa_ocpat[0] = ",err_wdt_sa_ocpat[0] ,CRLF_ON );
 1728              		.loc 1 1374 0
 1729 0664 774C     		ldr	r4, .L105+240
 1730 0666 7848     		ldr	r0, .L105+244
 1731 0668 2178     		ldrb	r1, [r4]	@ zero_extendqisi2
 1732 066a 0122     		movs	r2, #1
 1733 066c FFF7FEFF 		bl	sk_PutString04
 1734              	.LVL160:
ARM GAS  C:\Users\nosak\AppData\Local\Temp\ccBt8IvS.s 			page 56


1375:.\sk_debug.c  ****     sk_PutString04("err_wdt_sa_ocpat[1] = ",err_wdt_sa_ocpat[1] ,CRLF_ON );
 1735              		.loc 1 1375 0
 1736 0670 7648     		ldr	r0, .L105+248
 1737 0672 6178     		ldrb	r1, [r4, #1]	@ zero_extendqisi2
 1738 0674 0122     		movs	r2, #1
 1739 0676 FFF7FEFF 		bl	sk_PutString04
 1740              	.LVL161:
1376:.\sk_debug.c  ****     sk_PutString04("err_wdt_sa_ocpat[2] = ",err_wdt_sa_ocpat[2] ,CRLF_ON );
 1741              		.loc 1 1376 0
 1742 067a 7548     		ldr	r0, .L105+252
 1743 067c A178     		ldrb	r1, [r4, #2]	@ zero_extendqisi2
 1744 067e 0122     		movs	r2, #1
 1745 0680 FFF7FEFF 		bl	sk_PutString04
 1746              	.LVL162:
1377:.\sk_debug.c  ****     sk_PutString04("err_wdt_sa_ocpat[3] = ",err_wdt_sa_ocpat[3] ,CRLF_ON );
 1747              		.loc 1 1377 0
 1748 0684 7348     		ldr	r0, .L105+256
 1749 0686 E178     		ldrb	r1, [r4, #3]	@ zero_extendqisi2
 1750 0688 0122     		movs	r2, #1
 1751 068a FFF7FEFF 		bl	sk_PutString04
 1752              	.LVL163:
1378:.\sk_debug.c  **** 
1379:.\sk_debug.c  ****     sk_PutString04("err_wdt_sw_dt = ",err_wdt_sw_dt ,CRLF_ON );
 1753              		.loc 1 1379 0
 1754 068e 7248     		ldr	r0, .L105+260
 1755 0690 724B     		ldr	r3, .L105+264
 1756 0692 1978     		ldrb	r1, [r3]	@ zero_extendqisi2
 1757 0694 0122     		movs	r2, #1
 1758 0696 FFF7FEFF 		bl	sk_PutString04
 1759              	.LVL164:
1380:.\sk_debug.c  ****     sk_PutString04("err_wdt_usb_if = ",err_wdt_usb_if ,CRLF_ON );
 1760              		.loc 1 1380 0
 1761 069a 7148     		ldr	r0, .L105+268
 1762 069c 714B     		ldr	r3, .L105+272
 1763 069e 1978     		ldrb	r1, [r3]	@ zero_extendqisi2
 1764 06a0 0122     		movs	r2, #1
 1765 06a2 FFF7FEFF 		bl	sk_PutString04
 1766              	.LVL165:
1381:.\sk_debug.c  **** 
1382:.\sk_debug.c  ****     sk_PutString04("err_wdt_uvlo[0] = ",err_wdt_uvlo[0] ,CRLF_ON );
 1767              		.loc 1 1382 0
 1768 06a6 704C     		ldr	r4, .L105+276
 1769 06a8 7048     		ldr	r0, .L105+280
 1770 06aa 2178     		ldrb	r1, [r4]	@ zero_extendqisi2
 1771 06ac 0122     		movs	r2, #1
 1772 06ae FFF7FEFF 		bl	sk_PutString04
 1773              	.LVL166:
1383:.\sk_debug.c  ****     sk_PutString04("err_wdt_uvlo[1] = ",err_wdt_uvlo[1] ,CRLF_ON );
 1774              		.loc 1 1383 0
 1775 06b2 6F48     		ldr	r0, .L105+284
 1776 06b4 6178     		ldrb	r1, [r4, #1]	@ zero_extendqisi2
 1777 06b6 0122     		movs	r2, #1
 1778 06b8 FFF7FEFF 		bl	sk_PutString04
 1779              	.LVL167:
1384:.\sk_debug.c  ****     sk_PutString04("err_wdt_uvlo[2] = ",err_wdt_uvlo[2] ,CRLF_ON );
 1780              		.loc 1 1384 0
 1781 06bc 6D48     		ldr	r0, .L105+288
ARM GAS  C:\Users\nosak\AppData\Local\Temp\ccBt8IvS.s 			page 57


 1782 06be A178     		ldrb	r1, [r4, #2]	@ zero_extendqisi2
 1783 06c0 0122     		movs	r2, #1
 1784 06c2 FFF7FEFF 		bl	sk_PutString04
 1785              	.LVL168:
1385:.\sk_debug.c  ****     sk_PutString04("err_wdt_uvlo[3] = ",err_wdt_uvlo[3] ,CRLF_ON );
 1786              		.loc 1 1385 0
 1787 06c6 6C48     		ldr	r0, .L105+292
 1788 06c8 E178     		ldrb	r1, [r4, #3]	@ zero_extendqisi2
 1789 06ca 0122     		movs	r2, #1
 1790 06cc FFF7FEFF 		bl	sk_PutString04
 1791              	.LVL169:
1386:.\sk_debug.c  **** 
1387:.\sk_debug.c  ****     sk_PutString04("err_wdt_vbat_low = ",err_wdt_vbat_low ,CRLF_ON );
 1792              		.loc 1 1387 0
 1793 06d0 6A48     		ldr	r0, .L105+296
 1794 06d2 6B4B     		ldr	r3, .L105+300
 1795 06d4 1978     		ldrb	r1, [r3]	@ zero_extendqisi2
 1796 06d6 0122     		movs	r2, #1
 1797 06d8 FFF7FEFF 		bl	sk_PutString04
 1798              	.LVL170:
1388:.\sk_debug.c  **** 
1389:.\sk_debug.c  ****     sk_PutString04("err_wdt_vds_ocp[0] = ",err_wdt_vds_ocp[0] ,CRLF_ON );
 1799              		.loc 1 1389 0
 1800 06dc 694C     		ldr	r4, .L105+304
 1801 06de 6A48     		ldr	r0, .L105+308
 1802 06e0 2178     		ldrb	r1, [r4]	@ zero_extendqisi2
 1803 06e2 0122     		movs	r2, #1
 1804 06e4 FFF7FEFF 		bl	sk_PutString04
 1805              	.LVL171:
1390:.\sk_debug.c  ****     sk_PutString04("err_wdt_vds_ocp[1] = ",err_wdt_vds_ocp[1] ,CRLF_ON );
 1806              		.loc 1 1390 0
 1807 06e8 6848     		ldr	r0, .L105+312
 1808 06ea 6178     		ldrb	r1, [r4, #1]	@ zero_extendqisi2
 1809 06ec 0122     		movs	r2, #1
 1810 06ee FFF7FEFF 		bl	sk_PutString04
 1811              	.LVL172:
1391:.\sk_debug.c  ****     sk_PutString04("err_wdt_vds_ocp[2] = ",err_wdt_vds_ocp[2] ,CRLF_ON );
 1812              		.loc 1 1391 0
 1813 06f2 6748     		ldr	r0, .L105+316
 1814 06f4 A178     		ldrb	r1, [r4, #2]	@ zero_extendqisi2
 1815 06f6 0122     		movs	r2, #1
 1816 06f8 FFF7FEFF 		bl	sk_PutString04
 1817              	.LVL173:
1392:.\sk_debug.c  ****     sk_PutString04("err_wdt_vds_ocp[3] = ",err_wdt_vds_ocp[3] ,CRLF_ON );
 1818              		.loc 1 1392 0
 1819 06fc 6548     		ldr	r0, .L105+320
 1820 06fe E178     		ldrb	r1, [r4, #3]	@ zero_extendqisi2
 1821 0700 0122     		movs	r2, #1
 1822 0702 FFF7FEFF 		bl	sk_PutString04
 1823              	.LVL174:
1393:.\sk_debug.c  **** 
1394:.\sk_debug.c  ****     sk_PutString04("loop_max = ",loop_max ,CRLF_ON );
 1824              		.loc 1 1394 0
 1825 0706 6448     		ldr	r0, .L105+324
 1826 0708 644B     		ldr	r3, .L105+328
 1827 070a 1978     		ldrb	r1, [r3]	@ zero_extendqisi2
 1828 070c 0122     		movs	r2, #1
ARM GAS  C:\Users\nosak\AppData\Local\Temp\ccBt8IvS.s 			page 58


 1829 070e FFF7FEFF 		bl	sk_PutString04
 1830              	.LVL175:
1395:.\sk_debug.c  ****     sk_PutString04("measure_sensor = ",measure_sensor ,CRLF_ON );
 1831              		.loc 1 1395 0
 1832 0712 6348     		ldr	r0, .L105+332
 1833 0714 634B     		ldr	r3, .L105+336
 1834 0716 93F90010 		ldrsb	r1, [r3]
 1835 071a 0122     		movs	r2, #1
 1836 071c FFF7FEFF 		bl	sk_PutString04
 1837              	.LVL176:
1396:.\sk_debug.c  ****     sk_PutString04("mes_adc_val = ",mes_adc_val ,CRLF_ON );
 1838              		.loc 1 1396 0
 1839 0720 6148     		ldr	r0, .L105+340
 1840 0722 624B     		ldr	r3, .L105+344
 1841 0724 1978     		ldrb	r1, [r3]	@ zero_extendqisi2
 1842 0726 0122     		movs	r2, #1
 1843 0728 FFF7FEFF 		bl	sk_PutString04
 1844              	.LVL177:
1397:.\sk_debug.c  ****     sk_PutString04("pwm_control = ",pwm_control ,CRLF_ON );
 1845              		.loc 1 1397 0
 1846 072c 6048     		ldr	r0, .L105+348
 1847 072e 614B     		ldr	r3, .L105+352
 1848 0730 1978     		ldrb	r1, [r3]	@ zero_extendqisi2
 1849 0732 0122     		movs	r2, #1
 1850 0734 FFF7FEFF 		bl	sk_PutString04
 1851              	.LVL178:
1398:.\sk_debug.c  ****     sk_PutString04("pwm_period = ",pwm_period ,CRLF_ON );
 1852              		.loc 1 1398 0
 1853 0738 5F48     		ldr	r0, .L105+356
 1854 073a 604B     		ldr	r3, .L105+360
 1855 073c 1978     		ldrb	r1, [r3]	@ zero_extendqisi2
 1856 073e 0122     		movs	r2, #1
 1857 0740 FFF7FEFF 		bl	sk_PutString04
 1858              	.LVL179:
1399:.\sk_debug.c  ****     sk_PutString04("pwm_width0 = ",pwm_width0 ,CRLF_ON );
 1859              		.loc 1 1399 0
 1860 0744 5E48     		ldr	r0, .L105+364
 1861 0746 5F4B     		ldr	r3, .L105+368
 1862 0748 1978     		ldrb	r1, [r3]	@ zero_extendqisi2
 1863 074a 0122     		movs	r2, #1
 1864 074c FFF7FEFF 		bl	sk_PutString04
 1865              	.LVL180:
 1866 0750 BAE0     		b	.L106
 1867              	.L107:
 1868 0752 00BF     		.align	2
 1869              	.L105:
 1870 0754 EC030000 		.word	.LC72
 1871 0758 00000000 		.word	err_wdt_atm_spi
 1872 075c 00040000 		.word	.LC73
 1873 0760 00000000 		.word	err_wdt_axis9_spi
 1874 0764 00000000 		.word	err_wdt_body_oh
 1875 0768 18040000 		.word	.LC74
 1876 076c 30040000 		.word	.LC75
 1877 0770 48040000 		.word	.LC76
 1878 0774 00000000 		.word	err_wdt_cpuv
 1879 0778 60040000 		.word	.LC77
 1880 077c 74040000 		.word	.LC78
ARM GAS  C:\Users\nosak\AppData\Local\Temp\ccBt8IvS.s 			page 59


 1881 0780 88040000 		.word	.LC79
 1882 0784 9C040000 		.word	.LC80
 1883 0788 B0040000 		.word	.LC81
 1884 078c 00000000 		.word	err_wdt_die_otp
 1885 0790 C4040000 		.word	.LC82
 1886 0794 00000000 		.word	err_wdt_drv_dis
 1887 0798 00000000 		.word	err_wdt_drv_spi
 1888 079c D8040000 		.word	.LC83
 1889 07a0 F0040000 		.word	.LC84
 1890 07a4 08050000 		.word	.LC85
 1891 07a8 20050000 		.word	.LC86
 1892 07ac 38050000 		.word	.LC87
 1893 07b0 00000000 		.word	err_wdt_em_stop_out
 1894 07b4 00000000 		.word	err_wdt_gdf
 1895 07b8 50050000 		.word	.LC88
 1896 07bc 64050000 		.word	.LC89
 1897 07c0 78050000 		.word	.LC90
 1898 07c4 8C050000 		.word	.LC91
 1899 07c8 A0050000 		.word	.LC92
 1900 07cc 00000000 		.word	err_wdt_mot_fault
 1901 07d0 00000000 		.word	err_wdt_otsd
 1902 07d4 B8050000 		.word	.LC93
 1903 07d8 CC050000 		.word	.LC94
 1904 07dc E0050000 		.word	.LC95
 1905 07e0 F4050000 		.word	.LC96
 1906 07e4 00000000 		.word	err_wdt_otw
 1907 07e8 08060000 		.word	.LC97
 1908 07ec 1C060000 		.word	.LC98
 1909 07f0 30060000 		.word	.LC99
 1910 07f4 44060000 		.word	.LC100
 1911 07f8 00000000 		.word	err_wdt_ov_spd
 1912 07fc 58060000 		.word	.LC101
 1913 0800 70060000 		.word	.LC102
 1914 0804 88060000 		.word	.LC103
 1915 0808 A0060000 		.word	.LC104
 1916 080c 00000000 		.word	err_wdt_pvm_low
 1917 0810 B8060000 		.word	.LC105
 1918 0814 D0060000 		.word	.LC106
 1919 0818 00000000 		.word	err_wdt_pvm_ocpat
 1920 081c E8060000 		.word	.LC107
 1921 0820 00070000 		.word	.LC108
 1922 0824 00000000 		.word	err_wdt_pvm_ocur
 1923 0828 18070000 		.word	.LC109
 1924 082c 30070000 		.word	.LC110
 1925 0830 00000000 		.word	err_wdt_sa_ocp
 1926 0834 48070000 		.word	.LC111
 1927 0838 60070000 		.word	.LC112
 1928 083c 78070000 		.word	.LC113
 1929 0840 90070000 		.word	.LC114
 1930 0844 00000000 		.word	err_wdt_sa_ocpat
 1931 0848 A8070000 		.word	.LC115
 1932 084c C0070000 		.word	.LC116
 1933 0850 D8070000 		.word	.LC117
 1934 0854 F0070000 		.word	.LC118
 1935 0858 08080000 		.word	.LC119
 1936 085c 00000000 		.word	err_wdt_sw_dt
 1937 0860 1C080000 		.word	.LC120
ARM GAS  C:\Users\nosak\AppData\Local\Temp\ccBt8IvS.s 			page 60


 1938 0864 00000000 		.word	err_wdt_usb_if
 1939 0868 00000000 		.word	err_wdt_uvlo
 1940 086c 30080000 		.word	.LC121
 1941 0870 44080000 		.word	.LC122
 1942 0874 58080000 		.word	.LC123
 1943 0878 6C080000 		.word	.LC124
 1944 087c 80080000 		.word	.LC125
 1945 0880 00000000 		.word	err_wdt_vbat_low
 1946 0884 00000000 		.word	err_wdt_vds_ocp
 1947 0888 94080000 		.word	.LC126
 1948 088c AC080000 		.word	.LC127
 1949 0890 C4080000 		.word	.LC128
 1950 0894 DC080000 		.word	.LC129
 1951 0898 F4080000 		.word	.LC130
 1952 089c 00000000 		.word	loop_max
 1953 08a0 00090000 		.word	.LC131
 1954 08a4 00000000 		.word	measure_sensor
 1955 08a8 14090000 		.word	.LC132
 1956 08ac 00000000 		.word	mes_adc_val
 1957 08b0 24090000 		.word	.LC133
 1958 08b4 00000000 		.word	pwm_control
 1959 08b8 34090000 		.word	.LC134
 1960 08bc 00000000 		.word	pwm_period
 1961 08c0 44090000 		.word	.LC135
 1962 08c4 00000000 		.word	pwm_width0
 1963              	.L106:
1400:.\sk_debug.c  ****     sk_PutString04("pwm_width1 = ",pwm_width1 ,CRLF_ON );
 1964              		.loc 1 1400 0
 1965 08c8 3148     		ldr	r0, .L108
 1966 08ca 324B     		ldr	r3, .L108+4
 1967 08cc 1978     		ldrb	r1, [r3]	@ zero_extendqisi2
 1968 08ce 0122     		movs	r2, #1
 1969 08d0 FFF7FEFF 		bl	sk_PutString04
 1970              	.LVL181:
1401:.\sk_debug.c  ****     sk_PutString04("pwm_width2 = ",pwm_width2 ,CRLF_ON );
 1971              		.loc 1 1401 0
 1972 08d4 3048     		ldr	r0, .L108+8
 1973 08d6 314B     		ldr	r3, .L108+12
 1974 08d8 1978     		ldrb	r1, [r3]	@ zero_extendqisi2
 1975 08da 0122     		movs	r2, #1
 1976 08dc FFF7FEFF 		bl	sk_PutString04
 1977              	.LVL182:
1402:.\sk_debug.c  ****     sk_PutString04("pwm_width3 = ",pwm_width3 ,CRLF_ON );
 1978              		.loc 1 1402 0
 1979 08e0 2F48     		ldr	r0, .L108+16
 1980 08e2 304B     		ldr	r3, .L108+20
 1981 08e4 1978     		ldrb	r1, [r3]	@ zero_extendqisi2
 1982 08e6 0122     		movs	r2, #1
 1983 08e8 FFF7FEFF 		bl	sk_PutString04
 1984              	.LVL183:
1403:.\sk_debug.c  ****     sk_PutString04("sign0 = ",sign0 ,CRLF_ON );
 1985              		.loc 1 1403 0
 1986 08ec 2E48     		ldr	r0, .L108+24
 1987 08ee 2F4B     		ldr	r3, .L108+28
 1988 08f0 1978     		ldrb	r1, [r3]	@ zero_extendqisi2
 1989 08f2 0122     		movs	r2, #1
 1990 08f4 FFF7FEFF 		bl	sk_PutString04
ARM GAS  C:\Users\nosak\AppData\Local\Temp\ccBt8IvS.s 			page 61


 1991              	.LVL184:
1404:.\sk_debug.c  ****     sk_PutString04("sign1 = ",sign1 ,CRLF_ON );
 1992              		.loc 1 1404 0
 1993 08f8 2D48     		ldr	r0, .L108+32
 1994 08fa 2E4B     		ldr	r3, .L108+36
 1995 08fc 1978     		ldrb	r1, [r3]	@ zero_extendqisi2
 1996 08fe 0122     		movs	r2, #1
 1997 0900 FFF7FEFF 		bl	sk_PutString04
 1998              	.LVL185:
1405:.\sk_debug.c  ****     sk_PutString04("sign2 = ",sign2 ,CRLF_ON );
 1999              		.loc 1 1405 0
 2000 0904 2C48     		ldr	r0, .L108+40
 2001 0906 2D4B     		ldr	r3, .L108+44
 2002 0908 1978     		ldrb	r1, [r3]	@ zero_extendqisi2
 2003 090a 0122     		movs	r2, #1
 2004 090c FFF7FEFF 		bl	sk_PutString04
 2005              	.LVL186:
1406:.\sk_debug.c  ****     sk_PutString04("sign3 = ",sign3 ,CRLF_ON );
 2006              		.loc 1 1406 0
 2007 0910 2B48     		ldr	r0, .L108+48
 2008 0912 2C4B     		ldr	r3, .L108+52
 2009 0914 1978     		ldrb	r1, [r3]	@ zero_extendqisi2
 2010 0916 0122     		movs	r2, #1
 2011 0918 FFF7FEFF 		bl	sk_PutString04
 2012              	.LVL187:
1407:.\sk_debug.c  ****     sk_PutString04("spi_sel = ",spi_sel ,CRLF_ON );
 2013              		.loc 1 1407 0
 2014 091c 2A48     		ldr	r0, .L108+56
 2015 091e 2B4B     		ldr	r3, .L108+60
 2016 0920 1978     		ldrb	r1, [r3]	@ zero_extendqisi2
 2017 0922 0122     		movs	r2, #1
 2018 0924 FFF7FEFF 		bl	sk_PutString04
 2019              	.LVL188:
1408:.\sk_debug.c  ****     sk_PutString04("tmp[0] = ",tmp[0] ,CRLF_ON );
 2020              		.loc 1 1408 0
 2021 0928 294C     		ldr	r4, .L108+64
 2022 092a 2A48     		ldr	r0, .L108+68
 2023 092c 2178     		ldrb	r1, [r4]	@ zero_extendqisi2
 2024 092e 0122     		movs	r2, #1
 2025 0930 FFF7FEFF 		bl	sk_PutString04
 2026              	.LVL189:
1409:.\sk_debug.c  ****     sk_PutString04("tmp[1] = ",tmp[1] ,CRLF_ON );
 2027              		.loc 1 1409 0
 2028 0934 2848     		ldr	r0, .L108+72
 2029 0936 6178     		ldrb	r1, [r4, #1]	@ zero_extendqisi2
 2030 0938 0122     		movs	r2, #1
 2031 093a FFF7FEFF 		bl	sk_PutString04
 2032              	.LVL190:
1410:.\sk_debug.c  ****     sk_PutString04("tmp[2] = ",tmp[2] ,CRLF_ON );
 2033              		.loc 1 1410 0
 2034 093e 2748     		ldr	r0, .L108+76
 2035 0940 A178     		ldrb	r1, [r4, #2]	@ zero_extendqisi2
 2036 0942 0122     		movs	r2, #1
 2037 0944 FFF7FEFF 		bl	sk_PutString04
 2038              	.LVL191:
1411:.\sk_debug.c  ****     sk_PutString04("tmp[3] = ",tmp[3] ,CRLF_ON );
 2039              		.loc 1 1411 0
ARM GAS  C:\Users\nosak\AppData\Local\Temp\ccBt8IvS.s 			page 62


 2040 0948 2548     		ldr	r0, .L108+80
 2041 094a E178     		ldrb	r1, [r4, #3]	@ zero_extendqisi2
 2042 094c 0122     		movs	r2, #1
 2043 094e FFF7FEFF 		bl	sk_PutString04
 2044              	.LVL192:
1412:.\sk_debug.c  ****     sk_PutString04("trobot_status1 = ",trobot_status1 ,CRLF_ON );
 2045              		.loc 1 1412 0
 2046 0952 2448     		ldr	r0, .L108+84
 2047 0954 244B     		ldr	r3, .L108+88
 2048 0956 1978     		ldrb	r1, [r3]	@ zero_extendqisi2
 2049 0958 0122     		movs	r2, #1
 2050 095a FFF7FEFF 		bl	sk_PutString04
 2051              	.LVL193:
1413:.\sk_debug.c  ****     sk_PutString04("trobot_status2 = ",trobot_status2 ,CRLF_ON );
 2052              		.loc 1 1413 0
 2053 095e 2348     		ldr	r0, .L108+92
 2054 0960 234B     		ldr	r3, .L108+96
 2055 0962 1978     		ldrb	r1, [r3]	@ zero_extendqisi2
 2056 0964 0122     		movs	r2, #1
 2057 0966 FFF7FEFF 		bl	sk_PutString04
 2058              	.LVL194:
1414:.\sk_debug.c  ****     sk_PutString04("use_smooth_chg = ",use_smooth_chg ,CRLF_ON );
 2059              		.loc 1 1414 0
 2060 096a 2248     		ldr	r0, .L108+100
 2061 096c 224B     		ldr	r3, .L108+104
 2062 096e 93F90010 		ldrsb	r1, [r3]
 2063 0972 0122     		movs	r2, #1
 2064 0974 FFF7FEFF 		bl	sk_PutString04
 2065              	.LVL195:
1415:.\sk_debug.c  **** 
1416:.\sk_debug.c  ****     sk_PutString01("**********************", CRLF_ON ); 
 2066              		.loc 1 1416 0
 2067 0978 2048     		ldr	r0, .L108+108
 2068 097a 0121     		movs	r1, #1
 2069 097c FFF7FEFF 		bl	sk_PutString01
 2070              	.LVL196:
1417:.\sk_debug.c  ****     sk_PutString04("sk_sub_cycl_int_cnt_av = ",sk_sub_cycl_int_cnt_av ,CRLF_ON );
 2071              		.loc 1 1417 0
 2072 0980 1F48     		ldr	r0, .L108+112
 2073 0982 204B     		ldr	r3, .L108+116
 2074 0984 9989     		ldrh	r1, [r3, #12]
 2075 0986 0122     		movs	r2, #1
 2076 0988 FFF7FEFF 		bl	sk_PutString04
 2077              	.LVL197:
 2078 098c 10BD     		pop	{r4, pc}
 2079              	.L109:
 2080 098e 00BF     		.align	2
 2081              	.L108:
 2082 0990 54090000 		.word	.LC136
 2083 0994 00000000 		.word	pwm_width1
 2084 0998 64090000 		.word	.LC137
 2085 099c 00000000 		.word	pwm_width2
 2086 09a0 74090000 		.word	.LC138
 2087 09a4 00000000 		.word	pwm_width3
 2088 09a8 84090000 		.word	.LC139
 2089 09ac 00000000 		.word	sign0
 2090 09b0 90090000 		.word	.LC140
ARM GAS  C:\Users\nosak\AppData\Local\Temp\ccBt8IvS.s 			page 63


 2091 09b4 00000000 		.word	sign1
 2092 09b8 9C090000 		.word	.LC141
 2093 09bc 00000000 		.word	sign2
 2094 09c0 A8090000 		.word	.LC142
 2095 09c4 00000000 		.word	sign3
 2096 09c8 B4090000 		.word	.LC143
 2097 09cc 00000000 		.word	spi_sel
 2098 09d0 00000000 		.word	tmp
 2099 09d4 C0090000 		.word	.LC144
 2100 09d8 CC090000 		.word	.LC145
 2101 09dc D8090000 		.word	.LC146
 2102 09e0 E4090000 		.word	.LC147
 2103 09e4 F0090000 		.word	.LC148
 2104 09e8 00000000 		.word	trobot_status1
 2105 09ec 040A0000 		.word	.LC149
 2106 09f0 00000000 		.word	trobot_status2
 2107 09f4 180A0000 		.word	.LC150
 2108 09f8 00000000 		.word	use_smooth_chg
 2109 09fc 2C0A0000 		.word	.LC151
 2110 0a00 440A0000 		.word	.LC152
 2111 0a04 00000000 		.word	.LANCHOR1
 2112              		.cfi_endproc
 2113              	.LFE82:
 2114              		.size	Display_parameter, .-Display_parameter
 2115              		.section	.text.Display_parameter2,"ax",%progbits
 2116              		.align	2
 2117              		.global	Display_parameter2
 2118              		.thumb
 2119              		.thumb_func
 2120              		.type	Display_parameter2, %function
 2121              	Display_parameter2:
 2122              	.LFB83:
1418:.\sk_debug.c  ****     
1419:.\sk_debug.c  **** 
1420:.\sk_debug.c  **** }
1421:.\sk_debug.c  **** //***************************************************************************
1422:.\sk_debug.c  **** //
1423:.\sk_debug.c  **** //
1424:.\sk_debug.c  **** //***************************************************************************
1425:.\sk_debug.c  **** void Display_parameter2(void)
1426:.\sk_debug.c  **** {
 2123              		.loc 1 1426 0
 2124              		.cfi_startproc
 2125              		@ args = 0, pretend = 0, frame = 0
 2126              		@ frame_needed = 0, uses_anonymous_args = 0
 2127 0000 2DE9F047 		push	{r4, r5, r6, r7, r8, r9, r10, lr}
 2128              		.cfi_def_cfa_offset 32
 2129              		.cfi_offset 4, -32
 2130              		.cfi_offset 5, -28
 2131              		.cfi_offset 6, -24
 2132              		.cfi_offset 7, -20
 2133              		.cfi_offset 8, -16
 2134              		.cfi_offset 9, -12
 2135              		.cfi_offset 10, -8
 2136              		.cfi_offset 14, -4
1427:.\sk_debug.c  **** sk_PutString01("",CRLF_ON);
 2137              		.loc 1 1427 0
ARM GAS  C:\Users\nosak\AppData\Local\Temp\ccBt8IvS.s 			page 64


 2138 0004 DFF86884 		ldr	r8, .L112+408
 2139 0008 4046     		mov	r0, r8
 2140 000a 0121     		movs	r1, #1
 2141 000c FFF7FEFF 		bl	sk_PutString01
 2142              	.LVL198:
1428:.\sk_debug.c  **** sk_PutString01("***** int16 *****",CRLF_ON);
 2143              		.loc 1 1428 0
 2144 0010 B148     		ldr	r0, .L112
 2145 0012 0121     		movs	r1, #1
 2146 0014 FFF7FEFF 		bl	sk_PutString01
 2147              	.LVL199:
1429:.\sk_debug.c  **** 
1430:.\sk_debug.c  **** sk_PutString_int16("die_temp = ",die_temp);
 2148              		.loc 1 1430 0
 2149 0018 B048     		ldr	r0, .L112+4
 2150 001a B14B     		ldr	r3, .L112+8
 2151 001c B3F90010 		ldrsh	r1, [r3]
 2152 0020 FFF7FEFF 		bl	sk_PutString_int16
 2153              	.LVL200:
1431:.\sk_debug.c  **** sk_PutString_int16("die_temp_16 = ",die_temp_16);
 2154              		.loc 1 1431 0
 2155 0024 AF48     		ldr	r0, .L112+12
 2156 0026 B04B     		ldr	r3, .L112+16
 2157 0028 B3F90010 		ldrsh	r1, [r3]
 2158 002c FFF7FEFF 		bl	sk_PutString_int16
 2159              	.LVL201:
1432:.\sk_debug.c  **** sk_PutString_int16("speedratio = ",speedratio);
 2160              		.loc 1 1432 0
 2161 0030 DFF840A4 		ldr	r10, .L112+412
 2162 0034 DFF84094 		ldr	r9, .L112+416
 2163 0038 5046     		mov	r0, r10
 2164 003a B9F90010 		ldrsh	r1, [r9]
 2165 003e FFF7FEFF 		bl	sk_PutString_int16
 2166              	.LVL202:
1433:.\sk_debug.c  **** sk_PutString_int16("ms_lf_pc = ",ms_lf_pc);
 2167              		.loc 1 1433 0
 2168 0042 AA48     		ldr	r0, .L112+20
 2169 0044 AA4B     		ldr	r3, .L112+24
 2170 0046 B3F90010 		ldrsh	r1, [r3]
 2171 004a FFF7FEFF 		bl	sk_PutString_int16
 2172              	.LVL203:
1434:.\sk_debug.c  **** sk_PutString_int16("ms_rf_pc = ",ms_rf_pc);
 2173              		.loc 1 1434 0
 2174 004e A948     		ldr	r0, .L112+28
 2175 0050 A94B     		ldr	r3, .L112+32
 2176 0052 B3F90010 		ldrsh	r1, [r3]
 2177 0056 FFF7FEFF 		bl	sk_PutString_int16
 2178              	.LVL204:
1435:.\sk_debug.c  **** sk_PutString_int16("ms_lr_pc = ",ms_lr_pc);
 2179              		.loc 1 1435 0
 2180 005a A848     		ldr	r0, .L112+36
 2181 005c A84B     		ldr	r3, .L112+40
 2182 005e B3F90010 		ldrsh	r1, [r3]
 2183 0062 FFF7FEFF 		bl	sk_PutString_int16
 2184              	.LVL205:
1436:.\sk_debug.c  **** sk_PutString_int16("ms_rr_pc = ",ms_rr_pc);
 2185              		.loc 1 1436 0
ARM GAS  C:\Users\nosak\AppData\Local\Temp\ccBt8IvS.s 			page 65


 2186 0066 A748     		ldr	r0, .L112+44
 2187 0068 A74B     		ldr	r3, .L112+48
 2188 006a B3F90010 		ldrsh	r1, [r3]
 2189 006e FFF7FEFF 		bl	sk_PutString_int16
 2190              	.LVL206:
1437:.\sk_debug.c  **** 
1438:.\sk_debug.c  **** sk_PutString_int16("MS_LF_MAIN[0] = ",MS_LF_MAIN[0]);
 2191              		.loc 1 1438 0
 2192 0072 A64F     		ldr	r7, .L112+52
 2193 0074 A648     		ldr	r0, .L112+56
 2194 0076 B7F90010 		ldrsh	r1, [r7]
 2195 007a FFF7FEFF 		bl	sk_PutString_int16
 2196              	.LVL207:
1439:.\sk_debug.c  **** sk_PutString_int16("MS_RF_MAIN[0] = ",MS_RF_MAIN[0]);
 2197              		.loc 1 1439 0
 2198 007e A54E     		ldr	r6, .L112+60
 2199 0080 A548     		ldr	r0, .L112+64
 2200 0082 B6F90010 		ldrsh	r1, [r6]
 2201 0086 FFF7FEFF 		bl	sk_PutString_int16
 2202              	.LVL208:
1440:.\sk_debug.c  **** sk_PutString_int16("MS_LR_MAIN[0] = ",MS_LR_MAIN[0]);
 2203              		.loc 1 1440 0
 2204 008a A44D     		ldr	r5, .L112+68
 2205 008c A448     		ldr	r0, .L112+72
 2206 008e B5F90010 		ldrsh	r1, [r5]
 2207 0092 FFF7FEFF 		bl	sk_PutString_int16
 2208              	.LVL209:
1441:.\sk_debug.c  **** sk_PutString_int16("MS_RR_MAIN[0] = ",MS_RR_MAIN[0]);
 2209              		.loc 1 1441 0
 2210 0096 A34C     		ldr	r4, .L112+76
 2211 0098 A348     		ldr	r0, .L112+80
 2212 009a B4F90010 		ldrsh	r1, [r4]
 2213 009e FFF7FEFF 		bl	sk_PutString_int16
 2214              	.LVL210:
1442:.\sk_debug.c  **** 
1443:.\sk_debug.c  **** sk_PutString_int16("MS_LF_MAIN[1] = ",MS_LF_MAIN[1]);
 2215              		.loc 1 1443 0
 2216 00a2 A248     		ldr	r0, .L112+84
 2217 00a4 B7F90210 		ldrsh	r1, [r7, #2]
 2218 00a8 FFF7FEFF 		bl	sk_PutString_int16
 2219              	.LVL211:
1444:.\sk_debug.c  **** sk_PutString_int16("MS_RF_MAIN[1] = ",MS_RF_MAIN[1]);
 2220              		.loc 1 1444 0
 2221 00ac A048     		ldr	r0, .L112+88
 2222 00ae B6F90210 		ldrsh	r1, [r6, #2]
 2223 00b2 FFF7FEFF 		bl	sk_PutString_int16
 2224              	.LVL212:
1445:.\sk_debug.c  **** sk_PutString_int16("MS_LR_MAIN[1] = ",MS_LR_MAIN[1]);
 2225              		.loc 1 1445 0
 2226 00b6 9F48     		ldr	r0, .L112+92
 2227 00b8 B5F90210 		ldrsh	r1, [r5, #2]
 2228 00bc FFF7FEFF 		bl	sk_PutString_int16
 2229              	.LVL213:
1446:.\sk_debug.c  **** sk_PutString_int16("MS_RR_MAIN[1] = ",MS_RR_MAIN[1]);
 2230              		.loc 1 1446 0
 2231 00c0 9D48     		ldr	r0, .L112+96
 2232 00c2 B4F90210 		ldrsh	r1, [r4, #2]
ARM GAS  C:\Users\nosak\AppData\Local\Temp\ccBt8IvS.s 			page 66


 2233 00c6 FFF7FEFF 		bl	sk_PutString_int16
 2234              	.LVL214:
1447:.\sk_debug.c  **** 
1448:.\sk_debug.c  **** sk_PutString_int16("MS_LF_MAIN[2] = ",MS_LF_MAIN[2]);
 2235              		.loc 1 1448 0
 2236 00ca 9C48     		ldr	r0, .L112+100
 2237 00cc B7F90410 		ldrsh	r1, [r7, #4]
 2238 00d0 FFF7FEFF 		bl	sk_PutString_int16
 2239              	.LVL215:
1449:.\sk_debug.c  **** sk_PutString_int16("MS_RF_MAIN[2] = ",MS_RF_MAIN[2]);
 2240              		.loc 1 1449 0
 2241 00d4 9A48     		ldr	r0, .L112+104
 2242 00d6 B6F90410 		ldrsh	r1, [r6, #4]
 2243 00da FFF7FEFF 		bl	sk_PutString_int16
 2244              	.LVL216:
1450:.\sk_debug.c  **** sk_PutString_int16("MS_LR_MAIN[2] = ",MS_LR_MAIN[2]);
 2245              		.loc 1 1450 0
 2246 00de 9948     		ldr	r0, .L112+108
 2247 00e0 B5F90410 		ldrsh	r1, [r5, #4]
 2248 00e4 FFF7FEFF 		bl	sk_PutString_int16
 2249              	.LVL217:
1451:.\sk_debug.c  **** sk_PutString_int16("MS_RR_MAIN[2] = ",MS_RR_MAIN[2]);
 2250              		.loc 1 1451 0
 2251 00e8 9748     		ldr	r0, .L112+112
 2252 00ea B4F90410 		ldrsh	r1, [r4, #4]
 2253 00ee FFF7FEFF 		bl	sk_PutString_int16
 2254              	.LVL218:
1452:.\sk_debug.c  **** 
1453:.\sk_debug.c  **** sk_PutString_int16("ms_lf_com_tx = ",ms_lf_com_tx);
 2255              		.loc 1 1453 0
 2256 00f2 9648     		ldr	r0, .L112+116
 2257 00f4 964B     		ldr	r3, .L112+120
 2258 00f6 B3F90010 		ldrsh	r1, [r3]
 2259 00fa FFF7FEFF 		bl	sk_PutString_int16
 2260              	.LVL219:
1454:.\sk_debug.c  **** sk_PutString_int16("ms_rf_com_tx = ",ms_rf_com_tx);
 2261              		.loc 1 1454 0
 2262 00fe 9548     		ldr	r0, .L112+124
 2263 0100 954B     		ldr	r3, .L112+128
 2264 0102 B3F90010 		ldrsh	r1, [r3]
 2265 0106 FFF7FEFF 		bl	sk_PutString_int16
 2266              	.LVL220:
1455:.\sk_debug.c  **** sk_PutString_int16("ms_lr_com_tx = ",ms_lr_com_tx);
 2267              		.loc 1 1455 0
 2268 010a 9448     		ldr	r0, .L112+132
 2269 010c 944B     		ldr	r3, .L112+136
 2270 010e B3F90010 		ldrsh	r1, [r3]
 2271 0112 FFF7FEFF 		bl	sk_PutString_int16
 2272              	.LVL221:
1456:.\sk_debug.c  **** sk_PutString_int16("ms_rr_com_tx = ",ms_rr_com_tx);
 2273              		.loc 1 1456 0
 2274 0116 9348     		ldr	r0, .L112+140
 2275 0118 934B     		ldr	r3, .L112+144
 2276 011a B3F90010 		ldrsh	r1, [r3]
 2277 011e FFF7FEFF 		bl	sk_PutString_int16
 2278              	.LVL222:
1457:.\sk_debug.c  **** sk_PutString_int16("speedratio = ",speedratio);
ARM GAS  C:\Users\nosak\AppData\Local\Temp\ccBt8IvS.s 			page 67


 2279              		.loc 1 1457 0
 2280 0122 5046     		mov	r0, r10
 2281 0124 B9F90010 		ldrsh	r1, [r9]
 2282 0128 FFF7FEFF 		bl	sk_PutString_int16
 2283              	.LVL223:
1458:.\sk_debug.c  **** sk_PutString_int16("max_spd_chg = ",max_spd_chg);
 2284              		.loc 1 1458 0
 2285 012c 8F48     		ldr	r0, .L112+148
 2286 012e 904B     		ldr	r3, .L112+152
 2287 0130 B3F90010 		ldrsh	r1, [r3]
 2288 0134 FFF7FEFF 		bl	sk_PutString_int16
 2289              	.LVL224:
1459:.\sk_debug.c  **** sk_PutString_int16("acc_limit_f_i16 = ",acc_limit_f_i16);
 2290              		.loc 1 1459 0
 2291 0138 8E48     		ldr	r0, .L112+156
 2292 013a 8F4B     		ldr	r3, .L112+160
 2293 013c B3F90010 		ldrsh	r1, [r3]
 2294 0140 FFF7FEFF 		bl	sk_PutString_int16
 2295              	.LVL225:
1460:.\sk_debug.c  **** sk_PutString_int16("acc_limit_r_i16 = ",acc_limit_r_i16);
 2296              		.loc 1 1460 0
 2297 0144 8D48     		ldr	r0, .L112+164
 2298 0146 8E4B     		ldr	r3, .L112+168
 2299 0148 B3F90010 		ldrsh	r1, [r3]
 2300 014c FFF7FEFF 		bl	sk_PutString_int16
 2301              	.LVL226:
1461:.\sk_debug.c  **** sk_PutString_int16("acc_limit_s_i16 = ",acc_limit_s_i16);
 2302              		.loc 1 1461 0
 2303 0150 8C48     		ldr	r0, .L112+172
 2304 0152 8D4B     		ldr	r3, .L112+176
 2305 0154 B3F90010 		ldrsh	r1, [r3]
 2306 0158 FFF7FEFF 		bl	sk_PutString_int16
 2307              	.LVL227:
1462:.\sk_debug.c  **** sk_PutString_int16("safty_const_i16 = ",safty_const_i16);
 2308              		.loc 1 1462 0
 2309 015c 8B48     		ldr	r0, .L112+180
 2310 015e 8C4B     		ldr	r3, .L112+184
 2311 0160 B3F90010 		ldrsh	r1, [r3]
 2312 0164 FFF7FEFF 		bl	sk_PutString_int16
 2313              	.LVL228:
1463:.\sk_debug.c  **** sk_PutString_int16("kvp_i16 = ",kvp_i16);
 2314              		.loc 1 1463 0
 2315 0168 8A48     		ldr	r0, .L112+188
 2316 016a 8B4B     		ldr	r3, .L112+192
 2317 016c B3F90010 		ldrsh	r1, [r3]
 2318 0170 FFF7FEFF 		bl	sk_PutString_int16
 2319              	.LVL229:
1464:.\sk_debug.c  **** sk_PutString_int16("kcp_i16 = ",kcp_i16);
 2320              		.loc 1 1464 0
 2321 0174 8948     		ldr	r0, .L112+196
 2322 0176 8A4B     		ldr	r3, .L112+200
 2323 0178 B3F90010 		ldrsh	r1, [r3]
 2324 017c FFF7FEFF 		bl	sk_PutString_int16
 2325              	.LVL230:
1465:.\sk_debug.c  **** sk_PutString_int16("kvi_i16 = ",kvi_i16);
 2326              		.loc 1 1465 0
 2327 0180 8848     		ldr	r0, .L112+204
ARM GAS  C:\Users\nosak\AppData\Local\Temp\ccBt8IvS.s 			page 68


 2328 0182 894B     		ldr	r3, .L112+208
 2329 0184 B3F90010 		ldrsh	r1, [r3]
 2330 0188 FFF7FEFF 		bl	sk_PutString_int16
 2331              	.LVL231:
1466:.\sk_debug.c  **** sk_PutString_int16("kci_i16 = ",kci_i16);
 2332              		.loc 1 1466 0
 2333 018c 8748     		ldr	r0, .L112+212
 2334 018e 884B     		ldr	r3, .L112+216
 2335 0190 B3F90010 		ldrsh	r1, [r3]
 2336 0194 FFF7FEFF 		bl	sk_PutString_int16
 2337              	.LVL232:
1467:.\sk_debug.c  **** sk_PutString_int16("kdl_i16 = ",kdl_i16);
 2338              		.loc 1 1467 0
 2339 0198 8648     		ldr	r0, .L112+220
 2340 019a 874B     		ldr	r3, .L112+224
 2341 019c B3F90010 		ldrsh	r1, [r3]
 2342 01a0 FFF7FEFF 		bl	sk_PutString_int16
 2343              	.LVL233:
1468:.\sk_debug.c  **** sk_PutString_int16("kdr_i16 = ",kdr_i16);
 2344              		.loc 1 1468 0
 2345 01a4 8548     		ldr	r0, .L112+228
 2346 01a6 864B     		ldr	r3, .L112+232
 2347 01a8 B3F90010 		ldrsh	r1, [r3]
 2348 01ac FFF7FEFF 		bl	sk_PutString_int16
 2349              	.LVL234:
1469:.\sk_debug.c  **** sk_PutString_int16("satv_i16 = ",satv_i16);
 2350              		.loc 1 1469 0
 2351 01b0 8448     		ldr	r0, .L112+236
 2352 01b2 854B     		ldr	r3, .L112+240
 2353 01b4 B3F90010 		ldrsh	r1, [r3]
 2354 01b8 FFF7FEFF 		bl	sk_PutString_int16
 2355              	.LVL235:
1470:.\sk_debug.c  **** sk_PutString_int16("satc_i16 = ",satc_i16);
 2356              		.loc 1 1470 0
 2357 01bc 8348     		ldr	r0, .L112+244
 2358 01be 844B     		ldr	r3, .L112+248
 2359 01c0 B3F90010 		ldrsh	r1, [r3]
 2360 01c4 FFF7FEFF 		bl	sk_PutString_int16
 2361              	.LVL236:
1471:.\sk_debug.c  **** 
1472:.\sk_debug.c  **** 
1473:.\sk_debug.c  **** sk_PutString01("",CRLF_ON);
 2362              		.loc 1 1473 0
 2363 01c8 4046     		mov	r0, r8
 2364 01ca 0121     		movs	r1, #1
 2365 01cc FFF7FEFF 		bl	sk_PutString01
 2366              	.LVL237:
1474:.\sk_debug.c  **** sk_PutString01("***** int8 *****",CRLF_ON);
 2367              		.loc 1 1474 0
 2368 01d0 8048     		ldr	r0, .L112+252
 2369 01d2 0121     		movs	r1, #1
 2370 01d4 FFF7FEFF 		bl	sk_PutString01
 2371              	.LVL238:
1475:.\sk_debug.c  **** sk_PutString_int8("die_temp_flag = ",die_temp_flag);
 2372              		.loc 1 1475 0
 2373 01d8 7F48     		ldr	r0, .L112+256
 2374 01da 804B     		ldr	r3, .L112+260
ARM GAS  C:\Users\nosak\AppData\Local\Temp\ccBt8IvS.s 			page 69


 2375 01dc 93F90010 		ldrsb	r1, [r3]
 2376 01e0 FFF7FEFF 		bl	sk_PutString_int8
 2377              	.LVL239:
1476:.\sk_debug.c  **** sk_PutString_int8("logmode = ",logmode);
 2378              		.loc 1 1476 0
 2379 01e4 7E48     		ldr	r0, .L112+264
 2380 01e6 7F4B     		ldr	r3, .L112+268
 2381 01e8 93F90010 		ldrsb	r1, [r3]
 2382 01ec FFF7FEFF 		bl	sk_PutString_int8
 2383              	.LVL240:
1477:.\sk_debug.c  **** sk_PutString_int8("direct_cnt = ",direct_cnt);
 2384              		.loc 1 1477 0
 2385 01f0 7D48     		ldr	r0, .L112+272
 2386 01f2 7E4B     		ldr	r3, .L112+276
 2387 01f4 93F90010 		ldrsb	r1, [r3]
 2388 01f8 FFF7FEFF 		bl	sk_PutString_int8
 2389              	.LVL241:
1478:.\sk_debug.c  **** sk_PutString_int8("em_stop_en = ",em_stop_en);
 2390              		.loc 1 1478 0
 2391 01fc 7C48     		ldr	r0, .L112+280
 2392 01fe 7D4B     		ldr	r3, .L112+284
 2393 0200 93F90010 		ldrsb	r1, [r3]
 2394 0204 FFF7FEFF 		bl	sk_PutString_int8
 2395              	.LVL242:
1479:.\sk_debug.c  **** sk_PutString_int8("use_smooth_chg = ",use_smooth_chg);
 2396              		.loc 1 1479 0
 2397 0208 7B48     		ldr	r0, .L112+288
 2398 020a 7C4B     		ldr	r3, .L112+292
 2399 020c 93F90010 		ldrsb	r1, [r3]
 2400 0210 FFF7FEFF 		bl	sk_PutString_int8
 2401              	.LVL243:
1480:.\sk_debug.c  **** sk_PutString_int8("measure_sensor = ",measure_sensor);
 2402              		.loc 1 1480 0
 2403 0214 7A48     		ldr	r0, .L112+296
 2404 0216 7B4B     		ldr	r3, .L112+300
 2405 0218 93F90010 		ldrsb	r1, [r3]
 2406 021c FFF7FEFF 		bl	sk_PutString_int8
 2407              	.LVL244:
1481:.\sk_debug.c  **** sk_PutString_int8("motorassign[0] = ",motorassign[0]);
 2408              		.loc 1 1481 0
 2409 0220 794C     		ldr	r4, .L112+304
 2410 0222 7A48     		ldr	r0, .L112+308
 2411 0224 94F90010 		ldrsb	r1, [r4]
 2412 0228 FFF7FEFF 		bl	sk_PutString_int8
 2413              	.LVL245:
1482:.\sk_debug.c  **** sk_PutString_int8("motorassign[1] = ",motorassign[1]);
 2414              		.loc 1 1482 0
 2415 022c 7848     		ldr	r0, .L112+312
 2416 022e 94F90110 		ldrsb	r1, [r4, #1]
 2417 0232 FFF7FEFF 		bl	sk_PutString_int8
 2418              	.LVL246:
1483:.\sk_debug.c  **** sk_PutString_int8("motorassign[2] = ",motorassign[2]);
 2419              		.loc 1 1483 0
 2420 0236 7748     		ldr	r0, .L112+316
 2421 0238 94F90210 		ldrsb	r1, [r4, #2]
 2422 023c FFF7FEFF 		bl	sk_PutString_int8
 2423              	.LVL247:
ARM GAS  C:\Users\nosak\AppData\Local\Temp\ccBt8IvS.s 			page 70


1484:.\sk_debug.c  **** sk_PutString_int8("motorassign[3] = ",motorassign[3]);
 2424              		.loc 1 1484 0
 2425 0240 7548     		ldr	r0, .L112+320
 2426 0242 94F90310 		ldrsb	r1, [r4, #3]
 2427 0246 FFF7FEFF 		bl	sk_PutString_int8
 2428              	.LVL248:
1485:.\sk_debug.c  **** sk_PutString_int8("encassign[0] = ",encassign[0]);
 2429              		.loc 1 1485 0
 2430 024a 744C     		ldr	r4, .L112+324
 2431 024c 7448     		ldr	r0, .L112+328
 2432 024e 94F90010 		ldrsb	r1, [r4]
 2433 0252 FFF7FEFF 		bl	sk_PutString_int8
 2434              	.LVL249:
1486:.\sk_debug.c  **** sk_PutString_int8("encassign[1] = ",encassign[1]);
 2435              		.loc 1 1486 0
 2436 0256 7348     		ldr	r0, .L112+332
 2437 0258 94F90110 		ldrsb	r1, [r4, #1]
 2438 025c FFF7FEFF 		bl	sk_PutString_int8
 2439              	.LVL250:
1487:.\sk_debug.c  **** sk_PutString_int8("encassign[2] = ",encassign[2]);
 2440              		.loc 1 1487 0
 2441 0260 7148     		ldr	r0, .L112+336
 2442 0262 94F90210 		ldrsb	r1, [r4, #2]
 2443 0266 FFF7FEFF 		bl	sk_PutString_int8
 2444              	.LVL251:
1488:.\sk_debug.c  **** sk_PutString_int8("encassign[3] = ",encassign[3]);
 2445              		.loc 1 1488 0
 2446 026a 7048     		ldr	r0, .L112+340
 2447 026c 94F90310 		ldrsb	r1, [r4, #3]
 2448 0270 FFF7FEFF 		bl	sk_PutString_int8
 2449              	.LVL252:
1489:.\sk_debug.c  **** sk_PutString_int8("cw0 = ",cw0);
 2450              		.loc 1 1489 0
 2451 0274 6E48     		ldr	r0, .L112+344
 2452 0276 6F4B     		ldr	r3, .L112+348
 2453 0278 93F90010 		ldrsb	r1, [r3]
 2454 027c FFF7FEFF 		bl	sk_PutString_int8
 2455              	.LVL253:
1490:.\sk_debug.c  **** sk_PutString_int8("cw1 = ",cw1);
 2456              		.loc 1 1490 0
 2457 0280 6D48     		ldr	r0, .L112+352
 2458 0282 6E4B     		ldr	r3, .L112+356
 2459 0284 93F90010 		ldrsb	r1, [r3]
 2460 0288 FFF7FEFF 		bl	sk_PutString_int8
 2461              	.LVL254:
1491:.\sk_debug.c  **** sk_PutString_int8("cw2 = ",cw2);
 2462              		.loc 1 1491 0
 2463 028c 6C48     		ldr	r0, .L112+360
 2464 028e 6D4B     		ldr	r3, .L112+364
 2465 0290 93F90010 		ldrsb	r1, [r3]
 2466 0294 FFF7FEFF 		bl	sk_PutString_int8
 2467              	.LVL255:
1492:.\sk_debug.c  **** sk_PutString_int8("cw3 = ",cw3);
 2468              		.loc 1 1492 0
 2469 0298 6B48     		ldr	r0, .L112+368
 2470 029a 6C4B     		ldr	r3, .L112+372
 2471 029c 93F90010 		ldrsb	r1, [r3]
ARM GAS  C:\Users\nosak\AppData\Local\Temp\ccBt8IvS.s 			page 71


 2472 02a0 FFF7FEFF 		bl	sk_PutString_int8
 2473              	.LVL256:
1493:.\sk_debug.c  **** sk_PutString_int8("encd0 = ",encd0);
 2474              		.loc 1 1493 0
 2475 02a4 6A48     		ldr	r0, .L112+376
 2476 02a6 6B4B     		ldr	r3, .L112+380
 2477 02a8 93F90010 		ldrsb	r1, [r3]
 2478 02ac FFF7FEFF 		bl	sk_PutString_int8
 2479              	.LVL257:
1494:.\sk_debug.c  **** sk_PutString_int8("encd1 = ",encd1);
 2480              		.loc 1 1494 0
 2481 02b0 6948     		ldr	r0, .L112+384
 2482 02b2 6A4B     		ldr	r3, .L112+388
 2483 02b4 93F90010 		ldrsb	r1, [r3]
 2484 02b8 FFF7FEFF 		bl	sk_PutString_int8
 2485              	.LVL258:
1495:.\sk_debug.c  **** sk_PutString_int8("encd2 = ",encd2);
 2486              		.loc 1 1495 0
 2487 02bc 6848     		ldr	r0, .L112+392
 2488 02be 694B     		ldr	r3, .L112+396
 2489 02c0 93F90010 		ldrsb	r1, [r3]
 2490 02c4 FFF7FEFF 		bl	sk_PutString_int8
 2491              	.LVL259:
1496:.\sk_debug.c  **** sk_PutString_int8("encd3 = ",encd3);
 2492              		.loc 1 1496 0
 2493 02c8 6748     		ldr	r0, .L112+400
 2494 02ca 684B     		ldr	r3, .L112+404
 2495 02cc 93F90010 		ldrsb	r1, [r3]
 2496 02d0 FFF7FEFF 		bl	sk_PutString_int8
 2497              	.LVL260:
 2498 02d4 BDE8F087 		pop	{r4, r5, r6, r7, r8, r9, r10, pc}
 2499              	.L113:
 2500              		.align	2
 2501              	.L112:
 2502 02d8 600A0000 		.word	.LC153
 2503 02dc 740A0000 		.word	.LC154
 2504 02e0 00000000 		.word	die_temp
 2505 02e4 800A0000 		.word	.LC155
 2506 02e8 00000000 		.word	die_temp_16
 2507 02ec A00A0000 		.word	.LC157
 2508 02f0 00000000 		.word	ms_lf_pc
 2509 02f4 AC0A0000 		.word	.LC158
 2510 02f8 00000000 		.word	ms_rf_pc
 2511 02fc B80A0000 		.word	.LC159
 2512 0300 00000000 		.word	ms_lr_pc
 2513 0304 C40A0000 		.word	.LC160
 2514 0308 00000000 		.word	ms_rr_pc
 2515 030c 00000000 		.word	MS_LF_MAIN
 2516 0310 D00A0000 		.word	.LC161
 2517 0314 00000000 		.word	MS_RF_MAIN
 2518 0318 E40A0000 		.word	.LC162
 2519 031c 00000000 		.word	MS_LR_MAIN
 2520 0320 F80A0000 		.word	.LC163
 2521 0324 00000000 		.word	MS_RR_MAIN
 2522 0328 0C0B0000 		.word	.LC164
 2523 032c 200B0000 		.word	.LC165
 2524 0330 340B0000 		.word	.LC166
ARM GAS  C:\Users\nosak\AppData\Local\Temp\ccBt8IvS.s 			page 72


 2525 0334 480B0000 		.word	.LC167
 2526 0338 5C0B0000 		.word	.LC168
 2527 033c 700B0000 		.word	.LC169
 2528 0340 840B0000 		.word	.LC170
 2529 0344 980B0000 		.word	.LC171
 2530 0348 AC0B0000 		.word	.LC172
 2531 034c C00B0000 		.word	.LC173
 2532 0350 00000000 		.word	ms_lf_com_tx
 2533 0354 D00B0000 		.word	.LC174
 2534 0358 00000000 		.word	ms_rf_com_tx
 2535 035c E00B0000 		.word	.LC175
 2536 0360 00000000 		.word	ms_lr_com_tx
 2537 0364 F00B0000 		.word	.LC176
 2538 0368 00000000 		.word	ms_rr_com_tx
 2539 036c 48010000 		.word	.LC25
 2540 0370 00000000 		.word	max_spd_chg
 2541 0374 10020000 		.word	.LC36
 2542 0378 00000000 		.word	acc_limit_f_i16
 2543 037c 24020000 		.word	.LC37
 2544 0380 00000000 		.word	acc_limit_r_i16
 2545 0384 38020000 		.word	.LC38
 2546 0388 00000000 		.word	acc_limit_s_i16
 2547 038c 4C020000 		.word	.LC39
 2548 0390 00000000 		.word	safty_const_i16
 2549 0394 60020000 		.word	.LC40
 2550 0398 00000000 		.word	kvp_i16
 2551 039c 6C020000 		.word	.LC41
 2552 03a0 00000000 		.word	kcp_i16
 2553 03a4 78020000 		.word	.LC42
 2554 03a8 00000000 		.word	kvi_i16
 2555 03ac 84020000 		.word	.LC43
 2556 03b0 00000000 		.word	kci_i16
 2557 03b4 90020000 		.word	.LC44
 2558 03b8 00000000 		.word	kdl_i16
 2559 03bc 9C020000 		.word	.LC45
 2560 03c0 00000000 		.word	kdr_i16
 2561 03c4 A8020000 		.word	.LC46
 2562 03c8 00000000 		.word	satv_i16
 2563 03cc B4020000 		.word	.LC47
 2564 03d0 00000000 		.word	satc_i16
 2565 03d4 000C0000 		.word	.LC177
 2566 03d8 140C0000 		.word	.LC178
 2567 03dc 00000000 		.word	die_temp_flag
 2568 03e0 280C0000 		.word	.LC179
 2569 03e4 00000000 		.word	logmode
 2570 03e8 340C0000 		.word	.LC180
 2571 03ec 00000000 		.word	direct_cnt
 2572 03f0 440C0000 		.word	.LC181
 2573 03f4 00000000 		.word	em_stop_en
 2574 03f8 180A0000 		.word	.LC150
 2575 03fc 00000000 		.word	use_smooth_chg
 2576 0400 00090000 		.word	.LC131
 2577 0404 00000000 		.word	measure_sensor
 2578 0408 00000000 		.word	motorassign
 2579 040c 540C0000 		.word	.LC182
 2580 0410 680C0000 		.word	.LC183
 2581 0414 7C0C0000 		.word	.LC184
ARM GAS  C:\Users\nosak\AppData\Local\Temp\ccBt8IvS.s 			page 73


 2582 0418 900C0000 		.word	.LC185
 2583 041c 00000000 		.word	encassign
 2584 0420 A40C0000 		.word	.LC186
 2585 0424 B40C0000 		.word	.LC187
 2586 0428 C40C0000 		.word	.LC188
 2587 042c D40C0000 		.word	.LC189
 2588 0430 28030000 		.word	.LC57
 2589 0434 00000000 		.word	cw0
 2590 0438 30030000 		.word	.LC58
 2591 043c 00000000 		.word	cw1
 2592 0440 38030000 		.word	.LC59
 2593 0444 00000000 		.word	cw2
 2594 0448 40030000 		.word	.LC60
 2595 044c 00000000 		.word	cw3
 2596 0450 BC030000 		.word	.LC68
 2597 0454 00000000 		.word	encd0
 2598 0458 C8030000 		.word	.LC69
 2599 045c 00000000 		.word	encd1
 2600 0460 D4030000 		.word	.LC70
 2601 0464 00000000 		.word	encd2
 2602 0468 E0030000 		.word	.LC71
 2603 046c 00000000 		.word	encd3
 2604 0470 C8000000 		.word	.LC15
 2605 0474 900A0000 		.word	.LC156
 2606 0478 00000000 		.word	speedratio
 2607              		.cfi_endproc
 2608              	.LFE83:
 2609              		.size	Display_parameter2, .-Display_parameter2
 2610              		.section	.text.Display_Com_parameter,"ax",%progbits
 2611              		.align	2
 2612              		.global	Display_Com_parameter
 2613              		.thumb
 2614              		.thumb_func
 2615              		.type	Display_Com_parameter, %function
 2616              	Display_Com_parameter:
 2617              	.LFB85:
1497:.\sk_debug.c  **** 
1498:.\sk_debug.c  **** 
1499:.\sk_debug.c  **** 
1500:.\sk_debug.c  ****     
1501:.\sk_debug.c  **** 
1502:.\sk_debug.c  **** }
1503:.\sk_debug.c  **** //***************************************************************************
1504:.\sk_debug.c  **** //
1505:.\sk_debug.c  **** //
1506:.\sk_debug.c  **** //***************************************************************************
1507:.\sk_debug.c  **** void Display_parameter3(void)
1508:.\sk_debug.c  **** {
1509:.\sk_debug.c  ****     
1510:.\sk_debug.c  **** sk_PutString01("",CRLF_ON);
1511:.\sk_debug.c  **** sk_PutString01("***** float *****",CRLF_ON);
1512:.\sk_debug.c  **** 
1513:.\sk_debug.c  **** sk_PutString_float("gear_ratio = ",gear_ratio);
1514:.\sk_debug.c  **** sk_PutString_float("dim_wheel = ",dim_wheel);
1515:.\sk_debug.c  **** sk_PutString_float("dist_wheel = ",dist_wheel);
1516:.\sk_debug.c  **** sk_PutString_float("toruque_const = ",toruque_const);
1517:.\sk_debug.c  **** sk_PutString_float("speed_const = ",speed_const);
ARM GAS  C:\Users\nosak\AppData\Local\Temp\ccBt8IvS.s 			page 74


1518:.\sk_debug.c  **** sk_PutString_float("spd_torq_grad = ",spd_torq_grad);
1519:.\sk_debug.c  **** sk_PutString_float("acc_limit_f = ",acc_limit_f);
1520:.\sk_debug.c  **** sk_PutString_float("acc_limit_r = ",acc_limit_r);
1521:.\sk_debug.c  **** sk_PutString_float("acc_limit_s = ",acc_limit_s);
1522:.\sk_debug.c  **** sk_PutString_float("safty_const  = ",safty_const );
1523:.\sk_debug.c  **** sk_PutString_float("kvp = ",kvp);
1524:.\sk_debug.c  **** sk_PutString_float("kcp = ",kcp);
1525:.\sk_debug.c  **** sk_PutString_float("kvi = ",kvi);
1526:.\sk_debug.c  **** sk_PutString_float("kci = ",kci);
1527:.\sk_debug.c  **** sk_PutString_float("kdl = ",kdl);
1528:.\sk_debug.c  **** sk_PutString_float("kdr = ",kdr);
1529:.\sk_debug.c  **** sk_PutString_float("satv = ",satv);
1530:.\sk_debug.c  **** sk_PutString_float("satc  = ",satc );
1531:.\sk_debug.c  **** sk_PutString_float("ratio_rpm = ",ratio_rpm);
1532:.\sk_debug.c  **** sk_PutString_float("rpm2velo_ratio = ",rpm2velo_ratio);
1533:.\sk_debug.c  **** 
1534:.\sk_debug.c  **** sk_PutString01("",CRLF_ON);
1535:.\sk_debug.c  **** sk_PutString01("***** int32 *****",CRLF_ON);
1536:.\sk_debug.c  ****     sk_PutString_int32("axis9[0] =  ",axis9[0]);
1537:.\sk_debug.c  ****     sk_PutString_int32("axis9[1] =  ",axis9[1]);
1538:.\sk_debug.c  ****     sk_PutString_int32("axis9[2] =  ",axis9[2]);
1539:.\sk_debug.c  ****     sk_PutString_int32("axis9[3] =  ",axis9[3]);
1540:.\sk_debug.c  ****     sk_PutString_int32("axis9[4] =  ",axis9[4]);
1541:.\sk_debug.c  ****     sk_PutString_int32("axis9[5] =  ",axis9[5]);
1542:.\sk_debug.c  ****     sk_PutString_int32("axis9[6] =  ",axis9[6]);
1543:.\sk_debug.c  ****     sk_PutString_int32("axis9[7] =  ",axis9[7]);
1544:.\sk_debug.c  ****     sk_PutString_int32("axis9[8] =  ",axis9[8]);
1545:.\sk_debug.c  ****     sk_PutString_int32("axis9[9] =  ",axis9[9]);
1546:.\sk_debug.c  ****     sk_PutString_int32("getcom_count =  ",getcom_count);
1547:.\sk_debug.c  ****     sk_PutString_int32("getcom_count_buf =  ",getcom_count_buf);
1548:.\sk_debug.c  ****     sk_PutString_int32("getcom_count_para =  ",getcom_count_para);
1549:.\sk_debug.c  ****     sk_PutString_int32("getcom_flag =  ",getcom_flag);
1550:.\sk_debug.c  ****     sk_PutString_int32("getcom_watch =  ",getcom_watch);
1551:.\sk_debug.c  ****     sk_PutString_int32("ms00_pw =  ",ms00_pw);
1552:.\sk_debug.c  ****     sk_PutString_int32("ms01_pw =  ",ms01_pw);
1553:.\sk_debug.c  ****     sk_PutString_int32("ms02_pw =  ",ms02_pw);
1554:.\sk_debug.c  ****     sk_PutString_int32("ms03_pw =  ",ms03_pw);
1555:.\sk_debug.c  ****     sk_PutString_int32("out2_tag_cycle =  ",out2_tag_cycle);
1556:.\sk_debug.c  ****     sk_PutString_int32("out2_tagpos =  ",out2_tagpos);
1557:.\sk_debug.c  ****     sk_PutString_int32("out2len =  ",out2len);
1558:.\sk_debug.c  ****     sk_PutString_int32("out2pos =  ",out2pos);
1559:.\sk_debug.c  ****     sk_PutString_int32("output_tmp[0] =  ",output_tmp[0]);
1560:.\sk_debug.c  ****     sk_PutString_int32("output_tmp[1] =  ",output_tmp[1]);
1561:.\sk_debug.c  ****     sk_PutString_int32("output_tmp[2] =  ",output_tmp[2]);
1562:.\sk_debug.c  ****     sk_PutString_int32("output_tmp[3] =  ",output_tmp[3]);
1563:.\sk_debug.c  ****     sk_PutString_int32("sendcom_flag =  ",sendcom_flag);
1564:.\sk_debug.c  ****     sk_PutString_int32("speed_lf =  ",speed_lf);
1565:.\sk_debug.c  ****     sk_PutString_int32("speed_lf_buf =  ",speed_lf_buf);
1566:.\sk_debug.c  ****     sk_PutString_int32("speed_lf_delta =  ",speed_lf_delta);
1567:.\sk_debug.c  ****     sk_PutString_int32("speed_lf_pre =  ",speed_lf_pre);
1568:.\sk_debug.c  ****     sk_PutString_int32("speed_lr =  ",speed_lr);
1569:.\sk_debug.c  ****     sk_PutString_int32("speed_lr_buf =  ",speed_lr_buf);
1570:.\sk_debug.c  ****     sk_PutString_int32("speed_lr_delta =  ",speed_lr_delta);
1571:.\sk_debug.c  ****     sk_PutString_int32("speed_lr_pre =  ",speed_lr_pre);
1572:.\sk_debug.c  ****     sk_PutString_int32("speed_rf =  ",speed_rf);
1573:.\sk_debug.c  ****     sk_PutString_int32("speed_rf_buf =  ",speed_rf_buf);
1574:.\sk_debug.c  ****     sk_PutString_int32("speed_rf_delta =  ",speed_rf_delta);
ARM GAS  C:\Users\nosak\AppData\Local\Temp\ccBt8IvS.s 			page 75


1575:.\sk_debug.c  ****     sk_PutString_int32("speed_rf_pre =  ",speed_rf_pre);
1576:.\sk_debug.c  ****     sk_PutString_int32("speed_rr =  ",speed_rr);
1577:.\sk_debug.c  ****     sk_PutString_int32("speed_rr_buf =  ",speed_rr_buf);
1578:.\sk_debug.c  ****     sk_PutString_int32("speed_rr_delta  =  ",speed_rr_delta );
1579:.\sk_debug.c  ****     sk_PutString_int32("speed_rr_pre =  ",speed_rr_pre);
1580:.\sk_debug.c  **** 
1581:.\sk_debug.c  **** 
1582:.\sk_debug.c  **** }
1583:.\sk_debug.c  **** //***************************************************************************
1584:.\sk_debug.c  **** //
1585:.\sk_debug.c  **** //
1586:.\sk_debug.c  **** //***************************************************************************
1587:.\sk_debug.c  **** 
1588:.\sk_debug.c  **** void Display_Com_parameter(void)
1589:.\sk_debug.c  **** {
 2618              		.loc 1 1589 0
 2619              		.cfi_startproc
 2620              		@ args = 0, pretend = 0, frame = 0
 2621              		@ frame_needed = 0, uses_anonymous_args = 0
 2622 0000 70B5     		push	{r4, r5, r6, lr}
 2623              		.cfi_def_cfa_offset 16
 2624              		.cfi_offset 4, -16
 2625              		.cfi_offset 5, -12
 2626              		.cfi_offset 6, -8
 2627              		.cfi_offset 14, -4
 2628              	.LVL261:
1590:.\sk_debug.c  ****     uint8 i,j;
1591:.\sk_debug.c  ****     
1592:.\sk_debug.c  ****     j=0;
 2629              		.loc 1 1592 0
 2630 0002 0024     		movs	r4, #0
1593:.\sk_debug.c  ****     for(i=0; i<64; i++){
 2631              		.loc 1 1593 0
 2632 0004 2546     		mov	r5, r4
 2633 0006 37E0     		b	.L115
 2634              	.LVL262:
 2635              	.L119:
 2636              	.LBB6:
1594:.\sk_debug.c  ****         sk_PutString03(" command_para[",i ,CRLF_NONE,10);
 2637              		.loc 1 1594 0
 2638 0008 1D48     		ldr	r0, .L121
 2639 000a 2946     		mov	r1, r5
 2640 000c 0022     		movs	r2, #0
 2641 000e 0A23     		movs	r3, #10
 2642 0010 FFF7FEFF 		bl	sk_PutString03
 2643              	.LVL263:
1595:.\sk_debug.c  ****         sk_PutString03("] = ",command_para[i],CRLF_NONE,10);
 2644              		.loc 1 1595 0
 2645 0014 1B4E     		ldr	r6, .L121+4
 2646 0016 1C48     		ldr	r0, .L121+8
 2647 0018 715D     		ldrb	r1, [r6, r5]	@ zero_extendqisi2
 2648 001a 0022     		movs	r2, #0
 2649 001c 0A23     		movs	r3, #10
 2650 001e FFF7FEFF 		bl	sk_PutString03
 2651              	.LVL264:
1596:.\sk_debug.c  ****         sk_PutString03(" : 0x",command_para[i],CRLF_NONE,16);
 2652              		.loc 1 1596 0
ARM GAS  C:\Users\nosak\AppData\Local\Temp\ccBt8IvS.s 			page 76


 2653 0022 1A48     		ldr	r0, .L121+12
 2654 0024 715D     		ldrb	r1, [r6, r5]	@ zero_extendqisi2
 2655 0026 0022     		movs	r2, #0
 2656 0028 1023     		movs	r3, #16
 2657 002a FFF7FEFF 		bl	sk_PutString03
 2658              	.LVL265:
1597:.\sk_debug.c  **** 
1598:.\sk_debug.c  ****         if( compara_dital[j].pt == i){
 2659              		.loc 1 1598 0
 2660 002e C4EB4413 		rsb	r3, r4, r4, lsl #5
 2661 0032 174A     		ldr	r2, .L121+16
 2662 0034 D35C     		ldrb	r3, [r2, r3]	@ zero_extendqisi2
 2663 0036 AB42     		cmp	r3, r5
 2664 0038 06D1     		bne	.L116
1599:.\sk_debug.c  ****             sk_PutString01(compara_dital[j].name,CRLF_ON);
 2665              		.loc 1 1599 0
 2666 003a C4EB4413 		rsb	r3, r4, r4, lsl #5
 2667 003e 501C     		adds	r0, r2, #1
 2668 0040 1844     		add	r0, r0, r3
 2669 0042 0121     		movs	r1, #1
 2670 0044 FFF7FEFF 		bl	sk_PutString01
 2671              	.LVL266:
 2672              	.L116:
1600:.\sk_debug.c  ****         }
1601:.\sk_debug.c  ****         j++;
 2673              		.loc 1 1601 0
 2674 0048 0134     		adds	r4, r4, #1
 2675              	.LVL267:
 2676 004a E4B2     		uxtb	r4, r4
 2677              	.LVL268:
1602:.\sk_debug.c  ****         
1603:.\sk_debug.c  ****         for( ;compara_dital[j].pt==i; j++){
 2678              		.loc 1 1603 0
 2679 004c 0CE0     		b	.L117
 2680              	.L118:
1604:.\sk_debug.c  ****             
1605:.\sk_debug.c  ****             sk_PutString01("                ",CRLF_NONE);
 2681              		.loc 1 1605 0 discriminator 2
 2682 004e 1148     		ldr	r0, .L121+20
 2683 0050 0021     		movs	r1, #0
 2684 0052 FFF7FEFF 		bl	sk_PutString01
 2685              	.LVL269:
1606:.\sk_debug.c  ****             sk_PutString01(compara_dital[j].name,CRLF_ON);
 2686              		.loc 1 1606 0 discriminator 2
 2687 0056 C4EB4410 		rsb	r0, r4, r4, lsl #5
 2688 005a 0F4B     		ldr	r3, .L121+24
 2689 005c 1844     		add	r0, r0, r3
 2690 005e 0121     		movs	r1, #1
 2691 0060 FFF7FEFF 		bl	sk_PutString01
 2692              	.LVL270:
1603:.\sk_debug.c  ****             
 2693              		.loc 1 1603 0 discriminator 2
 2694 0064 0134     		adds	r4, r4, #1
 2695              	.LVL271:
 2696 0066 E4B2     		uxtb	r4, r4
 2697              	.LVL272:
 2698              	.L117:
ARM GAS  C:\Users\nosak\AppData\Local\Temp\ccBt8IvS.s 			page 77


1603:.\sk_debug.c  ****             
 2699              		.loc 1 1603 0 is_stmt 0 discriminator 1
 2700 0068 C4EB4413 		rsb	r3, r4, r4, lsl #5
 2701 006c 084A     		ldr	r2, .L121+16
 2702 006e D35C     		ldrb	r3, [r2, r3]	@ zero_extendqisi2
 2703 0070 AB42     		cmp	r3, r5
 2704 0072 ECD0     		beq	.L118
 2705              	.LBE6:
1593:.\sk_debug.c  ****         sk_PutString03(" command_para[",i ,CRLF_NONE,10);
 2706              		.loc 1 1593 0 is_stmt 1 discriminator 2
 2707 0074 0135     		adds	r5, r5, #1
 2708              	.LVL273:
 2709 0076 EDB2     		uxtb	r5, r5
 2710              	.LVL274:
 2711              	.L115:
1593:.\sk_debug.c  ****         sk_PutString03(" command_para[",i ,CRLF_NONE,10);
 2712              		.loc 1 1593 0 is_stmt 0 discriminator 1
 2713 0078 3F2D     		cmp	r5, #63
 2714 007a C5D9     		bls	.L119
1607:.\sk_debug.c  ****                
1608:.\sk_debug.c  ****         }
1609:.\sk_debug.c  ****    
1610:.\sk_debug.c  ****     }
1611:.\sk_debug.c  ****     
1612:.\sk_debug.c  ****     
1613:.\sk_debug.c  **** }
 2715              		.loc 1 1613 0 is_stmt 1
 2716 007c 70BD     		pop	{r4, r5, r6, pc}
 2717              	.LVL275:
 2718              	.L122:
 2719 007e 00BF     		.align	2
 2720              	.L121:
 2721 0080 E40C0000 		.word	.LC190
 2722 0084 00000000 		.word	command_para
 2723 0088 38000000 		.word	.LC5
 2724 008c F40C0000 		.word	.LC191
 2725 0090 00000000 		.word	.LANCHOR2
 2726 0094 FC0C0000 		.word	.LC192
 2727 0098 01000000 		.word	.LANCHOR2+1
 2728              		.cfi_endproc
 2729              	.LFE85:
 2730              		.size	Display_Com_parameter, .-Display_Com_parameter
 2731              		.section	.text.Display_MotCtrl_Com,"ax",%progbits
 2732              		.align	2
 2733              		.global	Display_MotCtrl_Com
 2734              		.thumb
 2735              		.thumb_func
 2736              		.type	Display_MotCtrl_Com, %function
 2737              	Display_MotCtrl_Com:
 2738              	.LFB86:
1614:.\sk_debug.c  **** 
1615:.\sk_debug.c  **** //***************************************************************************
1616:.\sk_debug.c  **** //
1617:.\sk_debug.c  **** //
1618:.\sk_debug.c  **** //***************************************************************************
1619:.\sk_debug.c  **** 
1620:.\sk_debug.c  **** void Display_MotCtrl_Com(void)
ARM GAS  C:\Users\nosak\AppData\Local\Temp\ccBt8IvS.s 			page 78


1621:.\sk_debug.c  **** {
 2739              		.loc 1 1621 0
 2740              		.cfi_startproc
 2741              		@ args = 0, pretend = 0, frame = 0
 2742              		@ frame_needed = 0, uses_anonymous_args = 0
 2743 0000 38B5     		push	{r3, r4, r5, lr}
 2744              		.cfi_def_cfa_offset 16
 2745              		.cfi_offset 3, -16
 2746              		.cfi_offset 4, -12
 2747              		.cfi_offset 5, -8
 2748              		.cfi_offset 14, -4
 2749              	.LVL276:
1622:.\sk_debug.c  ****     uint8 i,j;
1623:.\sk_debug.c  ****     int dt;
1624:.\sk_debug.c  ****     
1625:.\sk_debug.c  ****     j=0;
1626:.\sk_debug.c  ****     for(i=0; i<14; i++){
 2750              		.loc 1 1626 0
 2751 0002 0024     		movs	r4, #0
 2752 0004 14E0     		b	.L124
 2753              	.LVL277:
 2754              	.L125:
 2755              	.LBB7:
1627:.\sk_debug.c  ****         sk_PutString03(" command[",i ,CRLF_NONE,10);
 2756              		.loc 1 1627 0 discriminator 3
 2757 0006 1C48     		ldr	r0, .L127
 2758 0008 2146     		mov	r1, r4
 2759 000a 0022     		movs	r2, #0
 2760 000c 0A23     		movs	r3, #10
 2761 000e FFF7FEFF 		bl	sk_PutString03
 2762              	.LVL278:
1628:.\sk_debug.c  ****         sk_PutString03("] = ",command[i],CRLF_NONE,10);
 2763              		.loc 1 1628 0 discriminator 3
 2764 0012 1A4D     		ldr	r5, .L127+4
 2765 0014 1A48     		ldr	r0, .L127+8
 2766 0016 295D     		ldrb	r1, [r5, r4]	@ zero_extendqisi2
 2767 0018 0022     		movs	r2, #0
 2768 001a 0A23     		movs	r3, #10
 2769 001c FFF7FEFF 		bl	sk_PutString03
 2770              	.LVL279:
1629:.\sk_debug.c  ****         sk_PutString03(" : 0x",command[i],CRLF_ON,16);
 2771              		.loc 1 1629 0 discriminator 3
 2772 0020 1848     		ldr	r0, .L127+12
 2773 0022 295D     		ldrb	r1, [r5, r4]	@ zero_extendqisi2
 2774 0024 0122     		movs	r2, #1
 2775 0026 1023     		movs	r3, #16
 2776 0028 FFF7FEFF 		bl	sk_PutString03
 2777              	.LVL280:
 2778              	.LBE7:
1626:.\sk_debug.c  ****         sk_PutString03(" command[",i ,CRLF_NONE,10);
 2779              		.loc 1 1626 0 discriminator 3
 2780 002c 0134     		adds	r4, r4, #1
 2781              	.LVL281:
 2782 002e E4B2     		uxtb	r4, r4
 2783              	.LVL282:
 2784              	.L124:
1626:.\sk_debug.c  ****         sk_PutString03(" command[",i ,CRLF_NONE,10);
ARM GAS  C:\Users\nosak\AppData\Local\Temp\ccBt8IvS.s 			page 79


 2785              		.loc 1 1626 0 is_stmt 0 discriminator 1
 2786 0030 0D2C     		cmp	r4, #13
 2787 0032 E8D9     		bls	.L125
1630:.\sk_debug.c  ****    
1631:.\sk_debug.c  **** 
1632:.\sk_debug.c  ****             
1633:.\sk_debug.c  ****     }
1634:.\sk_debug.c  ****     // speedLF
1635:.\sk_debug.c  ****     dt = command[4];
 2788              		.loc 1 1635 0 is_stmt 1
 2789 0034 114C     		ldr	r4, .L127+4
 2790              	.LVL283:
 2791 0036 2179     		ldrb	r1, [r4, #4]	@ zero_extendqisi2
 2792              	.LVL284:
1636:.\sk_debug.c  ****     dt <<= 8;
1637:.\sk_debug.c  ****     dt |= command[5];
 2793              		.loc 1 1637 0
 2794 0038 6379     		ldrb	r3, [r4, #5]	@ zero_extendqisi2
 2795              	.LVL285:
1638:.\sk_debug.c  ****     sk_PutString06("Speed LF = ",dt ,CRLF_ON );
 2796              		.loc 1 1638 0
 2797 003a 1348     		ldr	r0, .L127+16
 2798 003c 43EA0121 		orr	r1, r3, r1, lsl #8
 2799              	.LVL286:
 2800 0040 0122     		movs	r2, #1
 2801 0042 FFF7FEFF 		bl	sk_PutString06
 2802              	.LVL287:
1639:.\sk_debug.c  **** 
1640:.\sk_debug.c  ****     
1641:.\sk_debug.c  ****     dt = command[6];
 2803              		.loc 1 1641 0
 2804 0046 A179     		ldrb	r1, [r4, #6]	@ zero_extendqisi2
 2805              	.LVL288:
1642:.\sk_debug.c  ****     dt <<= 8;
1643:.\sk_debug.c  ****     dt |= command[7];
 2806              		.loc 1 1643 0
 2807 0048 E379     		ldrb	r3, [r4, #7]	@ zero_extendqisi2
 2808              	.LVL289:
1644:.\sk_debug.c  ****     sk_PutString06("Speed RF = ",dt ,CRLF_ON );
 2809              		.loc 1 1644 0
 2810 004a 1048     		ldr	r0, .L127+20
 2811 004c 43EA0121 		orr	r1, r3, r1, lsl #8
 2812              	.LVL290:
 2813 0050 0122     		movs	r2, #1
 2814 0052 FFF7FEFF 		bl	sk_PutString06
 2815              	.LVL291:
1645:.\sk_debug.c  ****     
1646:.\sk_debug.c  ****     dt = command[8];
 2816              		.loc 1 1646 0
 2817 0056 217A     		ldrb	r1, [r4, #8]	@ zero_extendqisi2
 2818              	.LVL292:
1647:.\sk_debug.c  ****     dt <<= 8;
1648:.\sk_debug.c  ****     dt |= command[9];
 2819              		.loc 1 1648 0
 2820 0058 637A     		ldrb	r3, [r4, #9]	@ zero_extendqisi2
 2821              	.LVL293:
1649:.\sk_debug.c  ****     sk_PutString06("Speed LR = ",dt ,CRLF_ON );
ARM GAS  C:\Users\nosak\AppData\Local\Temp\ccBt8IvS.s 			page 80


 2822              		.loc 1 1649 0
 2823 005a 0D48     		ldr	r0, .L127+24
 2824 005c 43EA0121 		orr	r1, r3, r1, lsl #8
 2825              	.LVL294:
 2826 0060 0122     		movs	r2, #1
 2827 0062 FFF7FEFF 		bl	sk_PutString06
 2828              	.LVL295:
1650:.\sk_debug.c  ****     
1651:.\sk_debug.c  ****     dt = command[10];
 2829              		.loc 1 1651 0
 2830 0066 A17A     		ldrb	r1, [r4, #10]	@ zero_extendqisi2
 2831              	.LVL296:
1652:.\sk_debug.c  ****     dt <<= 8;
1653:.\sk_debug.c  ****     dt |= command[11];
 2832              		.loc 1 1653 0
 2833 0068 E37A     		ldrb	r3, [r4, #11]	@ zero_extendqisi2
 2834              	.LVL297:
1654:.\sk_debug.c  ****     sk_PutString06("Speed RR = ",dt ,CRLF_ON );
 2835              		.loc 1 1654 0
 2836 006a 0A48     		ldr	r0, .L127+28
 2837 006c 43EA0121 		orr	r1, r3, r1, lsl #8
 2838              	.LVL298:
 2839 0070 0122     		movs	r2, #1
 2840 0072 FFF7FEFF 		bl	sk_PutString06
 2841              	.LVL299:
 2842 0076 38BD     		pop	{r3, r4, r5, pc}
 2843              	.L128:
 2844              		.align	2
 2845              	.L127:
 2846 0078 100D0000 		.word	.LC193
 2847 007c 00000000 		.word	command
 2848 0080 38000000 		.word	.LC5
 2849 0084 F40C0000 		.word	.LC191
 2850 0088 1C0D0000 		.word	.LC194
 2851 008c 280D0000 		.word	.LC195
 2852 0090 340D0000 		.word	.LC196
 2853 0094 400D0000 		.word	.LC197
 2854              		.cfi_endproc
 2855              	.LFE86:
 2856              		.size	Display_MotCtrl_Com, .-Display_MotCtrl_Com
 2857              		.section	.text.RTC_Display,"ax",%progbits
 2858              		.align	2
 2859              		.global	RTC_Display
 2860              		.thumb
 2861              		.thumb_func
 2862              		.type	RTC_Display, %function
 2863              	RTC_Display:
 2864              	.LFB87:
1655:.\sk_debug.c  **** }
1656:.\sk_debug.c  **** 
1657:.\sk_debug.c  **** //***************************************************************************
1658:.\sk_debug.c  **** //
1659:.\sk_debug.c  **** //
1660:.\sk_debug.c  **** //***************************************************************************
1661:.\sk_debug.c  **** void  RTC_Display(void)
1662:.\sk_debug.c  **** {
 2865              		.loc 1 1662 0
ARM GAS  C:\Users\nosak\AppData\Local\Temp\ccBt8IvS.s 			page 81


 2866              		.cfi_startproc
 2867              		@ args = 0, pretend = 0, frame = 0
 2868              		@ frame_needed = 0, uses_anonymous_args = 0
 2869 0000 38B5     		push	{r3, r4, r5, lr}
 2870              		.cfi_def_cfa_offset 16
 2871              		.cfi_offset 3, -16
 2872              		.cfi_offset 4, -12
 2873              		.cfi_offset 5, -8
 2874              		.cfi_offset 14, -4
1663:.\sk_debug.c  ****     RTC_1_TIME_DATE  *tm;
1664:.\sk_debug.c  **** 
1665:.\sk_debug.c  ****     tm = RTC_1_ReadTime();
 2875              		.loc 1 1665 0
 2876 0002 FFF7FEFF 		bl	RTC_1_ReadTime
 2877              	.LVL300:
 2878 0006 0446     		mov	r4, r0
 2879              	.LVL301:
1666:.\sk_debug.c  ****     
1667:.\sk_debug.c  ****     sk_PutString03("Day&Time = ",tm->Year,CRLF_NONE,10);
 2880              		.loc 1 1667 0
 2881 0008 4189     		ldrh	r1, [r0, #10]
 2882 000a 1348     		ldr	r0, .L131
 2883              	.LVL302:
 2884 000c 89B2     		uxth	r1, r1
 2885 000e 0022     		movs	r2, #0
 2886 0010 0A23     		movs	r3, #10
 2887 0012 FFF7FEFF 		bl	sk_PutString03
 2888              	.LVL303:
1668:.\sk_debug.c  ****     sk_PutString03("/",tm->Month,CRLF_NONE,10);
 2889              		.loc 1 1668 0
 2890 0016 217A     		ldrb	r1, [r4, #8]	@ zero_extendqisi2
 2891 0018 104D     		ldr	r5, .L131+4
 2892 001a 2846     		mov	r0, r5
 2893 001c 0022     		movs	r2, #0
 2894 001e 0A23     		movs	r3, #10
 2895 0020 FFF7FEFF 		bl	sk_PutString03
 2896              	.LVL304:
1669:.\sk_debug.c  ****     sk_PutString03("/",tm->DayOfMonth,CRLF_NONE,10);
 2897              		.loc 1 1669 0
 2898 0024 2179     		ldrb	r1, [r4, #4]	@ zero_extendqisi2
 2899 0026 2846     		mov	r0, r5
 2900 0028 0022     		movs	r2, #0
 2901 002a 0A23     		movs	r3, #10
 2902 002c FFF7FEFF 		bl	sk_PutString03
 2903              	.LVL305:
1670:.\sk_debug.c  ****     
1671:.\sk_debug.c  ****     sk_PutString03(" ",tm->Hour,CRLF_NONE,10);
 2904              		.loc 1 1671 0
 2905 0030 A178     		ldrb	r1, [r4, #2]	@ zero_extendqisi2
 2906 0032 0B48     		ldr	r0, .L131+8
 2907 0034 0022     		movs	r2, #0
 2908 0036 0A23     		movs	r3, #10
 2909 0038 FFF7FEFF 		bl	sk_PutString03
 2910              	.LVL306:
1672:.\sk_debug.c  ****     sk_PutString03(":",tm->Min,CRLF_NONE,10);
 2911              		.loc 1 1672 0
 2912 003c 6178     		ldrb	r1, [r4, #1]	@ zero_extendqisi2
ARM GAS  C:\Users\nosak\AppData\Local\Temp\ccBt8IvS.s 			page 82


 2913 003e 094D     		ldr	r5, .L131+12
 2914 0040 2846     		mov	r0, r5
 2915 0042 0022     		movs	r2, #0
 2916 0044 0A23     		movs	r3, #10
 2917 0046 FFF7FEFF 		bl	sk_PutString03
 2918              	.LVL307:
1673:.\sk_debug.c  ****     sk_PutString03(":",tm->Sec,CRLF_ON,10);
 2919              		.loc 1 1673 0
 2920 004a 2178     		ldrb	r1, [r4]	@ zero_extendqisi2
 2921 004c 2846     		mov	r0, r5
 2922 004e 0122     		movs	r2, #1
 2923 0050 0A23     		movs	r3, #10
 2924 0052 FFF7FEFF 		bl	sk_PutString03
 2925              	.LVL308:
 2926 0056 38BD     		pop	{r3, r4, r5, pc}
 2927              	.LVL309:
 2928              	.L132:
 2929              		.align	2
 2930              	.L131:
 2931 0058 4C0D0000 		.word	.LC198
 2932 005c 580D0000 		.word	.LC199
 2933 0060 5C0D0000 		.word	.LC200
 2934 0064 600D0000 		.word	.LC201
 2935              		.cfi_endproc
 2936              	.LFE87:
 2937              		.size	RTC_Display, .-RTC_Display
 2938              		.section	.text.sk_log_int,"ax",%progbits
 2939              		.align	2
 2940              		.global	sk_log_int
 2941              		.thumb
 2942              		.thumb_func
 2943              		.type	sk_log_int, %function
 2944              	sk_log_int:
 2945              	.LFB91:
1674:.\sk_debug.c  ****     
1675:.\sk_debug.c  ****     
1676:.\sk_debug.c  **** }
1677:.\sk_debug.c  **** 
1678:.\sk_debug.c  **** //***************************************************************************
1679:.\sk_debug.c  **** //
1680:.\sk_debug.c  **** //
1681:.\sk_debug.c  **** //***************************************************************************
1682:.\sk_debug.c  **** void MoterCtrl_data_Display(void)
1683:.\sk_debug.c  **** {
1684:.\sk_debug.c  ****     sk_PutString01("Motor_Contl4_3_P",CRLF_ON);
1685:.\sk_debug.c  ****     sk_PutString_realT("  Integrator1_IC = ",Motor_Contl4_3_P.Integrator1_IC,CRLF_ON);
1686:.\sk_debug.c  ****     sk_PutString_realT("  Gain2_Gain = ",Motor_Contl4_3_P.Gain2_Gain,CRLF_ON);
1687:.\sk_debug.c  ****     sk_PutString_realT("  Gain_Gain  = ",Motor_Contl4_3_P.Gain_Gain,CRLF_ON);
1688:.\sk_debug.c  ****     sk_PutString_realT("  Satu..UpperSat = ",Motor_Contl4_3_P.Saturation_UpperSat,CRLF_ON);
1689:.\sk_debug.c  ****     sk_PutString_realT("  Satu..LowerSat = ",Motor_Contl4_3_P.Saturation_LowerSat,CRLF_ON);
1690:.\sk_debug.c  ****     sk_PutString_realT("  Integrator1_IC_i = ",Motor_Contl4_3_P.Integrator1_IC_i,CRLF_ON);
1691:.\sk_debug.c  ****     sk_PutString_realT("  Gain2_Gain_a = ",Motor_Contl4_3_P.Gain2_Gain_a,CRLF_ON);
1692:.\sk_debug.c  ****     sk_PutString_realT("  Gain_Gain_a = ",Motor_Contl4_3_P.Gain_Gain_a,CRLF_ON);
1693:.\sk_debug.c  ****     sk_PutString_realT("  Satu.UpperSat_o = ",Motor_Contl4_3_P.Saturation_UpperSat_o,CRLF_ON);
1694:.\sk_debug.c  ****     sk_PutString_realT("  Satu..LowerSat_j = ",Motor_Contl4_3_P.Saturation_LowerSat_j,CRLF_ON);
1695:.\sk_debug.c  ****     sk_PutString_realT("  Integrator1_IC_p = ",Motor_Contl4_3_P.Integrator1_IC_p,CRLF_ON);
1696:.\sk_debug.c  ****     sk_PutString_realT("  Gain2_Gain_j = ",Motor_Contl4_3_P.Gain2_Gain_j,CRLF_ON);
ARM GAS  C:\Users\nosak\AppData\Local\Temp\ccBt8IvS.s 			page 83


1697:.\sk_debug.c  ****     sk_PutString_realT("  Gain_Gain_i = ",Motor_Contl4_3_P.Gain_Gain_i,CRLF_ON);
1698:.\sk_debug.c  ****     sk_PutString_realT("  Satu..UpperSat_j = ",Motor_Contl4_3_P.Saturation_UpperSat_j,CRLF_ON);
1699:.\sk_debug.c  ****     sk_PutString_realT("  Satu..LowerSat_a = ",Motor_Contl4_3_P.Saturation_LowerSat_a,CRLF_ON);
1700:.\sk_debug.c  ****     sk_PutString_realT("  Integrator1_IC_ik = ",Motor_Contl4_3_P.Integrator1_IC_ik,CRLF_ON);
1701:.\sk_debug.c  ****     sk_PutString_realT("  Gain2_Gain_e = ",Motor_Contl4_3_P.Gain2_Gain_e,CRLF_ON);
1702:.\sk_debug.c  ****     sk_PutString_realT("  Gain_Gain_o = ",Motor_Contl4_3_P.Gain_Gain_o,CRLF_ON);
1703:.\sk_debug.c  ****     sk_PutString_realT("  Satu..UpperSat_g = ",Motor_Contl4_3_P.Saturation_UpperSat_g,CRLF_ON);
1704:.\sk_debug.c  ****     sk_PutString_realT("  Satu..LowerSat_l = ",Motor_Contl4_3_P.Saturation_LowerSat_l,CRLF_ON);
1705:.\sk_debug.c  ****     sk_PutString01("",CRLF_ON);
1706:.\sk_debug.c  ****     sk_PutString01(" Motor_Contl4_3_X",CRLF_ON);
1707:.\sk_debug.c  ****     sk_PutString_realT("  Int..CSTATE   = ",Motor_Contl4_3_X.Integrator1_CSTATE,CRLF_ON);
1708:.\sk_debug.c  ****     sk_PutString_realT("  Int..CSTATE_h = ",Motor_Contl4_3_X.Integrator1_CSTATE_h,CRLF_ON);
1709:.\sk_debug.c  ****     sk_PutString_realT("  Int..CSTATE_l = ",Motor_Contl4_3_X.Integrator1_CSTATE_l,CRLF_ON);
1710:.\sk_debug.c  ****     sk_PutString_realT("  Int..CSTATE_g = ",Motor_Contl4_3_X.Integrator1_CSTATE_g,CRLF_ON);
1711:.\sk_debug.c  ****     sk_PutString01("",CRLF_ON);
1712:.\sk_debug.c  ****     sk_PutString01("Motor_Contl4_3_B",CRLF_ON);
1713:.\sk_debug.c  ****     sk_PutString_realT("  Sum   = ",Motor_Contl4_3_B.Sum,CRLF_ON);
1714:.\sk_debug.c  ****     sk_PutString_realT("  Sum_n = ",Motor_Contl4_3_B.Sum_n,CRLF_ON);
1715:.\sk_debug.c  ****     sk_PutString_realT("  Sum_m = ",Motor_Contl4_3_B.Sum_m,CRLF_ON);
1716:.\sk_debug.c  ****     sk_PutString_realT("  Sum_i = ",Motor_Contl4_3_B.Sum_i,CRLF_ON);
1717:.\sk_debug.c  ****     sk_PutString01("",CRLF_ON);
1718:.\sk_debug.c  ****     sk_PutString01("Motor_Contl4_3_X",CRLF_ON); 
1719:.\sk_debug.c  ****     sk_PutString_realT("  Int..CSTATE   = ",Motor_Contl4_3_X.Integrator1_CSTATE,CRLF_ON);
1720:.\sk_debug.c  ****     sk_PutString_realT("  Int..CSTATE_h = ",Motor_Contl4_3_X.Integrator1_CSTATE_h,CRLF_ON);
1721:.\sk_debug.c  ****     sk_PutString_realT("  Int..CSTATE_l = ",Motor_Contl4_3_X.Integrator1_CSTATE_l,CRLF_ON);
1722:.\sk_debug.c  ****     sk_PutString_realT("  Int..CSTATE_g = ",Motor_Contl4_3_X.Integrator1_CSTATE_g,CRLF_ON);
1723:.\sk_debug.c  ****     sk_PutString01("",CRLF_ON);
1724:.\sk_debug.c  ****     sk_PutString01("Motor_Contl4_3_U",CRLF_ON); 
1725:.\sk_debug.c  ****     sk_PutString_realT("  Targetspeed1 = ",Motor_Contl4_3_U.Targetspeed1,CRLF_ON);
1726:.\sk_debug.c  ****     sk_PutString_realT("  Targetspeed2 = ",Motor_Contl4_3_U.Targetspeed2,CRLF_ON);
1727:.\sk_debug.c  ****     sk_PutString_realT("  Targetspeed4 = ",Motor_Contl4_3_U.Targetspeed4,CRLF_ON);
1728:.\sk_debug.c  ****     sk_PutString_realT("  Targetspeed3 = ",Motor_Contl4_3_U.Targetspeed3,CRLF_ON);
1729:.\sk_debug.c  ****     sk_PutString_realT("  RPM1 = ",Motor_Contl4_3_U.RPM1,CRLF_ON);
1730:.\sk_debug.c  ****     sk_PutString_realT("  RPM2 = ",Motor_Contl4_3_U.RPM2,CRLF_ON);
1731:.\sk_debug.c  ****     sk_PutString_realT("  RPM3 = ",Motor_Contl4_3_U.RPM3,CRLF_ON);
1732:.\sk_debug.c  ****     sk_PutString_realT("  RPM4 = ",Motor_Contl4_3_U.RPM4,CRLF_ON);
1733:.\sk_debug.c  ****     sk_PutString01("",CRLF_ON);
1734:.\sk_debug.c  ****     sk_PutString01("Motor_Contl4_3_Y",CRLF_ON); 
1735:.\sk_debug.c  ****     sk_PutString_realT("  PWMDuty1 = ",Motor_Contl4_3_Y.PWMDuty1,CRLF_ON);
1736:.\sk_debug.c  ****     sk_PutString_realT("  PWMDuty2 = ",Motor_Contl4_3_Y.PWMDuty2,CRLF_ON);
1737:.\sk_debug.c  ****     sk_PutString_realT("  PWMDuty3 = ",Motor_Contl4_3_Y.PWMDuty3,CRLF_ON);
1738:.\sk_debug.c  ****     sk_PutString_realT("  PWMDuty4 = ",Motor_Contl4_3_Y.PWMDuty4,CRLF_ON);
1739:.\sk_debug.c  ****     sk_PutString_realT("  VKmh1 = ",Motor_Contl4_3_Y.VKmh1,CRLF_ON);
1740:.\sk_debug.c  ****     sk_PutString_realT("  VKmh2 = ",Motor_Contl4_3_Y.VKmh2,CRLF_ON);
1741:.\sk_debug.c  ****     sk_PutString_realT("  VKmh3 = ",Motor_Contl4_3_Y.VKmh3,CRLF_ON);
1742:.\sk_debug.c  ****     sk_PutString_realT("  VKmh4 = ",Motor_Contl4_3_Y.VKmh4,CRLF_ON);
1743:.\sk_debug.c  ****     sk_PutString01("",CRLF_ON);
1744:.\sk_debug.c  ****         
1745:.\sk_debug.c  ****     
1746:.\sk_debug.c  ****     
1747:.\sk_debug.c  ****     
1748:.\sk_debug.c  **** }
1749:.\sk_debug.c  **** //***************************************************************************
1750:.\sk_debug.c  **** //
1751:.\sk_debug.c  **** //
1752:.\sk_debug.c  **** //***************************************************************************
1753:.\sk_debug.c  **** void MoterCtrl_data2_Display(void)
ARM GAS  C:\Users\nosak\AppData\Local\Temp\ccBt8IvS.s 			page 84


1754:.\sk_debug.c  **** {
1755:.\sk_debug.c  **** 
1756:.\sk_debug.c  ****     
1757:.\sk_debug.c  **** 
1758:.\sk_debug.c  **** sk_PutString03("isVariableStepSolver = ", Motor_Contl4_3_M_.solverInfo.isVariableStepSolver, CRLF_O
1759:.\sk_debug.c  **** sk_PutString03("solverNeedsReset = ",Motor_Contl4_3_M_.solverInfo.solverNeedsReset, CRLF_ON, 16  );
1760:.\sk_debug.c  **** 
1761:.\sk_debug.c  **** //sk_PutString03("solverMode = ",Motor_Contl4_3_M_.solverInfo.solverMode, CRLF_ON, 16  );
1762:.\sk_debug.c  **** 
1763:.\sk_debug.c  **** switch(Motor_Contl4_3_M_.solverInfo.solverMode){
1764:.\sk_debug.c  **** case SOLVER_MODE_AUTO:
1765:.\sk_debug.c  ****     sk_PutString01("solverMode = AUTO", CRLF_ON );
1766:.\sk_debug.c  ****     break;
1767:.\sk_debug.c  **** case SOLVER_MODE_SINGLETASKING:
1768:.\sk_debug.c  ****     sk_PutString01("solverMode = SINGLETASKING", CRLF_ON );
1769:.\sk_debug.c  ****     break;
1770:.\sk_debug.c  **** case SOLVER_MODE_MULTITASKING:
1771:.\sk_debug.c  **** default:
1772:.\sk_debug.c  ****      sk_PutString01("solverMode = MULTITASKING", CRLF_ON );
1773:.\sk_debug.c  ****    
1774:.\sk_debug.c  ****     break;
1775:.\sk_debug.c  **** }
1776:.\sk_debug.c  **** 
1777:.\sk_debug.c  **** 
1778:.\sk_debug.c  **** 
1779:.\sk_debug.c  **** sk_PutString_realT("solverStopTime = ",Motor_Contl4_3_M_.solverInfo.solverStopTime, CRLF_ON );
1780:.\sk_debug.c  **** sk_PutString_realT("minStepSize = ",Motor_Contl4_3_M_.solverInfo.minStepSize, CRLF_ON );
1781:.\sk_debug.c  **** sk_PutString_realT("maxStepSize = ",Motor_Contl4_3_M_.solverInfo.maxStepSize, CRLF_ON );
1782:.\sk_debug.c  **** sk_PutString_realT("fixedStepSize = ",Motor_Contl4_3_M_.solverInfo.fixedStepSize, CRLF_ON );
1783:.\sk_debug.c  **** sk_PutString03("solverShapePreserveControl = ",Motor_Contl4_3_M_.solverInfo.solverShapePreserveCont
1784:.\sk_debug.c  **** sk_PutString03("s..MaxConsecutiveMinStep = ",Motor_Contl4_3_M_.solverInfo.solverMaxConsecutiveMinSt
1785:.\sk_debug.c  **** sk_PutString03("maxNumMinSteps = ",Motor_Contl4_3_M_.solverInfo.maxNumMinSteps, CRLF_ON, 16  );
1786:.\sk_debug.c  **** sk_PutString03("s..MaxOrder = ",Motor_Contl4_3_M_.solverInfo.solverMaxOrder, CRLF_ON, 16  );
1787:.\sk_debug.c  **** //sk_PutString_realT("s..ConsecutiveZCsStepRelTol = ",Motor_Contl4_3_M_.solverInfo.solverConsecutiv
1788:.\sk_debug.c  **** 
1789:.\sk_debug.c  **** 
1790:.\sk_debug.c  **** sk_PutString03("s..MaxConsecutiveZCs = ",Motor_Contl4_3_M_.solverInfo.solverMaxConsecutiveZCs, CRLF
1791:.\sk_debug.c  **** sk_PutString03("s..ExtrapolationOrder = ",Motor_Contl4_3_M_.solverInfo.solverExtrapolationOrder, CR
1792:.\sk_debug.c  **** sk_PutString03("s..NumberNewtonIterations = ",Motor_Contl4_3_M_.solverInfo.solverNumberNewtonIterat
1793:.\sk_debug.c  **** sk_PutString03("s..RefineFactor = ",Motor_Contl4_3_M_.solverInfo.solverRefineFactor, CRLF_ON, 16  )
1794:.\sk_debug.c  **** sk_PutString_realT("s..RelTol = ",Motor_Contl4_3_M_.solverInfo.solverRelTol, CRLF_ON );
1795:.\sk_debug.c  **** sk_PutString_realT("unused_real_T_1 = ",Motor_Contl4_3_M_.solverInfo.unused_real_T_1, CRLF_ON );
1796:.\sk_debug.c  **** sk_PutString03("zcSignalVectorLength = ",Motor_Contl4_3_M_.solverInfo.zcSignalVectorLength, CRLF_ON
1797:.\sk_debug.c  **** sk_PutString03("foundContZcEvents = ",Motor_Contl4_3_M_.solverInfo.foundContZcEvents, CRLF_ON, 16  
1798:.\sk_debug.c  **** sk_PutString03("isAtLeftPostOfContZcEvent = ",Motor_Contl4_3_M_.solverInfo.isAtLeftPostOfContZcEven
1799:.\sk_debug.c  **** sk_PutString03("isAtRightPostOfContZcEvent = ",Motor_Contl4_3_M_.solverInfo.isAtRightPostOfContZcEv
1800:.\sk_debug.c  **** sk_PutString03("ne..ZcEventNotification = ",Motor_Contl4_3_M_.solverInfo.needsContZcEventNotificati
1801:.\sk_debug.c  **** sk_PutString03("adaptiveZcDetection = ",Motor_Contl4_3_M_.solverInfo.adaptiveZcDetection, CRLF_ON, 
1802:.\sk_debug.c  **** sk_PutString03("numZcSignals = ",Motor_Contl4_3_M_.solverInfo.numZcSignals, CRLF_ON, 16  );
1803:.\sk_debug.c  **** sk_PutString03("stateProjection = ",Motor_Contl4_3_M_.solverInfo.stateProjection, CRLF_ON, 16  );
1804:.\sk_debug.c  **** sk_PutString03("robustResetMethod = ",Motor_Contl4_3_M_.solverInfo.robustResetMethod, CRLF_ON, 16  
1805:.\sk_debug.c  **** sk_PutString03("updateJacobianAtReset = ",Motor_Contl4_3_M_.solverInfo.updateJacobianAtReset, CRLF_
1806:.\sk_debug.c  **** sk_PutString03("consistencyChecking = ",Motor_Contl4_3_M_.solverInfo.consistencyChecking, CRLF_ON, 
1807:.\sk_debug.c  **** 
1808:.\sk_debug.c  **** 
1809:.\sk_debug.c  **** //sk_PutString03("massMatrixType = ",Motor_Contl4_3_M_.solverInfo.massMatrixType, CRLF_ON, 16  );
1810:.\sk_debug.c  **** 
ARM GAS  C:\Users\nosak\AppData\Local\Temp\ccBt8IvS.s 			page 85


1811:.\sk_debug.c  **** switch(Motor_Contl4_3_M_.solverInfo.massMatrixType){
1812:.\sk_debug.c  **** 
1813:.\sk_debug.c  **** case SS_MATRIX_NONE:
1814:.\sk_debug.c  ****      sk_PutString01("smassMatrixType = NONE", CRLF_ON );
1815:.\sk_debug.c  ****     break;
1816:.\sk_debug.c  **** case SS_MATRIX_CONSTANT:
1817:.\sk_debug.c  ****      sk_PutString01("smassMatrixType = CONSTANT", CRLF_ON );
1818:.\sk_debug.c  ****     break;
1819:.\sk_debug.c  **** case SS_MATRIX_TIMEDEP:
1820:.\sk_debug.c  ****      sk_PutString01("smassMatrixType = TIMEDEP", CRLF_ON );
1821:.\sk_debug.c  ****     break;
1822:.\sk_debug.c  **** case SS_MATRIX_STATEDEP:
1823:.\sk_debug.c  **** default:
1824:.\sk_debug.c  ****      sk_PutString01("smassMatrixType = STATEDEP", CRLF_ON );
1825:.\sk_debug.c  ****     break;
1826:.\sk_debug.c  **** }
1827:.\sk_debug.c  **** 
1828:.\sk_debug.c  **** 
1829:.\sk_debug.c  **** sk_PutString03("massMatrixNzMax = ",Motor_Contl4_3_M_.solverInfo.massMatrixNzMax, CRLF_ON, 16  );
1830:.\sk_debug.c  **** sk_PutString_realT("zcThreshold = ",Motor_Contl4_3_M_.solverInfo.zcThreshold, CRLF_ON );
1831:.\sk_debug.c  **** sk_PutString_realT("zeroCrossAlgorithm = ",Motor_Contl4_3_M_.solverInfo.zeroCrossAlgorithm, CRLF_ON
1832:.\sk_debug.c  **** sk_PutString03("consecutiveZCsError = ",Motor_Contl4_3_M_.solverInfo.consecutiveZCsError, CRLF_ON, 
1833:.\sk_debug.c  **** sk_PutString03("blkStateChange = ",Motor_Contl4_3_M_.solverInfo.blkStateChange, CRLF_ON, 16  );
1834:.\sk_debug.c  **** sk_PutString03("isComputingJacobian = ",Motor_Contl4_3_M_.solverInfo.isComputingJacobian, CRLF_ON, 
1835:.\sk_debug.c  **** sk_PutString03("s..JacobianMethodControl = ",Motor_Contl4_3_M_.solverInfo.solverJacobianMethodContr
1836:.\sk_debug.c  **** sk_PutString03("ignoredZcDiagnostic = ",Motor_Contl4_3_M_.solverInfo.ignoredZcDiagnostic, CRLF_ON, 
1837:.\sk_debug.c  **** sk_PutString03("maskedZcDiagnostic = ",Motor_Contl4_3_M_.solverInfo.maskedZcDiagnostic, CRLF_ON, 16
1838:.\sk_debug.c  **** 
1839:.\sk_debug.c  **** sk_PutString01("***** Data Info *****", CRLF_ON );
1840:.\sk_debug.c  **** 
1841:.\sk_debug.c  **** sk_PutString03("zCCacheNeedsReset = ",Motor_Contl4_3_M_.ModelData.zCCacheNeedsReset, CRLF_ON, 16  )
1842:.\sk_debug.c  **** sk_PutString03("derivCacheNeedsReset = ",Motor_Contl4_3_M_.ModelData.derivCacheNeedsReset, CRLF_ON,
1843:.\sk_debug.c  **** sk_PutString03("blkStateChange = ",Motor_Contl4_3_M_.ModelData.blkStateChange, CRLF_ON, 16  );
1844:.\sk_debug.c  **** sk_PutString_realT("odeY[0] = ",Motor_Contl4_3_M_.ModelData.odeY[0], CRLF_ON );
1845:.\sk_debug.c  **** sk_PutString_realT("odeY[1] = ",Motor_Contl4_3_M_.ModelData.odeY[1], CRLF_ON );
1846:.\sk_debug.c  **** sk_PutString_realT("odeY[2] = ",Motor_Contl4_3_M_.ModelData.odeY[2], CRLF_ON );
1847:.\sk_debug.c  **** sk_PutString_realT("odeY[3] = ",Motor_Contl4_3_M_.ModelData.odeY[3], CRLF_ON );
1848:.\sk_debug.c  **** sk_PutString_realT("odeF[0][0] = ",Motor_Contl4_3_M_.ModelData.odeF[3][4], CRLF_ON );
1849:.\sk_debug.c  **** sk_PutString_realT("odeF[0][1] = ",Motor_Contl4_3_M_.ModelData.odeF[3][4], CRLF_ON );
1850:.\sk_debug.c  **** sk_PutString_realT("odeF[0][2] = ",Motor_Contl4_3_M_.ModelData.odeF[3][4], CRLF_ON );
1851:.\sk_debug.c  **** sk_PutString_realT("odeF[0][3] = ",Motor_Contl4_3_M_.ModelData.odeF[3][4], CRLF_ON );
1852:.\sk_debug.c  **** sk_PutString_realT("odeF[1][0] = ",Motor_Contl4_3_M_.ModelData.odeF[3][4], CRLF_ON );
1853:.\sk_debug.c  **** sk_PutString_realT("odeF[1][1] = ",Motor_Contl4_3_M_.ModelData.odeF[3][4], CRLF_ON );
1854:.\sk_debug.c  **** sk_PutString_realT("odeF[1][2] = ",Motor_Contl4_3_M_.ModelData.odeF[3][4], CRLF_ON );
1855:.\sk_debug.c  **** sk_PutString_realT("odeF[1][3] = ",Motor_Contl4_3_M_.ModelData.odeF[3][4], CRLF_ON );
1856:.\sk_debug.c  **** sk_PutString_realT("odeF[2][0] = ",Motor_Contl4_3_M_.ModelData.odeF[3][4], CRLF_ON );
1857:.\sk_debug.c  **** sk_PutString_realT("odeF[2][1] = ",Motor_Contl4_3_M_.ModelData.odeF[3][4], CRLF_ON );
1858:.\sk_debug.c  **** sk_PutString_realT("odeF[2][2] = ",Motor_Contl4_3_M_.ModelData.odeF[3][4], CRLF_ON );
1859:.\sk_debug.c  **** sk_PutString_realT("odeF[2][3] = ",Motor_Contl4_3_M_.ModelData.odeF[3][4], CRLF_ON );
1860:.\sk_debug.c  **** 
1861:.\sk_debug.c  **** 
1862:.\sk_debug.c  **** 
1863:.\sk_debug.c  **** 
1864:.\sk_debug.c  **** 
1865:.\sk_debug.c  **** 
1866:.\sk_debug.c  **** 
1867:.\sk_debug.c  **** 
ARM GAS  C:\Users\nosak\AppData\Local\Temp\ccBt8IvS.s 			page 86


1868:.\sk_debug.c  **** sk_PutString_realT("intgData.y = ",Motor_Contl4_3_M_.ModelData.intgData.y, CRLF_ON );
1869:.\sk_debug.c  **** sk_PutString_realT("intgData.f[0] = ",Motor_Contl4_3_M_.ModelData.intgData.f[0], CRLF_ON );
1870:.\sk_debug.c  **** sk_PutString_realT("intgData.f[1] = ",Motor_Contl4_3_M_.ModelData.intgData.f[1], CRLF_ON );
1871:.\sk_debug.c  **** sk_PutString_realT("intgData.f[2] = ",Motor_Contl4_3_M_.ModelData.intgData.f[2], CRLF_ON );
1872:.\sk_debug.c  **** 
1873:.\sk_debug.c  **** 
1874:.\sk_debug.c  **** sk_PutString01("***** Sample Time *****", CRLF_ON );
1875:.\sk_debug.c  **** 
1876:.\sk_debug.c  **** sk_PutString03("numContStates = ",Motor_Contl4_3_M_.Sizes.numContStates, CRLF_ON, 16  );
1877:.\sk_debug.c  **** sk_PutString03("numSampTimes = ",Motor_Contl4_3_M_.Sizes.numSampTimes, CRLF_ON, 16  );
1878:.\sk_debug.c  **** 
1879:.\sk_debug.c  **** 
1880:.\sk_debug.c  **** 
1881:.\sk_debug.c  **** sk_PutString01("***** Timing info *****", CRLF_ON );
1882:.\sk_debug.c  **** 
1883:.\sk_debug.c  **** sk_PutString_uint32("clockTick0 = ", Motor_Contl4_3_M_.Timing.clockTick0 );
1884:.\sk_debug.c  **** sk_PutString_realT("stepSize0 = ",Motor_Contl4_3_M_.Timing.stepSize0, CRLF_ON );
1885:.\sk_debug.c  **** sk_PutString_uint32("clockTick1 = ",Motor_Contl4_3_M_.Timing.clockTick1  );
1886:.\sk_debug.c  **** //sk_PutString03("simTimeStep = ",Motor_Contl4_3_M_.Timing.simTimeStep, CRLF_ON, 16  );
1887:.\sk_debug.c  **** 
1888:.\sk_debug.c  **** switch( Motor_Contl4_3_M_.Timing.simTimeStep){
1889:.\sk_debug.c  ****     case MINOR_TIME_STEP:
1890:.\sk_debug.c  ****         sk_PutString01("simTimeStep = MINOR_TIME", CRLF_ON );
1891:.\sk_debug.c  ****     case MAJOR_TIME_STEP:
1892:.\sk_debug.c  ****     default:
1893:.\sk_debug.c  ****         sk_PutString01("simTimeStep = MAJOR_TIME", CRLF_ON );
1894:.\sk_debug.c  ****         break;
1895:.\sk_debug.c  **** }
1896:.\sk_debug.c  **** 
1897:.\sk_debug.c  **** 
1898:.\sk_debug.c  **** sk_PutString03("stopRequestedFlag = ",Motor_Contl4_3_M_.Timing.stopRequestedFlag, CRLF_ON, 16  );
1899:.\sk_debug.c  **** sk_PutString_realT("tArray[0] = ",Motor_Contl4_3_M_.Timing.tArray[0], CRLF_ON  );
1900:.\sk_debug.c  **** sk_PutString_realT("tArray[1] = ",Motor_Contl4_3_M_.Timing.tArray[1], CRLF_ON  );
1901:.\sk_debug.c  **** 
1902:.\sk_debug.c  **** }
1903:.\sk_debug.c  **** 
1904:.\sk_debug.c  **** //***************************************************************************
1905:.\sk_debug.c  **** //
1906:.\sk_debug.c  **** //
1907:.\sk_debug.c  **** //***************************************************************************
1908:.\sk_debug.c  **** void sk_log_main(char8 *string,uint16 data)
1909:.\sk_debug.c  **** {
1910:.\sk_debug.c  ****     if( sk_log_flg2 & SK_LOG2_MAIN_LOOP  ){
1911:.\sk_debug.c  ****         sk_log_out(string,data);
1912:.\sk_debug.c  ****     }
1913:.\sk_debug.c  **** }
1914:.\sk_debug.c  **** 
1915:.\sk_debug.c  **** //***************************************************************************
1916:.\sk_debug.c  **** //
1917:.\sk_debug.c  **** //
1918:.\sk_debug.c  **** //***************************************************************************
1919:.\sk_debug.c  **** void sk_log_int(char8 *string,uint16 data)
1920:.\sk_debug.c  **** {
 2946              		.loc 1 1920 0
 2947              		.cfi_startproc
 2948              		@ args = 0, pretend = 0, frame = 0
 2949              		@ frame_needed = 0, uses_anonymous_args = 0
ARM GAS  C:\Users\nosak\AppData\Local\Temp\ccBt8IvS.s 			page 87


 2950              	.LVL310:
 2951 0000 70B5     		push	{r4, r5, r6, lr}
 2952              		.cfi_def_cfa_offset 16
 2953              		.cfi_offset 4, -16
 2954              		.cfi_offset 5, -12
 2955              		.cfi_offset 6, -8
 2956              		.cfi_offset 14, -4
 2957 0002 0546     		mov	r5, r0
 2958 0004 0C46     		mov	r4, r1
1921:.\sk_debug.c  ****      RTC_1_TIME_DATE  *tm;
1922:.\sk_debug.c  ****     uint8 i;
1923:.\sk_debug.c  ****     
1924:.\sk_debug.c  ****     
1925:.\sk_debug.c  ****     // 
1926:.\sk_debug.c  ****     // RTCから時刻を読む
1927:.\sk_debug.c  ****     // 
1928:.\sk_debug.c  ****     tm = RTC_1_ReadTime();
 2959              		.loc 1 1928 0
 2960 0006 FFF7FEFF 		bl	RTC_1_ReadTime
 2961              	.LVL311:
1929:.\sk_debug.c  ****     
1930:.\sk_debug.c  ****     Deblog.rec[Deblog.Wpt].Year = tm->Year;
 2962              		.loc 1 1930 0
 2963 000a 2C4A     		ldr	r2, .L140
 2964 000c 1188     		ldrh	r1, [r2]
 2965 000e 4689     		ldrh	r6, [r0, #10]
 2966 0010 8B00     		lsls	r3, r1, #2
 2967 0012 0B44     		add	r3, r3, r1
 2968 0014 DB00     		lsls	r3, r3, #3
 2969 0016 1344     		add	r3, r3, r2
 2970 0018 5E81     		strh	r6, [r3, #10]	@ movhi
1931:.\sk_debug.c  ****     Deblog.rec[Deblog.Wpt].Month = tm->Month;
 2971              		.loc 1 1931 0
 2972 001a 027A     		ldrb	r2, [r0, #8]	@ zero_extendqisi2
 2973 001c 1A72     		strb	r2, [r3, #8]
1932:.\sk_debug.c  ****     Deblog.rec[Deblog.Wpt].DayOfMonth = tm->DayOfMonth;
 2974              		.loc 1 1932 0
 2975 001e 0279     		ldrb	r2, [r0, #4]	@ zero_extendqisi2
 2976 0020 DA71     		strb	r2, [r3, #7]
1933:.\sk_debug.c  ****     Deblog.rec[Deblog.Wpt].Hour = tm->Hour;
 2977              		.loc 1 1933 0
 2978 0022 8278     		ldrb	r2, [r0, #2]	@ zero_extendqisi2
 2979 0024 9A71     		strb	r2, [r3, #6]
1934:.\sk_debug.c  ****     Deblog.rec[Deblog.Wpt].Min = tm->Min;
 2980              		.loc 1 1934 0
 2981 0026 4278     		ldrb	r2, [r0, #1]	@ zero_extendqisi2
 2982 0028 5A71     		strb	r2, [r3, #5]
1935:.\sk_debug.c  ****     Deblog.rec[Deblog.Wpt].Sec = tm->Sec;
 2983              		.loc 1 1935 0
 2984 002a 0278     		ldrb	r2, [r0]	@ zero_extendqisi2
 2985 002c 1A71     		strb	r2, [r3, #4]
1936:.\sk_debug.c  ****     Deblog.rec[Deblog.Wpt].time = sk_sub_cycl_int_cnt;
 2986              		.loc 1 1936 0
 2987 002e 244A     		ldr	r2, .L140+4
 2988 0030 D289     		ldrh	r2, [r2, #14]
 2989 0032 9A81     		strh	r2, [r3, #12]	@ movhi
 2990              	.LVL312:
ARM GAS  C:\Users\nosak\AppData\Local\Temp\ccBt8IvS.s 			page 88


1937:.\sk_debug.c  ****     
1938:.\sk_debug.c  ****     // 
1939:.\sk_debug.c  ****     // 引数の文字をレコードに登録
1940:.\sk_debug.c  ****     //
1941:.\sk_debug.c  ****     for(i=0; i< LOG_BUF_CHAR; i++){
 2991              		.loc 1 1941 0
 2992 0034 0022     		movs	r2, #0
 2993 0036 20E0     		b	.L134
 2994              	.LVL313:
 2995              	.L137:
1942:.\sk_debug.c  ****         
1943:.\sk_debug.c  ****         if( *string == NULL ){
 2996              		.loc 1 1943 0
 2997 0038 2878     		ldrb	r0, [r5]	@ zero_extendqisi2
 2998 003a A0B9     		cbnz	r0, .L135
1944:.\sk_debug.c  ****             Deblog.rec[Deblog.Wpt].buf[i]= ' ';
 2999              		.loc 1 1944 0
 3000 003c 8B00     		lsls	r3, r1, #2
 3001 003e 0B44     		add	r3, r3, r1
 3002 0040 DB00     		lsls	r3, r3, #3
 3003 0042 1E48     		ldr	r0, .L140
 3004 0044 0344     		add	r3, r3, r0
 3005 0046 9818     		adds	r0, r3, r2
 3006 0048 2025     		movs	r5, #32
 3007              	.LVL314:
 3008 004a 8573     		strb	r5, [r0, #14]
1945:.\sk_debug.c  ****             i++;
 3009              		.loc 1 1945 0
 3010 004c 0132     		adds	r2, r2, #1
 3011              	.LVL315:
 3012 004e D2B2     		uxtb	r2, r2
 3013              	.LVL316:
1946:.\sk_debug.c  ****             Deblog.rec[Deblog.Wpt].buf[i]= '0';
 3014              		.loc 1 1946 0
 3015 0050 9818     		adds	r0, r3, r2
 3016 0052 3025     		movs	r5, #48
 3017 0054 8573     		strb	r5, [r0, #14]
1947:.\sk_debug.c  ****             i++;
 3018              		.loc 1 1947 0
 3019 0056 0132     		adds	r2, r2, #1
 3020              	.LVL317:
 3021 0058 D2B2     		uxtb	r2, r2
 3022              	.LVL318:
1948:.\sk_debug.c  ****             Deblog.rec[Deblog.Wpt].buf[i]= 'x';
 3023              		.loc 1 1948 0
 3024 005a 1344     		add	r3, r3, r2
 3025 005c 7820     		movs	r0, #120
 3026 005e 9873     		strb	r0, [r3, #14]
1949:.\sk_debug.c  ****             i++;
 3027              		.loc 1 1949 0
 3028 0060 0132     		adds	r2, r2, #1
 3029              	.LVL319:
 3030 0062 D2B2     		uxtb	r2, r2
 3031              	.LVL320:
1950:.\sk_debug.c  ****             break;
 3032              		.loc 1 1950 0
 3033 0064 0BE0     		b	.L136
ARM GAS  C:\Users\nosak\AppData\Local\Temp\ccBt8IvS.s 			page 89


 3034              	.LVL321:
 3035              	.L135:
1951:.\sk_debug.c  ****         }
1952:.\sk_debug.c  ****         else{
1953:.\sk_debug.c  ****             Deblog.rec[Deblog.Wpt].buf[i] = *string;
 3036              		.loc 1 1953 0 discriminator 2
 3037 0066 01EB8103 		add	r3, r1, r1, lsl #2
 3038 006a DB00     		lsls	r3, r3, #3
 3039 006c 134E     		ldr	r6, .L140
 3040 006e 3344     		add	r3, r3, r6
 3041 0070 1344     		add	r3, r3, r2
 3042 0072 9873     		strb	r0, [r3, #14]
1954:.\sk_debug.c  ****             string ++;
 3043              		.loc 1 1954 0 discriminator 2
 3044 0074 0135     		adds	r5, r5, #1
 3045              	.LVL322:
1941:.\sk_debug.c  ****         
 3046              		.loc 1 1941 0 discriminator 2
 3047 0076 0132     		adds	r2, r2, #1
 3048              	.LVL323:
 3049 0078 D2B2     		uxtb	r2, r2
 3050              	.LVL324:
 3051              	.L134:
1941:.\sk_debug.c  ****         
 3052              		.loc 1 1941 0 is_stmt 0 discriminator 1
 3053 007a 1D2A     		cmp	r2, #29
 3054 007c DCD9     		bls	.L137
 3055              	.LVL325:
 3056              	.L136:
1955:.\sk_debug.c  ****         }   
1956:.\sk_debug.c  ****     }
1957:.\sk_debug.c  **** 
1958:.\sk_debug.c  ****     itoa(data,&Deblog.rec[Deblog.Wpt].buf[i],16);
 3057              		.loc 1 1958 0 is_stmt 1
 3058 007e 01EB8101 		add	r1, r1, r1, lsl #2
 3059 0082 C900     		lsls	r1, r1, #3
 3060 0084 1144     		add	r1, r1, r2
 3061 0086 0D4D     		ldr	r5, .L140
 3062 0088 2944     		add	r1, r1, r5
 3063 008a 2046     		mov	r0, r4
 3064 008c 0E31     		adds	r1, r1, #14
 3065 008e 1022     		movs	r2, #16
 3066              	.LVL326:
 3067 0090 FFF7FEFF 		bl	itoa
 3068              	.LVL327:
1959:.\sk_debug.c  ****     
1960:.\sk_debug.c  ****     //
1961:.\sk_debug.c  ****     // リード、ライトポインタを更新
1962:.\sk_debug.c  ****     // 
1963:.\sk_debug.c  ****     Deblog.Wpt++;
 3069              		.loc 1 1963 0
 3070 0094 2B88     		ldrh	r3, [r5]
 3071 0096 0133     		adds	r3, r3, #1
 3072 0098 9BB2     		uxth	r3, r3
 3073 009a 2B80     		strh	r3, [r5]	@ movhi
1964:.\sk_debug.c  ****     if( Deblog.Wpt > LOG_BUF_MAX ){
 3074              		.loc 1 1964 0
ARM GAS  C:\Users\nosak\AppData\Local\Temp\ccBt8IvS.s 			page 90


 3075 009c B3F57A7F 		cmp	r3, #1000
 3076 00a0 0BD9     		bls	.L133
1965:.\sk_debug.c  ****         Deblog.Wpt =0 ;
 3077              		.loc 1 1965 0
 3078 00a2 0022     		movs	r2, #0
 3079 00a4 2A80     		strh	r2, [r5]	@ movhi
1966:.\sk_debug.c  ****         
1967:.\sk_debug.c  ****         if( Deblog.Wpt == Deblog.Rpt ){
 3080              		.loc 1 1967 0
 3081 00a6 6B88     		ldrh	r3, [r5, #2]
 3082 00a8 3BB9     		cbnz	r3, .L133
1968:.\sk_debug.c  ****             Deblog.Rpt ++;
 3083              		.loc 1 1968 0
 3084 00aa 0133     		adds	r3, r3, #1
 3085 00ac 9BB2     		uxth	r3, r3
 3086 00ae 6B80     		strh	r3, [r5, #2]	@ movhi
1969:.\sk_debug.c  ****                 if( Deblog.Rpt > LOG_BUF_MAX ){
 3087              		.loc 1 1969 0
 3088 00b0 B3F57A7F 		cmp	r3, #1000
 3089 00b4 01D9     		bls	.L133
1970:.\sk_debug.c  ****                     Deblog.Rpt =0 ;
 3090              		.loc 1 1970 0
 3091 00b6 0022     		movs	r2, #0
 3092 00b8 6A80     		strh	r2, [r5, #2]	@ movhi
 3093              	.L133:
 3094 00ba 70BD     		pop	{r4, r5, r6, pc}
 3095              	.L141:
 3096              		.align	2
 3097              	.L140:
 3098 00bc 00000000 		.word	Deblog
 3099 00c0 00000000 		.word	.LANCHOR1
 3100              		.cfi_endproc
 3101              	.LFE91:
 3102              		.size	sk_log_int, .-sk_log_int
 3103              		.section	.text.My_KeisokuTimer_isr_Interrupt,"ax",%progbits
 3104              		.align	2
 3105              		.global	My_KeisokuTimer_isr_Interrupt
 3106              		.thumb
 3107              		.thumb_func
 3108              		.type	My_KeisokuTimer_isr_Interrupt, %function
 3109              	My_KeisokuTimer_isr_Interrupt:
 3110              	.LFB67:
 419:.\sk_debug.c  ****     KeisokuTimer_STATUS;
 3111              		.loc 1 419 0
 3112              		.cfi_startproc
 3113              		@ args = 0, pretend = 0, frame = 0
 3114              		@ frame_needed = 0, uses_anonymous_args = 0
 3115 0000 10B5     		push	{r4, lr}
 3116              		.cfi_def_cfa_offset 8
 3117              		.cfi_offset 4, -8
 3118              		.cfi_offset 14, -4
 420:.\sk_debug.c  ****     if( sk_log_flg & SK_LOG_KEISOKU_TM  ){
 3119              		.loc 1 420 0
 3120 0002 1E4B     		ldr	r3, .L149
 3121 0004 1B78     		ldrb	r3, [r3]	@ zero_extendqisi2
 421:.\sk_debug.c  ****         sk_log_int("KeisokuTimer_INT", 0);        
 3122              		.loc 1 421 0
ARM GAS  C:\Users\nosak\AppData\Local\Temp\ccBt8IvS.s 			page 91


 3123 0006 1E4B     		ldr	r3, .L149+4
 3124 0008 93F91030 		ldrsb	r3, [r3, #16]
 3125 000c 002B     		cmp	r3, #0
 3126 000e 03DA     		bge	.L143
 422:.\sk_debug.c  ****     }
 3127              		.loc 1 422 0
 3128 0010 1C48     		ldr	r0, .L149+8
 3129 0012 0021     		movs	r1, #0
 3130 0014 FFF7FEFF 		bl	sk_log_int
 3131              	.LVL328:
 3132              	.L143:
 425:.\sk_debug.c  ****     
 3133              		.loc 1 425 0
 3134 0018 194C     		ldr	r4, .L149+4
 3135 001a E389     		ldrh	r3, [r4, #14]
 3136 001c 0133     		adds	r3, r3, #1
 3137 001e E381     		strh	r3, [r4, #14]	@ movhi
 428:.\sk_debug.c  ****     sk_0100ms_cnt ++;
 3138              		.loc 1 428 0
 3139 0020 1948     		ldr	r0, .L149+12
 3140 0022 8388     		ldrh	r3, [r0, #4]
 3141 0024 0133     		adds	r3, r3, #1
 3142 0026 9BB2     		uxth	r3, r3
 3143 0028 8380     		strh	r3, [r0, #4]	@ movhi
 429:.\sk_debug.c  ****     sk_0010ms_cnt ++;
 3144              		.loc 1 429 0
 3145 002a C288     		ldrh	r2, [r0, #6]
 3146 002c 0132     		adds	r2, r2, #1
 3147 002e 92B2     		uxth	r2, r2
 3148 0030 C280     		strh	r2, [r0, #6]	@ movhi
 430:.\sk_debug.c  ****     sk_0001ms_cnt ++;
 3149              		.loc 1 430 0
 3150 0032 0189     		ldrh	r1, [r0, #8]
 3151 0034 0131     		adds	r1, r1, #1
 3152 0036 89B2     		uxth	r1, r1
 3153 0038 0181     		strh	r1, [r0, #8]	@ movhi
 431:.\sk_debug.c  ****     
 3154              		.loc 1 431 0
 3155 003a 608A     		ldrh	r0, [r4, #18]
 3156 003c 0130     		adds	r0, r0, #1
 3157 003e 80B2     		uxth	r0, r0
 3158 0040 6082     		strh	r0, [r4, #18]	@ movhi
 434:.\sk_debug.c  ****         sk_0001ms_flg = TM_ON;
 3159              		.loc 1 434 0
 3160 0042 1328     		cmp	r0, #19
 3161 0044 04D9     		bls	.L144
 435:.\sk_debug.c  ****         sk_0001ms_cnt = 0;
 3162              		.loc 1 435 0
 3163 0046 0020     		movs	r0, #0
 3164 0048 0F4C     		ldr	r4, .L149+12
 3165 004a 2070     		strb	r0, [r4]
 436:.\sk_debug.c  ****     }
 3166              		.loc 1 436 0
 3167 004c 0C4C     		ldr	r4, .L149+4
 3168 004e 6082     		strh	r0, [r4, #18]	@ movhi
 3169              	.L144:
 439:.\sk_debug.c  ****         sk_0010ms_flg = TM_ON;
ARM GAS  C:\Users\nosak\AppData\Local\Temp\ccBt8IvS.s 			page 92


 3170              		.loc 1 439 0
 3171 0050 C729     		cmp	r1, #199
 3172 0052 03D9     		bls	.L145
 440:.\sk_debug.c  ****         sk_0010ms_cnt = 0;
 3173              		.loc 1 440 0
 3174 0054 0C49     		ldr	r1, .L149+12
 3175 0056 0020     		movs	r0, #0
 3176 0058 4870     		strb	r0, [r1, #1]
 441:.\sk_debug.c  ****     }
 3177              		.loc 1 441 0
 3178 005a 0881     		strh	r0, [r1, #8]	@ movhi
 3179              	.L145:
 444:.\sk_debug.c  ****         sk_0100ms_flg = TM_ON;
 3180              		.loc 1 444 0
 3181 005c B2F5FA6F 		cmp	r2, #2000
 3182 0060 03D3     		bcc	.L146
 445:.\sk_debug.c  ****         sk_0100ms_cnt = 0;
 3183              		.loc 1 445 0
 3184 0062 094A     		ldr	r2, .L149+12
 3185 0064 0021     		movs	r1, #0
 3186 0066 9170     		strb	r1, [r2, #2]
 446:.\sk_debug.c  ****     }
 3187              		.loc 1 446 0
 3188 0068 D180     		strh	r1, [r2, #6]	@ movhi
 3189              	.L146:
 449:.\sk_debug.c  ****         sk_1000ms_flg = TM_ON;
 3190              		.loc 1 449 0
 3191 006a 44F61F62 		movw	r2, #19999
 3192 006e 9342     		cmp	r3, r2
 3193 0070 03D9     		bls	.L142
 450:.\sk_debug.c  ****         sk_1000ms_cnt = 0;
 3194              		.loc 1 450 0
 3195 0072 054B     		ldr	r3, .L149+12
 3196 0074 0022     		movs	r2, #0
 3197 0076 DA70     		strb	r2, [r3, #3]
 451:.\sk_debug.c  ****     }
 3198              		.loc 1 451 0
 3199 0078 9A80     		strh	r2, [r3, #4]	@ movhi
 3200              	.L142:
 3201 007a 10BD     		pop	{r4, pc}
 3202              	.L150:
 3203              		.align	2
 3204              	.L149:
 3205 007c 034F0040 		.word	1073762051
 3206 0080 00000000 		.word	.LANCHOR1
 3207 0084 640D0000 		.word	.LC202
 3208 0088 00000000 		.word	.LANCHOR0
 3209              		.cfi_endproc
 3210              	.LFE67:
 3211              		.size	My_KeisokuTimer_isr_Interrupt, .-My_KeisokuTimer_isr_Interrupt
 3212              		.section	.text.sk_log_int_string,"ax",%progbits
 3213              		.align	2
 3214              		.global	sk_log_int_string
 3215              		.thumb
 3216              		.thumb_func
 3217              		.type	sk_log_int_string, %function
 3218              	sk_log_int_string:
ARM GAS  C:\Users\nosak\AppData\Local\Temp\ccBt8IvS.s 			page 93


 3219              	.LFB92:
1971:.\sk_debug.c  ****                 }
1972:.\sk_debug.c  ****         }
1973:.\sk_debug.c  ****     }
1974:.\sk_debug.c  ****     
1975:.\sk_debug.c  ****     
1976:.\sk_debug.c  ****     
1977:.\sk_debug.c  **** }
1978:.\sk_debug.c  **** 
1979:.\sk_debug.c  **** //***************************************************************************
1980:.\sk_debug.c  **** //
1981:.\sk_debug.c  **** //
1982:.\sk_debug.c  **** //***************************************************************************
1983:.\sk_debug.c  **** void sk_log_int_string(char8 *string)
1984:.\sk_debug.c  **** {
 3220              		.loc 1 1984 0
 3221              		.cfi_startproc
 3222              		@ args = 0, pretend = 0, frame = 0
 3223              		@ frame_needed = 0, uses_anonymous_args = 0
 3224              	.LVL329:
 3225 0000 70B5     		push	{r4, r5, r6, lr}
 3226              		.cfi_def_cfa_offset 16
 3227              		.cfi_offset 4, -16
 3228              		.cfi_offset 5, -12
 3229              		.cfi_offset 6, -8
 3230              		.cfi_offset 14, -4
 3231 0002 0446     		mov	r4, r0
1985:.\sk_debug.c  ****      RTC_1_TIME_DATE  *tm;
1986:.\sk_debug.c  ****     uint8 i;
1987:.\sk_debug.c  ****     uint8 null_flg;
1988:.\sk_debug.c  ****     
1989:.\sk_debug.c  ****     // 
1990:.\sk_debug.c  ****     // RTCから時刻を読む
1991:.\sk_debug.c  ****     // 
1992:.\sk_debug.c  ****     tm = RTC_1_ReadTime();
 3232              		.loc 1 1992 0
 3233 0004 FFF7FEFF 		bl	RTC_1_ReadTime
 3234              	.LVL330:
1993:.\sk_debug.c  ****     
1994:.\sk_debug.c  ****     Deblog.rec[Deblog.Wpt].Year = tm->Year;
 3235              		.loc 1 1994 0
 3236 0008 274A     		ldr	r2, .L159
 3237 000a 1688     		ldrh	r6, [r2]
 3238 000c 3546     		mov	r5, r6
 3239 000e 4189     		ldrh	r1, [r0, #10]
 3240 0010 B300     		lsls	r3, r6, #2
 3241 0012 3344     		add	r3, r3, r6
 3242 0014 DB00     		lsls	r3, r3, #3
 3243 0016 1344     		add	r3, r3, r2
 3244 0018 5981     		strh	r1, [r3, #10]	@ movhi
1995:.\sk_debug.c  ****     Deblog.rec[Deblog.Wpt].Month = tm->Month;
 3245              		.loc 1 1995 0
 3246 001a 027A     		ldrb	r2, [r0, #8]	@ zero_extendqisi2
 3247 001c 1A72     		strb	r2, [r3, #8]
1996:.\sk_debug.c  ****     Deblog.rec[Deblog.Wpt].DayOfMonth = tm->DayOfMonth;
 3248              		.loc 1 1996 0
 3249 001e 0279     		ldrb	r2, [r0, #4]	@ zero_extendqisi2
ARM GAS  C:\Users\nosak\AppData\Local\Temp\ccBt8IvS.s 			page 94


 3250 0020 DA71     		strb	r2, [r3, #7]
1997:.\sk_debug.c  ****     Deblog.rec[Deblog.Wpt].Hour = tm->Hour;
 3251              		.loc 1 1997 0
 3252 0022 8278     		ldrb	r2, [r0, #2]	@ zero_extendqisi2
 3253 0024 9A71     		strb	r2, [r3, #6]
1998:.\sk_debug.c  ****     Deblog.rec[Deblog.Wpt].Min = tm->Min;
 3254              		.loc 1 1998 0
 3255 0026 4278     		ldrb	r2, [r0, #1]	@ zero_extendqisi2
 3256 0028 5A71     		strb	r2, [r3, #5]
1999:.\sk_debug.c  ****     Deblog.rec[Deblog.Wpt].Sec = tm->Sec;
 3257              		.loc 1 1999 0
 3258 002a 0278     		ldrb	r2, [r0]	@ zero_extendqisi2
 3259 002c 1A71     		strb	r2, [r3, #4]
2000:.\sk_debug.c  ****     Deblog.rec[Deblog.Wpt].time = sk_sub_cycl_int_cnt;
 3260              		.loc 1 2000 0
 3261 002e 1F4A     		ldr	r2, .L159+4
 3262 0030 D289     		ldrh	r2, [r2, #14]
 3263 0032 9A81     		strh	r2, [r3, #12]	@ movhi
 3264              	.LVL331:
2001:.\sk_debug.c  ****     
2002:.\sk_debug.c  ****     // 
2003:.\sk_debug.c  ****     // 引数の文字をレコードに登録
2004:.\sk_debug.c  ****     //
2005:.\sk_debug.c  ****     null_flg=0;
2006:.\sk_debug.c  ****     for(i=0; i< LOG_BUF_CHAR; i++){
