ARM GAS  C:\Users\miyag\AppData\Local\Temp\ccfoMVeh.s 			page 1


   1              		.syntax unified
   2              		.cpu cortex-m3
   3              		.fpu softvfp
   4              		.eabi_attribute 20, 1
   5              		.eabi_attribute 21, 1
   6              		.eabi_attribute 23, 3
   7              		.eabi_attribute 24, 1
   8              		.eabi_attribute 25, 1
   9              		.eabi_attribute 26, 1
  10              		.eabi_attribute 30, 4
  11              		.eabi_attribute 34, 1
  12              		.eabi_attribute 18, 4
  13              		.thumb
  14              		.file	"DieTemp_1.c"
  15              		.text
  16              	.Ltext0:
  17              		.cfi_sections	.debug_frame
  18              		.section	.text.DieTemp_1_Start,"ax",%progbits
  19              		.align	1
  20              		.global	DieTemp_1_Start
  21              		.thumb
  22              		.thumb_func
  23              		.type	DieTemp_1_Start, %function
  24              	DieTemp_1_Start:
  25              	.LFB0:
  26              		.file 1 ".\\Generated_Source\\PSoC5\\DieTemp_1.c"
   1:.\Generated_Source\PSoC5/DieTemp_1.c **** /*******************************************************************************
   2:.\Generated_Source\PSoC5/DieTemp_1.c **** * File Name: DieTemp_1_DieTemp.c
   3:.\Generated_Source\PSoC5/DieTemp_1.c **** * Version 2.0
   4:.\Generated_Source\PSoC5/DieTemp_1.c **** *
   5:.\Generated_Source\PSoC5/DieTemp_1.c **** * Description:
   6:.\Generated_Source\PSoC5/DieTemp_1.c **** *  Provides the API to acquire the die temperature.
   7:.\Generated_Source\PSoC5/DieTemp_1.c **** *
   8:.\Generated_Source\PSoC5/DieTemp_1.c **** ********************************************************************************
   9:.\Generated_Source\PSoC5/DieTemp_1.c **** * Copyright 2008-2012, Cypress Semiconductor Corporation.  All rights reserved.
  10:.\Generated_Source\PSoC5/DieTemp_1.c **** * You may use this file only in accordance with the license, terms, conditions,
  11:.\Generated_Source\PSoC5/DieTemp_1.c **** * disclaimers, and limitations in the end user license agreement accompanying
  12:.\Generated_Source\PSoC5/DieTemp_1.c **** * the software package with which this file was provided.
  13:.\Generated_Source\PSoC5/DieTemp_1.c **** *******************************************************************************/
  14:.\Generated_Source\PSoC5/DieTemp_1.c **** 
  15:.\Generated_Source\PSoC5/DieTemp_1.c **** 
  16:.\Generated_Source\PSoC5/DieTemp_1.c **** #include <cydevice_trm.H>
  17:.\Generated_Source\PSoC5/DieTemp_1.c **** #include <DieTemp_1.h>
  18:.\Generated_Source\PSoC5/DieTemp_1.c **** 
  19:.\Generated_Source\PSoC5/DieTemp_1.c **** 
  20:.\Generated_Source\PSoC5/DieTemp_1.c **** #define DieTemp_1_NUMBER_OF_SAMPLES      (0x1u)
  21:.\Generated_Source\PSoC5/DieTemp_1.c **** #define DieTemp_1_TIMER_PERIOD           (0xFFFu)
  22:.\Generated_Source\PSoC5/DieTemp_1.c **** #define DieTemp_1_CLK_DIV_SELECT         (0x4u)
  23:.\Generated_Source\PSoC5/DieTemp_1.c **** #define DieTemp_1_SPC_CLK_PERIOD         (120u) /* In nano seconds. */
  24:.\Generated_Source\PSoC5/DieTemp_1.c **** #define DieTemp_1_NANO_TO_MILLI_FACTOR   (1000000u)
  25:.\Generated_Source\PSoC5/DieTemp_1.c **** #define DieTemp_1_FRM_EXEC_TIME          (1000u) /* In nano seconds. */
  26:.\Generated_Source\PSoC5/DieTemp_1.c **** 
  27:.\Generated_Source\PSoC5/DieTemp_1.c **** #define DieTemp_1_GET_TEMPR_TIME     (uint32)(((((uint32)1u << (DieTemp_1_NUMBER_OF_SAMPLES + 1u)))
  28:.\Generated_Source\PSoC5/DieTemp_1.c ****                                                 ((uint32)(DieTemp_1_SPC_CLK_PERIOD * \
  29:.\Generated_Source\PSoC5/DieTemp_1.c ****                                                 DieTemp_1_CLK_DIV_SELECT)) * \
  30:.\Generated_Source\PSoC5/DieTemp_1.c ****                                                 ((uint32)DieTemp_1_TIMER_PERIOD)) + \
  31:.\Generated_Source\PSoC5/DieTemp_1.c ****                                                 (uint32)DieTemp_1_FRM_EXEC_TIME)
ARM GAS  C:\Users\miyag\AppData\Local\Temp\ccfoMVeh.s 			page 2


  32:.\Generated_Source\PSoC5/DieTemp_1.c **** 
  33:.\Generated_Source\PSoC5/DieTemp_1.c **** #define DieTemp_1_MAX_WAIT           (uint16)(((DieTemp_1_GET_TEMPR_TIME + \
  34:.\Generated_Source\PSoC5/DieTemp_1.c ****                                                 DieTemp_1_NANO_TO_MILLI_FACTOR) - 1u) / \
  35:.\Generated_Source\PSoC5/DieTemp_1.c ****                                                 DieTemp_1_NANO_TO_MILLI_FACTOR)  /* In milli second
  36:.\Generated_Source\PSoC5/DieTemp_1.c **** 
  37:.\Generated_Source\PSoC5/DieTemp_1.c **** static cystatus DieTemp_1_GetTempT(int16 * temperature);
  38:.\Generated_Source\PSoC5/DieTemp_1.c **** 
  39:.\Generated_Source\PSoC5/DieTemp_1.c **** 
  40:.\Generated_Source\PSoC5/DieTemp_1.c **** /*******************************************************************************
  41:.\Generated_Source\PSoC5/DieTemp_1.c **** * Function Name: DieTemp_1_Start
  42:.\Generated_Source\PSoC5/DieTemp_1.c **** ********************************************************************************
  43:.\Generated_Source\PSoC5/DieTemp_1.c **** *
  44:.\Generated_Source\PSoC5/DieTemp_1.c **** * Summary:
  45:.\Generated_Source\PSoC5/DieTemp_1.c **** *  Starts the SPC command to get the die temperature. If this function is
  46:.\Generated_Source\PSoC5/DieTemp_1.c **** *  called successfuly. The SPC will be locked and DieTemp_1_QueryDieTemp
  47:.\Generated_Source\PSoC5/DieTemp_1.c **** *  will have to be successfuly called to unlock it. CySpcUnlock() can also
  48:.\Generated_Source\PSoC5/DieTemp_1.c **** *  be called if the caller decides not to finish the temperature reading.
  49:.\Generated_Source\PSoC5/DieTemp_1.c **** *
  50:.\Generated_Source\PSoC5/DieTemp_1.c **** * Parameters:
  51:.\Generated_Source\PSoC5/DieTemp_1.c **** *  void.
  52:.\Generated_Source\PSoC5/DieTemp_1.c **** *
  53:.\Generated_Source\PSoC5/DieTemp_1.c **** * Return:
  54:.\Generated_Source\PSoC5/DieTemp_1.c **** *  CYRET_STARTED if the spc command was started sucessfuly.
  55:.\Generated_Source\PSoC5/DieTemp_1.c **** *  CYRET_UNKNOWN if the spc command failed.
  56:.\Generated_Source\PSoC5/DieTemp_1.c **** *  CYRET_LOCKED if the spc was busy.
  57:.\Generated_Source\PSoC5/DieTemp_1.c **** *
  58:.\Generated_Source\PSoC5/DieTemp_1.c **** *******************************************************************************/
  59:.\Generated_Source\PSoC5/DieTemp_1.c **** cystatus DieTemp_1_Start(void) 
  60:.\Generated_Source\PSoC5/DieTemp_1.c **** {
  27              		.loc 1 60 0
  28              		.cfi_startproc
  29              		@ args = 0, pretend = 0, frame = 0
  30              		@ frame_needed = 0, uses_anonymous_args = 0
  31              	.LVL0:
  32 0000 10B5     		push	{r4, lr}
  33              		.cfi_def_cfa_offset 8
  34              		.cfi_offset 4, -8
  35              		.cfi_offset 14, -4
  61:.\Generated_Source\PSoC5/DieTemp_1.c ****     cystatus status;
  62:.\Generated_Source\PSoC5/DieTemp_1.c **** 
  63:.\Generated_Source\PSoC5/DieTemp_1.c ****     /* Plan for failure. */
  64:.\Generated_Source\PSoC5/DieTemp_1.c ****     status = CYRET_UNKNOWN;
  65:.\Generated_Source\PSoC5/DieTemp_1.c **** 
  66:.\Generated_Source\PSoC5/DieTemp_1.c ****     /* Power up the SPC. */
  67:.\Generated_Source\PSoC5/DieTemp_1.c ****     CySpcStart();
  36              		.loc 1 67 0
  37 0002 FFF7FEFF 		bl	CySpcStart
  38              	.LVL1:
  68:.\Generated_Source\PSoC5/DieTemp_1.c **** 
  69:.\Generated_Source\PSoC5/DieTemp_1.c ****     if(CySpcLock() == CYRET_SUCCESS)
  39              		.loc 1 69 0
  40 0006 FFF7FEFF 		bl	CySpcLock
  41              	.LVL2:
  42 000a 50B9     		cbnz	r0, .L4
  43              	.LBB4:
  44              	.LBB5:
  70:.\Generated_Source\PSoC5/DieTemp_1.c ****     {
ARM GAS  C:\Users\miyag\AppData\Local\Temp\ccfoMVeh.s 			page 3


  71:.\Generated_Source\PSoC5/DieTemp_1.c ****         #if(CY_PSOC5A)
  72:.\Generated_Source\PSoC5/DieTemp_1.c ****             if(CYRET_STARTED == CySpcGetTemp(DieTemp_1_NUMBER_OF_SAMPLES,
  73:.\Generated_Source\PSoC5/DieTemp_1.c ****                                              DieTemp_1_TIMER_PERIOD,
  74:.\Generated_Source\PSoC5/DieTemp_1.c ****                                              DieTemp_1_CLK_DIV_SELECT))
  75:.\Generated_Source\PSoC5/DieTemp_1.c ****             {
  76:.\Generated_Source\PSoC5/DieTemp_1.c ****                 status = CYRET_STARTED;
  77:.\Generated_Source\PSoC5/DieTemp_1.c ****             }
  78:.\Generated_Source\PSoC5/DieTemp_1.c ****         #else
  79:.\Generated_Source\PSoC5/DieTemp_1.c ****             if(CYRET_STARTED == CySpcGetTemp(DieTemp_1_NUMBER_OF_SAMPLES))
  45              		.loc 1 79 0
  46 000c 0120     		movs	r0, #1
  47 000e FFF7FEFF 		bl	CySpcGetTemp
  48              	.LVL3:
  49 0012 0728     		cmp	r0, #7
  80:.\Generated_Source\PSoC5/DieTemp_1.c ****             {
  81:.\Generated_Source\PSoC5/DieTemp_1.c ****                 status = CYRET_STARTED;
  50              		.loc 1 81 0
  51 0014 14BF     		ite	ne
  52 0016 4FF0FF34 		movne	r4, #-1
  53 001a 0724     		moveq	r4, #7
  54              	.LVL4:
  82:.\Generated_Source\PSoC5/DieTemp_1.c ****             }
  83:.\Generated_Source\PSoC5/DieTemp_1.c ****         #endif  /* (CY_PSOC5A) */
  84:.\Generated_Source\PSoC5/DieTemp_1.c ****         CySpcUnlock();
  55              		.loc 1 84 0
  56 001c FFF7FEFF 		bl	CySpcUnlock
  57              	.LVL5:
  58 0020 00E0     		b	.L2
  59              	.LVL6:
  60              	.L4:
  61              	.LBE5:
  62              	.LBE4:
  85:.\Generated_Source\PSoC5/DieTemp_1.c ****     }
  86:.\Generated_Source\PSoC5/DieTemp_1.c ****     else
  87:.\Generated_Source\PSoC5/DieTemp_1.c ****     {
  88:.\Generated_Source\PSoC5/DieTemp_1.c ****         status = CYRET_LOCKED;
  63              		.loc 1 88 0
  64 0022 0424     		movs	r4, #4
  65              	.L2:
  66              	.LVL7:
  89:.\Generated_Source\PSoC5/DieTemp_1.c ****     }
  90:.\Generated_Source\PSoC5/DieTemp_1.c ****     return (status);
  91:.\Generated_Source\PSoC5/DieTemp_1.c **** }
  67              		.loc 1 91 0
  68 0024 2046     		mov	r0, r4
  69 0026 10BD     		pop	{r4, pc}
  70              		.cfi_endproc
  71              	.LFE0:
  72              		.size	DieTemp_1_Start, .-DieTemp_1_Start
  73              		.section	.text.DieTemp_1_Stop,"ax",%progbits
  74              		.align	1
  75              		.global	DieTemp_1_Stop
  76              		.thumb
  77              		.thumb_func
  78              		.type	DieTemp_1_Stop, %function
  79              	DieTemp_1_Stop:
  80              	.LFB1:
ARM GAS  C:\Users\miyag\AppData\Local\Temp\ccfoMVeh.s 			page 4


  92:.\Generated_Source\PSoC5/DieTemp_1.c **** 
  93:.\Generated_Source\PSoC5/DieTemp_1.c **** 
  94:.\Generated_Source\PSoC5/DieTemp_1.c **** /*******************************************************************************
  95:.\Generated_Source\PSoC5/DieTemp_1.c **** * FUNCTION NAME:   DieTemp_1_Stop
  96:.\Generated_Source\PSoC5/DieTemp_1.c **** ********************************************************************************
  97:.\Generated_Source\PSoC5/DieTemp_1.c **** *
  98:.\Generated_Source\PSoC5/DieTemp_1.c **** * Summary:
  99:.\Generated_Source\PSoC5/DieTemp_1.c **** *  There is no need to stop or disable this component. This component is
 100:.\Generated_Source\PSoC5/DieTemp_1.c **** *  naturally a slave that sends request to SPC through SPC API of cy_boot
 101:.\Generated_Source\PSoC5/DieTemp_1.c **** *  and waits for data to be ready or in case of non-blocking operation it
 102:.\Generated_Source\PSoC5/DieTemp_1.c **** *  sends request to SPC and user can manually poll the result.
 103:.\Generated_Source\PSoC5/DieTemp_1.c **** *
 104:.\Generated_Source\PSoC5/DieTemp_1.c **** * Parameters:
 105:.\Generated_Source\PSoC5/DieTemp_1.c **** *  void
 106:.\Generated_Source\PSoC5/DieTemp_1.c **** *
 107:.\Generated_Source\PSoC5/DieTemp_1.c **** * Return:
 108:.\Generated_Source\PSoC5/DieTemp_1.c **** *  void
 109:.\Generated_Source\PSoC5/DieTemp_1.c **** *
 110:.\Generated_Source\PSoC5/DieTemp_1.c **** *******************************************************************************/
 111:.\Generated_Source\PSoC5/DieTemp_1.c **** void DieTemp_1_Stop(void) 
 112:.\Generated_Source\PSoC5/DieTemp_1.c **** {
  81              		.loc 1 112 0
  82              		.cfi_startproc
  83              		@ args = 0, pretend = 0, frame = 0
  84              		@ frame_needed = 0, uses_anonymous_args = 0
  85              		@ link register save eliminated.
  86 0000 7047     		bx	lr
  87              		.cfi_endproc
  88              	.LFE1:
  89              		.size	DieTemp_1_Stop, .-DieTemp_1_Stop
  90              		.section	.text.DieTemp_1_Query,"ax",%progbits
  91              		.align	1
  92              		.global	DieTemp_1_Query
  93              		.thumb
  94              		.thumb_func
  95              		.type	DieTemp_1_Query, %function
  96              	DieTemp_1_Query:
  97              	.LFB2:
 113:.\Generated_Source\PSoC5/DieTemp_1.c ****     /* There aren't anything to stop */
 114:.\Generated_Source\PSoC5/DieTemp_1.c **** }
 115:.\Generated_Source\PSoC5/DieTemp_1.c **** 
 116:.\Generated_Source\PSoC5/DieTemp_1.c **** 
 117:.\Generated_Source\PSoC5/DieTemp_1.c **** /*******************************************************************************
 118:.\Generated_Source\PSoC5/DieTemp_1.c **** * Function Name: DieTemp_1_Query
 119:.\Generated_Source\PSoC5/DieTemp_1.c **** ********************************************************************************
 120:.\Generated_Source\PSoC5/DieTemp_1.c **** *
 121:.\Generated_Source\PSoC5/DieTemp_1.c **** * Summary:
 122:.\Generated_Source\PSoC5/DieTemp_1.c **** *  Querys the SPC to see if the termperature command is finished.
 123:.\Generated_Source\PSoC5/DieTemp_1.c **** *
 124:.\Generated_Source\PSoC5/DieTemp_1.c **** * Parameters:
 125:.\Generated_Source\PSoC5/DieTemp_1.c **** *  temperature: Address to store the two byte temperature value.
 126:.\Generated_Source\PSoC5/DieTemp_1.c **** *
 127:.\Generated_Source\PSoC5/DieTemp_1.c **** * Return:
 128:.\Generated_Source\PSoC5/DieTemp_1.c **** *  CYRET_SUCCESS if the temperature command completed sucessfully.
 129:.\Generated_Source\PSoC5/DieTemp_1.c **** *  CYRET_UNKNOWN if the there was an spc failure.
 130:.\Generated_Source\PSoC5/DieTemp_1.c **** *  CYRET_STARTED if the temperature command has not completed.
 131:.\Generated_Source\PSoC5/DieTemp_1.c **** *  CYRET_TIMEOUT if waited to long before reading data.
ARM GAS  C:\Users\miyag\AppData\Local\Temp\ccfoMVeh.s 			page 5


 132:.\Generated_Source\PSoC5/DieTemp_1.c **** *
 133:.\Generated_Source\PSoC5/DieTemp_1.c **** *******************************************************************************/
 134:.\Generated_Source\PSoC5/DieTemp_1.c **** cystatus DieTemp_1_Query(int16 * temperature) 
 135:.\Generated_Source\PSoC5/DieTemp_1.c **** {
  98              		.loc 1 135 0
  99              		.cfi_startproc
 100              		@ args = 0, pretend = 0, frame = 8
 101              		@ frame_needed = 0, uses_anonymous_args = 0
 102              	.LVL8:
 103              		.loc 1 135 0
 104 0000 37B5     		push	{r0, r1, r2, r4, r5, lr}
 105              		.cfi_def_cfa_offset 24
 106              		.cfi_offset 4, -12
 107              		.cfi_offset 5, -8
 108              		.cfi_offset 14, -4
 136:.\Generated_Source\PSoC5/DieTemp_1.c ****     uint8 temp[2u];
 137:.\Generated_Source\PSoC5/DieTemp_1.c ****     cystatus status;
 138:.\Generated_Source\PSoC5/DieTemp_1.c **** 
 139:.\Generated_Source\PSoC5/DieTemp_1.c **** 
 140:.\Generated_Source\PSoC5/DieTemp_1.c ****     if(CY_SPC_BUSY)
 109              		.loc 1 140 0
 110 0002 114B     		ldr	r3, .L17
 135:.\Generated_Source\PSoC5/DieTemp_1.c ****     uint8 temp[2u];
 111              		.loc 1 135 0
 112 0004 0546     		mov	r5, r0
 113              		.loc 1 140 0
 114 0006 1A78     		ldrb	r2, [r3]	@ zero_extendqisi2
 115 0008 9207     		lsls	r2, r2, #30
 116 000a 13D4     		bmi	.L12
 141:.\Generated_Source\PSoC5/DieTemp_1.c ****     {
 142:.\Generated_Source\PSoC5/DieTemp_1.c ****         if((CY_SPC_STATUS_REG>>2u) == CYRET_SUCCESS)
 117              		.loc 1 142 0
 118 000c 1C78     		ldrb	r4, [r3]	@ zero_extendqisi2
 119 000e A408     		lsrs	r4, r4, #2
 120 0010 0ED1     		bne	.L13
 143:.\Generated_Source\PSoC5/DieTemp_1.c ****         {
 144:.\Generated_Source\PSoC5/DieTemp_1.c ****             /* See if any data is ready. */
 145:.\Generated_Source\PSoC5/DieTemp_1.c ****             if(CySpcReadData(temp, 2u) == 2u)
 121              		.loc 1 145 0
 122 0012 01A8     		add	r0, sp, #4
 123              	.LVL9:
 124 0014 0221     		movs	r1, #2
 125 0016 FFF7FEFF 		bl	CySpcReadData
 126              	.LVL10:
 127 001a 0228     		cmp	r0, #2
 128 001c 0CD1     		bne	.L14
 146:.\Generated_Source\PSoC5/DieTemp_1.c ****             {
 147:.\Generated_Source\PSoC5/DieTemp_1.c ****                 if(temp[0u] == 1u)
 129              		.loc 1 147 0
 130 001e 9DF80430 		ldrb	r3, [sp, #4]	@ zero_extendqisi2
 131 0022 012B     		cmp	r3, #1
 132 0024 9DF80530 		ldrb	r3, [sp, #5]	@ zero_extendqisi2
 148:.\Generated_Source\PSoC5/DieTemp_1.c ****                 {
 149:.\Generated_Source\PSoC5/DieTemp_1.c ****                     *temperature = (int16) ((uint16) temp[1]);
 150:.\Generated_Source\PSoC5/DieTemp_1.c ****                 }
 151:.\Generated_Source\PSoC5/DieTemp_1.c ****                 else
 152:.\Generated_Source\PSoC5/DieTemp_1.c ****                 {
ARM GAS  C:\Users\miyag\AppData\Local\Temp\ccfoMVeh.s 			page 6


 153:.\Generated_Source\PSoC5/DieTemp_1.c ****                     *temperature = (int16) - ((int16) temp[1]);
 133              		.loc 1 153 0
 134 0028 18BF     		it	ne
 135 002a 5B42     		rsbne	r3, r3, #0
 136 002c 2B80     		strh	r3, [r5]	@ movhi
 137 002e 05E0     		b	.L9
 138              	.LVL11:
 139              	.L13:
 154:.\Generated_Source\PSoC5/DieTemp_1.c ****                 }
 155:.\Generated_Source\PSoC5/DieTemp_1.c ****                 status = CYRET_SUCCESS;
 156:.\Generated_Source\PSoC5/DieTemp_1.c ****             }
 157:.\Generated_Source\PSoC5/DieTemp_1.c ****             else
 158:.\Generated_Source\PSoC5/DieTemp_1.c ****             {
 159:.\Generated_Source\PSoC5/DieTemp_1.c ****                 status = CYRET_UNKNOWN;
 160:.\Generated_Source\PSoC5/DieTemp_1.c ****             }
 161:.\Generated_Source\PSoC5/DieTemp_1.c ****         }
 162:.\Generated_Source\PSoC5/DieTemp_1.c ****         else
 163:.\Generated_Source\PSoC5/DieTemp_1.c ****         {
 164:.\Generated_Source\PSoC5/DieTemp_1.c ****             status = CYRET_STARTED;
 140              		.loc 1 164 0
 141 0030 0724     		movs	r4, #7
 142 0032 05E0     		b	.L15
 143              	.L12:
 165:.\Generated_Source\PSoC5/DieTemp_1.c ****         }
 166:.\Generated_Source\PSoC5/DieTemp_1.c ****     }
 167:.\Generated_Source\PSoC5/DieTemp_1.c ****     else
 168:.\Generated_Source\PSoC5/DieTemp_1.c ****     {
 169:.\Generated_Source\PSoC5/DieTemp_1.c ****         status = CYRET_TIMEOUT;
 144              		.loc 1 169 0
 145 0034 1024     		movs	r4, #16
 146 0036 01E0     		b	.L9
 147              	.LVL12:
 148              	.L14:
 159:.\Generated_Source\PSoC5/DieTemp_1.c ****             }
 149              		.loc 1 159 0
 150 0038 4FF0FF34 		mov	r4, #-1
 151              	.L9:
 152              	.LVL13:
 170:.\Generated_Source\PSoC5/DieTemp_1.c ****     }
 171:.\Generated_Source\PSoC5/DieTemp_1.c **** 
 172:.\Generated_Source\PSoC5/DieTemp_1.c ****     if(status != CYRET_STARTED)
 173:.\Generated_Source\PSoC5/DieTemp_1.c ****     {
 174:.\Generated_Source\PSoC5/DieTemp_1.c ****         /* Unlock the SPC so someone else can use it. */
 175:.\Generated_Source\PSoC5/DieTemp_1.c ****         CySpcUnlock();
 153              		.loc 1 175 0
 154 003c FFF7FEFF 		bl	CySpcUnlock
 155              	.LVL14:
 156              	.L15:
 176:.\Generated_Source\PSoC5/DieTemp_1.c ****     }
 177:.\Generated_Source\PSoC5/DieTemp_1.c ****     return (status);
 178:.\Generated_Source\PSoC5/DieTemp_1.c **** }
 157              		.loc 1 178 0
 158 0040 2046     		mov	r0, r4
 159 0042 03B0     		add	sp, sp, #12
 160              		.cfi_def_cfa_offset 12
 161              		@ sp needed
 162 0044 30BD     		pop	{r4, r5, pc}
ARM GAS  C:\Users\miyag\AppData\Local\Temp\ccfoMVeh.s 			page 7


 163              	.LVL15:
 164              	.L18:
 165 0046 00BF     		.align	2
 166              	.L17:
 167 0048 22470040 		.word	1073760034
 168              		.cfi_endproc
 169              	.LFE2:
 170              		.size	DieTemp_1_Query, .-DieTemp_1_Query
 171              		.section	.text.DieTemp_1_GetTemp,"ax",%progbits
 172              		.align	1
 173              		.global	DieTemp_1_GetTemp
 174              		.thumb
 175              		.thumb_func
 176              		.type	DieTemp_1_GetTemp, %function
 177              	DieTemp_1_GetTemp:
 178              	.LFB4:
 179:.\Generated_Source\PSoC5/DieTemp_1.c **** 
 180:.\Generated_Source\PSoC5/DieTemp_1.c **** 
 181:.\Generated_Source\PSoC5/DieTemp_1.c **** /*******************************************************************************
 182:.\Generated_Source\PSoC5/DieTemp_1.c **** * Function Name: DieTemp_1_GetTemp
 183:.\Generated_Source\PSoC5/DieTemp_1.c **** ********************************************************************************
 184:.\Generated_Source\PSoC5/DieTemp_1.c **** *
 185:.\Generated_Source\PSoC5/DieTemp_1.c **** * Summary:
 186:.\Generated_Source\PSoC5/DieTemp_1.c **** *  Sets up the command to get the temperature and blocks until finished. After
 187:.\Generated_Source\PSoC5/DieTemp_1.c **** *  DieTemp_1_MAX_WAIT ticks the function will return even if the
 188:.\Generated_Source\PSoC5/DieTemp_1.c **** *  SPC has not finished.
 189:.\Generated_Source\PSoC5/DieTemp_1.c **** *
 190:.\Generated_Source\PSoC5/DieTemp_1.c **** * Parameters:
 191:.\Generated_Source\PSoC5/DieTemp_1.c **** *  temperature: Address to store the two byte temperature value.
 192:.\Generated_Source\PSoC5/DieTemp_1.c **** *
 193:.\Generated_Source\PSoC5/DieTemp_1.c **** * Return:
 194:.\Generated_Source\PSoC5/DieTemp_1.c **** *  CYRET_SUCCESS if the command was completed sucessfuly.
 195:.\Generated_Source\PSoC5/DieTemp_1.c **** *  Status code from DieTemp_1_Start or DieTemp_1_Query
 196:.\Generated_Source\PSoC5/DieTemp_1.c **** *
 197:.\Generated_Source\PSoC5/DieTemp_1.c **** *******************************************************************************/
 198:.\Generated_Source\PSoC5/DieTemp_1.c **** static cystatus DieTemp_1_GetTempT(int16 * temperature) 
 199:.\Generated_Source\PSoC5/DieTemp_1.c **** {
 200:.\Generated_Source\PSoC5/DieTemp_1.c ****     uint16 us;
 201:.\Generated_Source\PSoC5/DieTemp_1.c ****     cystatus status;
 202:.\Generated_Source\PSoC5/DieTemp_1.c **** 
 203:.\Generated_Source\PSoC5/DieTemp_1.c ****     /* Start the temp reading */
 204:.\Generated_Source\PSoC5/DieTemp_1.c ****     status = DieTemp_1_Start();
 205:.\Generated_Source\PSoC5/DieTemp_1.c **** 
 206:.\Generated_Source\PSoC5/DieTemp_1.c ****     if(status == CYRET_STARTED)
 207:.\Generated_Source\PSoC5/DieTemp_1.c ****     {
 208:.\Generated_Source\PSoC5/DieTemp_1.c ****         /**************************************************************************
 209:.\Generated_Source\PSoC5/DieTemp_1.c ****         * Wait for SPC to finish temperature reading. If state will change and SPC
 210:.\Generated_Source\PSoC5/DieTemp_1.c ****         * will finish - break cycle.
 211:.\Generated_Source\PSoC5/DieTemp_1.c ****         * DieTemp_1_MAX_WAIT is maximum time in ms to wait for SPC.
 212:.\Generated_Source\PSoC5/DieTemp_1.c ****         **************************************************************************/
 213:.\Generated_Source\PSoC5/DieTemp_1.c ****         for (us=(DieTemp_1_MAX_WAIT*1000u); us>0u; us-=10u)
 214:.\Generated_Source\PSoC5/DieTemp_1.c ****         {
 215:.\Generated_Source\PSoC5/DieTemp_1.c ****             if((CYRET_STARTED != status)&&(CY_SPC_IDLE))
 216:.\Generated_Source\PSoC5/DieTemp_1.c ****             {
 217:.\Generated_Source\PSoC5/DieTemp_1.c ****                 break;
 218:.\Generated_Source\PSoC5/DieTemp_1.c ****             }
 219:.\Generated_Source\PSoC5/DieTemp_1.c ****             else if(CYRET_STARTED == status)
ARM GAS  C:\Users\miyag\AppData\Local\Temp\ccfoMVeh.s 			page 8


 220:.\Generated_Source\PSoC5/DieTemp_1.c ****             {
 221:.\Generated_Source\PSoC5/DieTemp_1.c ****                 status = DieTemp_1_Query(temperature);
 222:.\Generated_Source\PSoC5/DieTemp_1.c ****             }
 223:.\Generated_Source\PSoC5/DieTemp_1.c ****             else
 224:.\Generated_Source\PSoC5/DieTemp_1.c ****             {
 225:.\Generated_Source\PSoC5/DieTemp_1.c ****                 /* SPC has not finished reading or isn't idle */
 226:.\Generated_Source\PSoC5/DieTemp_1.c ****             }
 227:.\Generated_Source\PSoC5/DieTemp_1.c ****             CyDelayUs(10u);
 228:.\Generated_Source\PSoC5/DieTemp_1.c ****         }
 229:.\Generated_Source\PSoC5/DieTemp_1.c ****     }
 230:.\Generated_Source\PSoC5/DieTemp_1.c **** 
 231:.\Generated_Source\PSoC5/DieTemp_1.c ****     return status;
 232:.\Generated_Source\PSoC5/DieTemp_1.c **** }
 233:.\Generated_Source\PSoC5/DieTemp_1.c **** cystatus DieTemp_1_GetTemp(int16 * temperature) 
 234:.\Generated_Source\PSoC5/DieTemp_1.c **** {
 179              		.loc 1 234 0
 180              		.cfi_startproc
 181              		@ args = 0, pretend = 0, frame = 0
 182              		@ frame_needed = 0, uses_anonymous_args = 0
 183              	.LVL16:
 184 0000 F8B5     		push	{r3, r4, r5, r6, r7, lr}
 185              		.cfi_def_cfa_offset 24
 186              		.cfi_offset 3, -24
 187              		.cfi_offset 4, -20
 188              		.cfi_offset 5, -16
 189              		.cfi_offset 6, -12
 190              		.cfi_offset 7, -8
 191              		.cfi_offset 14, -4
 192              		.loc 1 234 0
 193 0002 0746     		mov	r7, r0
 194 0004 0226     		movs	r6, #2
 195              	.LVL17:
 196              	.L25:
 197              	.LBB8:
 198              	.LBB9:
 204:.\Generated_Source\PSoC5/DieTemp_1.c **** 
 199              		.loc 1 204 0
 200 0006 FFF7FEFF 		bl	DieTemp_1_Start
 201              	.LVL18:
 206:.\Generated_Source\PSoC5/DieTemp_1.c ****     {
 202              		.loc 1 206 0
 203 000a 0728     		cmp	r0, #7
 204:.\Generated_Source\PSoC5/DieTemp_1.c **** 
 204              		.loc 1 204 0
 205 000c 0446     		mov	r4, r0
 206              	.LVL19:
 206:.\Generated_Source\PSoC5/DieTemp_1.c ****     {
 207              		.loc 1 206 0
 208 000e 13D1     		bne	.L20
 209 0010 4FF44875 		mov	r5, #800
 210              	.LVL20:
 211              	.L23:
 215:.\Generated_Source\PSoC5/DieTemp_1.c ****             {
 212              		.loc 1 215 0
 213 0014 072C     		cmp	r4, #7
 214 0016 04D0     		beq	.L21
 215 0018 0B4B     		ldr	r3, .L28
ARM GAS  C:\Users\miyag\AppData\Local\Temp\ccfoMVeh.s 			page 9


 216 001a 1B78     		ldrb	r3, [r3]	@ zero_extendqisi2
 217 001c 9B07     		lsls	r3, r3, #30
 218 001e 04D5     		bpl	.L22
 219 0020 0AE0     		b	.L20
 220              	.L21:
 221              	.LVL21:
 221:.\Generated_Source\PSoC5/DieTemp_1.c ****             }
 222              		.loc 1 221 0
 223 0022 3846     		mov	r0, r7
 224 0024 FFF7FEFF 		bl	DieTemp_1_Query
 225              	.LVL22:
 226 0028 0446     		mov	r4, r0
 227              	.LVL23:
 228              	.L22:
 229 002a 013D     		subs	r5, r5, #1
 227:.\Generated_Source\PSoC5/DieTemp_1.c ****         }
 230              		.loc 1 227 0
 231 002c 0A20     		movs	r0, #10
 232 002e ADB2     		uxth	r5, r5
 233 0030 FFF7FEFF 		bl	CyDelayUs
 234              	.LVL24:
 213:.\Generated_Source\PSoC5/DieTemp_1.c ****         {
 235              		.loc 1 213 0
 236 0034 002D     		cmp	r5, #0
 237 0036 EDD1     		bne	.L23
 238              	.L20:
 239              	.LVL25:
 240              	.LBE9:
 241              	.LBE8:
 235:.\Generated_Source\PSoC5/DieTemp_1.c ****     cystatus status;
 236:.\Generated_Source\PSoC5/DieTemp_1.c ****     uint8 count = 2u;
 237:.\Generated_Source\PSoC5/DieTemp_1.c ****     while (count != 0u)
 238:.\Generated_Source\PSoC5/DieTemp_1.c ****     {
 239:.\Generated_Source\PSoC5/DieTemp_1.c ****         status = DieTemp_1_GetTempT(temperature);
 240:.\Generated_Source\PSoC5/DieTemp_1.c ****         if (status != CYRET_SUCCESS)
 242              		.loc 1 240 0
 243 0038 1CB9     		cbnz	r4, .L24
 244              	.LVL26:
 237:.\Generated_Source\PSoC5/DieTemp_1.c ****     {
 245              		.loc 1 237 0
 246 003a 012E     		cmp	r6, #1
 247 003c 01D0     		beq	.L24
 248 003e 0126     		movs	r6, #1
 249              	.LVL27:
 250 0040 E1E7     		b	.L25
 251              	.LVL28:
 252              	.L24:
 241:.\Generated_Source\PSoC5/DieTemp_1.c ****         {
 242:.\Generated_Source\PSoC5/DieTemp_1.c ****             break;
 243:.\Generated_Source\PSoC5/DieTemp_1.c ****         }
 244:.\Generated_Source\PSoC5/DieTemp_1.c ****         count--;
 245:.\Generated_Source\PSoC5/DieTemp_1.c ****     }
 246:.\Generated_Source\PSoC5/DieTemp_1.c ****     return status;
 247:.\Generated_Source\PSoC5/DieTemp_1.c **** }
 253              		.loc 1 247 0
 254 0042 2046     		mov	r0, r4
 255 0044 F8BD     		pop	{r3, r4, r5, r6, r7, pc}
ARM GAS  C:\Users\miyag\AppData\Local\Temp\ccfoMVeh.s 			page 10


 256              	.LVL29:
 257              	.L29:
 258 0046 00BF     		.align	2
 259              	.L28:
 260 0048 22470040 		.word	1073760034
 261              		.cfi_endproc
 262              	.LFE4:
 263              		.size	DieTemp_1_GetTemp, .-DieTemp_1_GetTemp
 264              		.text
 265              	.Letext0:
 266              		.file 2 "Generated_Source\\PSoC5/cytypes.h"
 267              		.file 3 "Generated_Source\\PSoC5/CySpc.h"
 268              		.file 4 "Generated_Source\\PSoC5/CyLib.h"