ARM GAS  C:\Users\miyag\AppData\Local\Temp\ccGJMi7G.s 			page 1


   1              		.syntax unified
   2              		.cpu cortex-m3
   3              		.fpu softvfp
   4              		.eabi_attribute 20, 1
   5              		.eabi_attribute 21, 1
   6              		.eabi_attribute 23, 3
   7              		.eabi_attribute 24, 1
   8              		.eabi_attribute 25, 1
   9              		.eabi_attribute 26, 1
  10              		.eabi_attribute 30, 4
  11              		.eabi_attribute 34, 1
  12              		.eabi_attribute 18, 4
  13              		.thumb
  14              		.file	"Motor_Contl4_3.c"
  15              		.text
  16              	.Ltext0:
  17              		.cfi_sections	.debug_frame
  18              		.global	__aeabi_dcmpge
  19              		.global	__aeabi_dcmple
  20              		.section	.text.Motor_Contl4_3_derivatives,"ax",%progbits
  21              		.align	1
  22              		.global	Motor_Contl4_3_derivatives
  23              		.thumb
  24              		.thumb_func
  25              		.type	Motor_Contl4_3_derivatives, %function
  26              	Motor_Contl4_3_derivatives:
  27              	.LFB2:
  28              		.file 1 ".\\Motor_Contl4_3.c"
   1:.\Motor_Contl4_3.c **** /*
   2:.\Motor_Contl4_3.c ****  * File: Motor_Contl4_3.c
   3:.\Motor_Contl4_3.c ****  *
   4:.\Motor_Contl4_3.c ****  * Code generated for Simulink model 'Motor_Contl4_3'.
   5:.\Motor_Contl4_3.c ****  *
   6:.\Motor_Contl4_3.c ****  * Model version                  : 1.11
   7:.\Motor_Contl4_3.c ****  * Simulink Coder version         : 8.0 (R2011a) 09-Mar-2011
   8:.\Motor_Contl4_3.c ****  * TLC version                    : 8.0 (Feb  3 2011)
   9:.\Motor_Contl4_3.c ****  * C/C++ source code generated on : Sun Oct 02 13:47:39 2011
  10:.\Motor_Contl4_3.c ****  *
  11:.\Motor_Contl4_3.c ****  * Target selection: ert.tlc
  12:.\Motor_Contl4_3.c ****  * Embedded hardware selection: 32-bit Generic
  13:.\Motor_Contl4_3.c ****  * Code generation objectives: Unspecified
  14:.\Motor_Contl4_3.c ****  * Validation result: Not run
  15:.\Motor_Contl4_3.c ****  */
  16:.\Motor_Contl4_3.c **** 
  17:.\Motor_Contl4_3.c **** #include "Motor_Contl4_3.h"
  18:.\Motor_Contl4_3.c **** #include "Motor_Contl4_3_private.h"
  19:.\Motor_Contl4_3.c **** 
  20:.\Motor_Contl4_3.c **** /* Block signals (auto storage) */
  21:.\Motor_Contl4_3.c **** BlockIO_Motor_Contl4_3 Motor_Contl4_3_B;
  22:.\Motor_Contl4_3.c **** 
  23:.\Motor_Contl4_3.c **** /* Continuous states */
  24:.\Motor_Contl4_3.c **** ContinuousStates_Motor_Contl4_3 Motor_Contl4_3_X;
  25:.\Motor_Contl4_3.c **** 
  26:.\Motor_Contl4_3.c **** /* External inputs (root inport signals with auto storage) */
  27:.\Motor_Contl4_3.c **** ExternalInputs_Motor_Contl4_3 Motor_Contl4_3_U;
  28:.\Motor_Contl4_3.c **** 
  29:.\Motor_Contl4_3.c **** /* External outputs (root outports fed by signals with auto storage) */
ARM GAS  C:\Users\miyag\AppData\Local\Temp\ccGJMi7G.s 			page 2


  30:.\Motor_Contl4_3.c **** ExternalOutputs_Motor_Contl4_3 Motor_Contl4_3_Y;
  31:.\Motor_Contl4_3.c **** 
  32:.\Motor_Contl4_3.c **** /* Real-time model */
  33:.\Motor_Contl4_3.c **** RT_MODEL_Motor_Contl4_3 Motor_Contl4_3_M_;
  34:.\Motor_Contl4_3.c **** RT_MODEL_Motor_Contl4_3 *const Motor_Contl4_3_M = &Motor_Contl4_3_M_;
  35:.\Motor_Contl4_3.c **** 
  36:.\Motor_Contl4_3.c **** 
  37:.\Motor_Contl4_3.c **** extern float rpm2velo_ratio;
  38:.\Motor_Contl4_3.c **** /*
  39:.\Motor_Contl4_3.c ****  * This function updates continuous states using the ODE3 fixed-step
  40:.\Motor_Contl4_3.c ****  * solver algorithm
  41:.\Motor_Contl4_3.c ****  */
  42:.\Motor_Contl4_3.c **** static void rt_ertODEUpdateContinuousStates(RTWSolverInfo *si )
  43:.\Motor_Contl4_3.c **** {
  44:.\Motor_Contl4_3.c ****   /* Solver Matrices */
  45:.\Motor_Contl4_3.c ****   static const real_T rt_ODE3_A[3] = {
  46:.\Motor_Contl4_3.c ****     1.0/2.0, 3.0/4.0, 1.0
  47:.\Motor_Contl4_3.c ****   };
  48:.\Motor_Contl4_3.c **** 
  49:.\Motor_Contl4_3.c ****   static const real_T rt_ODE3_B[3][3] = {
  50:.\Motor_Contl4_3.c ****     { 1.0/2.0, 0.0, 0.0 },
  51:.\Motor_Contl4_3.c **** 
  52:.\Motor_Contl4_3.c ****     { 0.0, 3.0/4.0, 0.0 },
  53:.\Motor_Contl4_3.c **** 
  54:.\Motor_Contl4_3.c ****     { 2.0/9.0, 1.0/3.0, 4.0/9.0 }
  55:.\Motor_Contl4_3.c ****   };
  56:.\Motor_Contl4_3.c **** 
  57:.\Motor_Contl4_3.c ****   time_T t = rtsiGetT(si);
  58:.\Motor_Contl4_3.c ****   time_T tnew = rtsiGetSolverStopTime(si);
  59:.\Motor_Contl4_3.c ****   time_T h = rtsiGetStepSize(si);
  60:.\Motor_Contl4_3.c ****   real_T *x = rtsiGetContStates(si);
  61:.\Motor_Contl4_3.c ****   ODE3_IntgData *id = (ODE3_IntgData *)rtsiGetSolverData(si);
  62:.\Motor_Contl4_3.c ****   real_T *y = id->y;
  63:.\Motor_Contl4_3.c ****   real_T *f0 = id->f[0];
  64:.\Motor_Contl4_3.c ****   real_T *f1 = id->f[1];
  65:.\Motor_Contl4_3.c ****   real_T *f2 = id->f[2];
  66:.\Motor_Contl4_3.c ****   real_T hB[3];
  67:.\Motor_Contl4_3.c ****   int_T i;
  68:.\Motor_Contl4_3.c ****   int_T nXc = 4;
  69:.\Motor_Contl4_3.c ****   rtsiSetSimTimeStep(si,MINOR_TIME_STEP);
  70:.\Motor_Contl4_3.c **** 
  71:.\Motor_Contl4_3.c ****   /* Save the state values at time t in y, we'll use x as ynew. */
  72:.\Motor_Contl4_3.c ****   (void) memcpy(y, x,
  73:.\Motor_Contl4_3.c ****                 nXc*sizeof(real_T));
  74:.\Motor_Contl4_3.c **** 
  75:.\Motor_Contl4_3.c ****   /* Assumes that rtsiSetT and ModelOutputs are up-to-date */
  76:.\Motor_Contl4_3.c ****   /* f0 = f(t,y) */
  77:.\Motor_Contl4_3.c ****   rtsiSetdX(si, f0);
  78:.\Motor_Contl4_3.c ****   Motor_Contl4_3_derivatives();
  79:.\Motor_Contl4_3.c **** 
  80:.\Motor_Contl4_3.c ****   /* f(:,2) = feval(odefile, t + hA(1), y + f*hB(:,1), args(:)(*)); */
  81:.\Motor_Contl4_3.c ****   hB[0] = h * rt_ODE3_B[0][0];
  82:.\Motor_Contl4_3.c ****   for (i = 0; i < nXc; i++) {
  83:.\Motor_Contl4_3.c ****     x[i] = y[i] + (f0[i]*hB[0]);
  84:.\Motor_Contl4_3.c ****   }
  85:.\Motor_Contl4_3.c **** 
  86:.\Motor_Contl4_3.c ****   rtsiSetT(si, t + h*rt_ODE3_A[0]);
ARM GAS  C:\Users\miyag\AppData\Local\Temp\ccGJMi7G.s 			page 3


  87:.\Motor_Contl4_3.c ****   rtsiSetdX(si, f1);
  88:.\Motor_Contl4_3.c ****   Motor_Contl4_3_step();
  89:.\Motor_Contl4_3.c ****   Motor_Contl4_3_derivatives();
  90:.\Motor_Contl4_3.c **** 
  91:.\Motor_Contl4_3.c ****   /* f(:,3) = feval(odefile, t + hA(2), y + f*hB(:,2), args(:)(*)); */
  92:.\Motor_Contl4_3.c ****   for (i = 0; i <= 1; i++) {
  93:.\Motor_Contl4_3.c ****     hB[i] = h * rt_ODE3_B[1][i];
  94:.\Motor_Contl4_3.c ****   }
  95:.\Motor_Contl4_3.c **** 
  96:.\Motor_Contl4_3.c ****   for (i = 0; i < nXc; i++) {
  97:.\Motor_Contl4_3.c ****     x[i] = y[i] + (f0[i]*hB[0] + f1[i]*hB[1]);
  98:.\Motor_Contl4_3.c ****   }
  99:.\Motor_Contl4_3.c **** 
 100:.\Motor_Contl4_3.c ****   rtsiSetT(si, t + h*rt_ODE3_A[1]);
 101:.\Motor_Contl4_3.c ****   rtsiSetdX(si, f2);
 102:.\Motor_Contl4_3.c ****   Motor_Contl4_3_step();
 103:.\Motor_Contl4_3.c ****   Motor_Contl4_3_derivatives();
 104:.\Motor_Contl4_3.c **** 
 105:.\Motor_Contl4_3.c ****   /* tnew = t + hA(3);
 106:.\Motor_Contl4_3.c ****      ynew = y + f*hB(:,3); */
 107:.\Motor_Contl4_3.c ****   for (i = 0; i <= 2; i++) {
 108:.\Motor_Contl4_3.c ****     hB[i] = h * rt_ODE3_B[2][i];
 109:.\Motor_Contl4_3.c ****   }
 110:.\Motor_Contl4_3.c **** 
 111:.\Motor_Contl4_3.c ****   for (i = 0; i < nXc; i++) {
 112:.\Motor_Contl4_3.c ****     x[i] = y[i] + (f0[i]*hB[0] + f1[i]*hB[1] + f2[i]*hB[2]);
 113:.\Motor_Contl4_3.c ****   }
 114:.\Motor_Contl4_3.c **** 
 115:.\Motor_Contl4_3.c ****   rtsiSetT(si, tnew);
 116:.\Motor_Contl4_3.c ****   rtsiSetSimTimeStep(si,MAJOR_TIME_STEP);
 117:.\Motor_Contl4_3.c **** }
 118:.\Motor_Contl4_3.c **** 
 119:.\Motor_Contl4_3.c **** /* Model step function */
 120:.\Motor_Contl4_3.c **** void Motor_Contl4_3_step(void)
 121:.\Motor_Contl4_3.c **** {
 122:.\Motor_Contl4_3.c ****   real_T rtb_Sum2;
 123:.\Motor_Contl4_3.c ****   real_T u;
 124:.\Motor_Contl4_3.c ****   if (rtmIsMajorTimeStep(Motor_Contl4_3_M)) {
 125:.\Motor_Contl4_3.c ****     /* set solver stop time */
 126:.\Motor_Contl4_3.c ****     rtsiSetSolverStopTime(&Motor_Contl4_3_M->solverInfo,
 127:.\Motor_Contl4_3.c ****                           ((Motor_Contl4_3_M->Timing.clockTick0+1)*
 128:.\Motor_Contl4_3.c ****       Motor_Contl4_3_M->Timing.stepSize0));
 129:.\Motor_Contl4_3.c ****   }                                    /* end MajorTimeStep */
 130:.\Motor_Contl4_3.c **** 
 131:.\Motor_Contl4_3.c ****   /* Update absolute time of base rate at minor time step */
 132:.\Motor_Contl4_3.c ****   if (rtmIsMinorTimeStep(Motor_Contl4_3_M)) {
 133:.\Motor_Contl4_3.c ****     Motor_Contl4_3_M->Timing.t[0] = rtsiGetT(&Motor_Contl4_3_M->solverInfo);
 134:.\Motor_Contl4_3.c ****   }
 135:.\Motor_Contl4_3.c **** /***************************************************/
 136:.\Motor_Contl4_3.c ****   /* Fcn: '<S1>/Fcn' incorporates:
 137:.\Motor_Contl4_3.c ****    *  Inport: '<Root>/RPM1'
 138:.\Motor_Contl4_3.c ****    */
 139:.\Motor_Contl4_3.c **** /***************************************************/
 140:.\Motor_Contl4_3.c **** 	rtb_Sum2 = Motor_Contl4_3_U.RPM1 * rpm2velo_ratio;
 141:.\Motor_Contl4_3.c **** // rtb_Sum2 = Motor_Contl4_3_U.RPM1 * 0.00033108163; //GP26A
 142:.\Motor_Contl4_3.c **** //  rtb_Sum2 = Motor_Contl4_3_U.RPM1 * 0.00044679337; //GP26B
 143:.\Motor_Contl4_3.c ****  // motorRPM => velosity(Km/h)
ARM GAS  C:\Users\miyag\AppData\Local\Temp\ccGJMi7G.s 			page 4


 144:.\Motor_Contl4_3.c ****  // = 60/gire_ratio/1000*Dwhell*pi 
 145:.\Motor_Contl4_3.c ****  // =0.000812456 @gire_ratio = 29, Dwheel = 0.125
 146:.\Motor_Contl4_3.c ****  // =0.000280487 @gire_ratio = 84, Dwheel = 0.125 
 147:.\Motor_Contl4_3.c ****  // =0.00044679337 @gire_ratio = 3375.0/64(GP26B), Dwheel = 0.125 
 148:.\Motor_Contl4_3.c ****  // =0.00033108163 @gire_ratio = 226233/3179(GP26A), Dwheel = 0.125 
 149:.\Motor_Contl4_3.c ****   /* Sum: '<S1>/Sum' incorporates:
 150:.\Motor_Contl4_3.c ****    *  Inport: '<Root>/Target speed1'
 151:.\Motor_Contl4_3.c ****    */
 152:.\Motor_Contl4_3.c ****   Motor_Contl4_3_B.Sum = Motor_Contl4_3_U.Targetspeed1 - rtb_Sum2;
 153:.\Motor_Contl4_3.c **** 
 154:.\Motor_Contl4_3.c ****   /* Saturate: '<S1>/Saturation' incorporates:
 155:.\Motor_Contl4_3.c ****    *  Gain: '<S1>/Gain'
 156:.\Motor_Contl4_3.c ****    *  Gain: '<S1>/Gain2'
 157:.\Motor_Contl4_3.c ****    *  Integrator: '<S1>/Integrator1'
 158:.\Motor_Contl4_3.c ****    *  Sum: '<S1>/Sum2'
 159:.\Motor_Contl4_3.c ****    */
 160:.\Motor_Contl4_3.c ****   u = Motor_Contl4_3_P.Gain2_Gain * Motor_Contl4_3_X.Integrator1_CSTATE +
 161:.\Motor_Contl4_3.c ****     Motor_Contl4_3_P.Gain_Gain * Motor_Contl4_3_B.Sum;
 162:.\Motor_Contl4_3.c **** 
 163:.\Motor_Contl4_3.c ****   /* Outport: '<Root>/PWM Duty1' incorporates:
 164:.\Motor_Contl4_3.c ****    *  Saturate: '<S1>/Saturation'
 165:.\Motor_Contl4_3.c ****    */
 166:.\Motor_Contl4_3.c ****   Motor_Contl4_3_Y.PWMDuty1 = u >= Motor_Contl4_3_P.Saturation_UpperSat ?
 167:.\Motor_Contl4_3.c ****     Motor_Contl4_3_P.Saturation_UpperSat : u <=
 168:.\Motor_Contl4_3.c ****     Motor_Contl4_3_P.Saturation_LowerSat ? Motor_Contl4_3_P.Saturation_LowerSat :
 169:.\Motor_Contl4_3.c ****     u;
 170:.\Motor_Contl4_3.c **** 
 171:.\Motor_Contl4_3.c ****   /* Outport: '<Root>/V(Km//h)1' */
 172:.\Motor_Contl4_3.c ****   Motor_Contl4_3_Y.VKmh1 = rtb_Sum2;
 173:.\Motor_Contl4_3.c **** 
 174:.\Motor_Contl4_3.c **** /***************************************************/
 175:.\Motor_Contl4_3.c ****   /* Fcn: '<S2>/Fcn' incorporates:
 176:.\Motor_Contl4_3.c ****    *  Inport: '<Root>/RPM2'
 177:.\Motor_Contl4_3.c ****    */
 178:.\Motor_Contl4_3.c **** /***************************************************/
 179:.\Motor_Contl4_3.c ****  
 180:.\Motor_Contl4_3.c **** 	rtb_Sum2 = Motor_Contl4_3_U.RPM2 * rpm2velo_ratio;
 181:.\Motor_Contl4_3.c **** 
 182:.\Motor_Contl4_3.c **** 
 183:.\Motor_Contl4_3.c ****   /* Sum: '<S2>/Sum' incorporates:
 184:.\Motor_Contl4_3.c ****    *  Inport: '<Root>/Target speed2'
 185:.\Motor_Contl4_3.c ****    */
 186:.\Motor_Contl4_3.c ****   Motor_Contl4_3_B.Sum_n = Motor_Contl4_3_U.Targetspeed2 - rtb_Sum2;
 187:.\Motor_Contl4_3.c **** 
 188:.\Motor_Contl4_3.c ****   /* Saturate: '<S2>/Saturation' incorporates:
 189:.\Motor_Contl4_3.c ****    *  Gain: '<S2>/Gain'
 190:.\Motor_Contl4_3.c ****    *  Gain: '<S2>/Gain2'
 191:.\Motor_Contl4_3.c ****    *  Integrator: '<S2>/Integrator1'
 192:.\Motor_Contl4_3.c ****    *  Sum: '<S2>/Sum2'
 193:.\Motor_Contl4_3.c ****    */
 194:.\Motor_Contl4_3.c ****   u = Motor_Contl4_3_P.Gain2_Gain_a * Motor_Contl4_3_X.Integrator1_CSTATE_h +
 195:.\Motor_Contl4_3.c ****     Motor_Contl4_3_P.Gain_Gain_a * Motor_Contl4_3_B.Sum_n;
 196:.\Motor_Contl4_3.c **** 
 197:.\Motor_Contl4_3.c ****   /* Outport: '<Root>/PWM Duty2' incorporates:
 198:.\Motor_Contl4_3.c ****    *  Saturate: '<S2>/Saturation'
 199:.\Motor_Contl4_3.c ****    */
 200:.\Motor_Contl4_3.c ****   Motor_Contl4_3_Y.PWMDuty2 = u >= Motor_Contl4_3_P.Saturation_UpperSat_o ?
ARM GAS  C:\Users\miyag\AppData\Local\Temp\ccGJMi7G.s 			page 5


 201:.\Motor_Contl4_3.c ****     Motor_Contl4_3_P.Saturation_UpperSat_o : u <=
 202:.\Motor_Contl4_3.c ****     Motor_Contl4_3_P.Saturation_LowerSat_j ?
 203:.\Motor_Contl4_3.c ****     Motor_Contl4_3_P.Saturation_LowerSat_j : u;
 204:.\Motor_Contl4_3.c **** 
 205:.\Motor_Contl4_3.c ****   /* Outport: '<Root>/V(Km//h)2' */
 206:.\Motor_Contl4_3.c ****   Motor_Contl4_3_Y.VKmh2 = rtb_Sum2;
 207:.\Motor_Contl4_3.c **** 
 208:.\Motor_Contl4_3.c **** /***************************************************/
 209:.\Motor_Contl4_3.c ****   /* Fcn: '<S3>/Fcn' incorporates:
 210:.\Motor_Contl4_3.c ****    *  Inport: '<Root>/RPM3'
 211:.\Motor_Contl4_3.c ****    */
 212:.\Motor_Contl4_3.c **** /***************************************************/
 213:.\Motor_Contl4_3.c **** 	rtb_Sum2 = Motor_Contl4_3_U.RPM3 * rpm2velo_ratio;
 214:.\Motor_Contl4_3.c **** 
 215:.\Motor_Contl4_3.c ****  
 216:.\Motor_Contl4_3.c ****   /* Sum: '<S3>/Sum' incorporates:
 217:.\Motor_Contl4_3.c ****    *  Inport: '<Root>/Target speed3'
 218:.\Motor_Contl4_3.c ****    */
 219:.\Motor_Contl4_3.c ****   Motor_Contl4_3_B.Sum_m = Motor_Contl4_3_U.Targetspeed3 - rtb_Sum2;
 220:.\Motor_Contl4_3.c **** 
 221:.\Motor_Contl4_3.c ****   /* Saturate: '<S3>/Saturation' incorporates:
 222:.\Motor_Contl4_3.c ****    *  Gain: '<S3>/Gain'
 223:.\Motor_Contl4_3.c ****    *  Gain: '<S3>/Gain2'
 224:.\Motor_Contl4_3.c ****    *  Integrator: '<S3>/Integrator1'
 225:.\Motor_Contl4_3.c ****    *  Sum: '<S3>/Sum2'
 226:.\Motor_Contl4_3.c ****    */
 227:.\Motor_Contl4_3.c ****   u = Motor_Contl4_3_P.Gain2_Gain_j * Motor_Contl4_3_X.Integrator1_CSTATE_l +
 228:.\Motor_Contl4_3.c ****     Motor_Contl4_3_P.Gain_Gain_i * Motor_Contl4_3_B.Sum_m;
 229:.\Motor_Contl4_3.c **** 
 230:.\Motor_Contl4_3.c ****   /* Outport: '<Root>/PWM Duty3' incorporates:
 231:.\Motor_Contl4_3.c ****    *  Saturate: '<S3>/Saturation'
 232:.\Motor_Contl4_3.c ****    */
 233:.\Motor_Contl4_3.c ****   Motor_Contl4_3_Y.PWMDuty3 = u >= Motor_Contl4_3_P.Saturation_UpperSat_j ?
 234:.\Motor_Contl4_3.c ****     Motor_Contl4_3_P.Saturation_UpperSat_j : u <=
 235:.\Motor_Contl4_3.c ****     Motor_Contl4_3_P.Saturation_LowerSat_a ?
 236:.\Motor_Contl4_3.c ****     Motor_Contl4_3_P.Saturation_LowerSat_a : u;
 237:.\Motor_Contl4_3.c **** 
 238:.\Motor_Contl4_3.c ****   /* Outport: '<Root>/V(Km//h)3' */
 239:.\Motor_Contl4_3.c ****   Motor_Contl4_3_Y.VKmh3 = rtb_Sum2;
 240:.\Motor_Contl4_3.c **** 
 241:.\Motor_Contl4_3.c ****  /***************************************************/
 242:.\Motor_Contl4_3.c ****  /* Fcn: '<S4>/Fcn' incorporates:
 243:.\Motor_Contl4_3.c ****    *  Inport: '<Root>/RPM4'
 244:.\Motor_Contl4_3.c ****    */
 245:.\Motor_Contl4_3.c **** /***************************************************/
 246:.\Motor_Contl4_3.c **** 
 247:.\Motor_Contl4_3.c **** 	rtb_Sum2 = Motor_Contl4_3_U.RPM4 * rpm2velo_ratio;
 248:.\Motor_Contl4_3.c **** 
 249:.\Motor_Contl4_3.c **** 
 250:.\Motor_Contl4_3.c ****   /* Sum: '<S4>/Sum' incorporates:
 251:.\Motor_Contl4_3.c ****    *  Inport: '<Root>/Target speed4'
 252:.\Motor_Contl4_3.c ****    */
 253:.\Motor_Contl4_3.c ****   Motor_Contl4_3_B.Sum_i = Motor_Contl4_3_U.Targetspeed4 - rtb_Sum2;
 254:.\Motor_Contl4_3.c **** 
 255:.\Motor_Contl4_3.c ****   /* Saturate: '<S4>/Saturation' incorporates:
 256:.\Motor_Contl4_3.c ****    *  Gain: '<S4>/Gain'
 257:.\Motor_Contl4_3.c ****    *  Gain: '<S4>/Gain2'
ARM GAS  C:\Users\miyag\AppData\Local\Temp\ccGJMi7G.s 			page 6


 258:.\Motor_Contl4_3.c ****    *  Integrator: '<S4>/Integrator1'
 259:.\Motor_Contl4_3.c ****    *  Sum: '<S4>/Sum2'
 260:.\Motor_Contl4_3.c ****    */
 261:.\Motor_Contl4_3.c ****   u = Motor_Contl4_3_P.Gain2_Gain_e * Motor_Contl4_3_X.Integrator1_CSTATE_g +
 262:.\Motor_Contl4_3.c ****     Motor_Contl4_3_P.Gain_Gain_o * Motor_Contl4_3_B.Sum_i;
 263:.\Motor_Contl4_3.c **** 
 264:.\Motor_Contl4_3.c ****   /* Outport: '<Root>/PWM Duty4' incorporates:
 265:.\Motor_Contl4_3.c ****    *  Saturate: '<S4>/Saturation'
 266:.\Motor_Contl4_3.c ****    */
 267:.\Motor_Contl4_3.c ****   Motor_Contl4_3_Y.PWMDuty4 = u >= Motor_Contl4_3_P.Saturation_UpperSat_g ?
 268:.\Motor_Contl4_3.c ****     Motor_Contl4_3_P.Saturation_UpperSat_g : u <=
 269:.\Motor_Contl4_3.c ****     Motor_Contl4_3_P.Saturation_LowerSat_l ?
 270:.\Motor_Contl4_3.c ****     Motor_Contl4_3_P.Saturation_LowerSat_l : u;
 271:.\Motor_Contl4_3.c **** 
 272:.\Motor_Contl4_3.c ****   /* Outport: '<Root>/V(Km//h)4' */
 273:.\Motor_Contl4_3.c ****   Motor_Contl4_3_Y.VKmh4 = rtb_Sum2;
 274:.\Motor_Contl4_3.c **** 
 275:.\Motor_Contl4_3.c **** /***************************************************/
 276:.\Motor_Contl4_3.c **** 
 277:.\Motor_Contl4_3.c **** if (rtmIsMajorTimeStep(Motor_Contl4_3_M)) {
 278:.\Motor_Contl4_3.c ****     rt_ertODEUpdateContinuousStates(&Motor_Contl4_3_M->solverInfo);
 279:.\Motor_Contl4_3.c **** 
 280:.\Motor_Contl4_3.c ****     /* Update absolute time for base rate */
 281:.\Motor_Contl4_3.c ****     /* The "clockTick0" counts the number of times the code of this task has
 282:.\Motor_Contl4_3.c ****      * been executed. The absolute time is the multiplication of "clockTick0"
 283:.\Motor_Contl4_3.c ****      * and "Timing.stepSize0". Size of "clockTick0" ensures timer will not
 284:.\Motor_Contl4_3.c ****      * overflow during the application lifespan selected.
 285:.\Motor_Contl4_3.c ****      */
 286:.\Motor_Contl4_3.c ****     ++Motor_Contl4_3_M->Timing.clockTick0;
 287:.\Motor_Contl4_3.c ****     Motor_Contl4_3_M->Timing.t[0] = rtsiGetSolverStopTime
 288:.\Motor_Contl4_3.c ****       (&Motor_Contl4_3_M->solverInfo);
 289:.\Motor_Contl4_3.c **** 
 290:.\Motor_Contl4_3.c ****     {
 291:.\Motor_Contl4_3.c ****       /* Update absolute timer for sample time: [0.0625s, 0.0s] */
 292:.\Motor_Contl4_3.c ****       /* The "clockTick1" counts the number of times the code of this task has
 293:.\Motor_Contl4_3.c ****        * been executed. The resolution of this integer timer is 0.0625, which is the step size
 294:.\Motor_Contl4_3.c ****        * of the task. Size of "clockTick1" ensures timer will not overflow during the
 295:.\Motor_Contl4_3.c ****        * application lifespan selected.
 296:.\Motor_Contl4_3.c ****        */
 297:.\Motor_Contl4_3.c ****       Motor_Contl4_3_M->Timing.clockTick1++;
 298:.\Motor_Contl4_3.c ****     }
 299:.\Motor_Contl4_3.c ****   }                                    /* end MajorTimeStep */
 300:.\Motor_Contl4_3.c **** }
 301:.\Motor_Contl4_3.c **** 
 302:.\Motor_Contl4_3.c **** /* Derivatives for root system: '<Root>' */
 303:.\Motor_Contl4_3.c **** void Motor_Contl4_3_derivatives(void)
 304:.\Motor_Contl4_3.c **** {
  29              		.loc 1 304 0
  30              		.cfi_startproc
  31              		@ args = 0, pretend = 0, frame = 0
  32              		@ frame_needed = 0, uses_anonymous_args = 0
  33 0000 2DE9F843 		push	{r3, r4, r5, r6, r7, r8, r9, lr}
  34              		.cfi_def_cfa_offset 32
  35              		.cfi_offset 3, -32
  36              		.cfi_offset 4, -28
  37              		.cfi_offset 5, -24
  38              		.cfi_offset 6, -20
ARM GAS  C:\Users\miyag\AppData\Local\Temp\ccGJMi7G.s 			page 7


  39              		.cfi_offset 7, -16
  40              		.cfi_offset 8, -12
  41              		.cfi_offset 9, -8
  42              		.cfi_offset 14, -4
 305:.\Motor_Contl4_3.c ****   /* Derivatives for Integrator: '<S1>/Integrator1' */
 306:.\Motor_Contl4_3.c ****     if( Motor_Contl4_3_Y.PWMDuty1  >= Motor_Contl4_3_P.Saturation_UpperSat){
  43              		.loc 1 306 0
  44 0004 404E     		ldr	r6, .L44
  45 0006 414D     		ldr	r5, .L44+4
  46 0008 D6E90089 		ldrd	r8, [r6]
  47 000c D5E90623 		ldrd	r2, [r5, #24]
  48 0010 4046     		mov	r0, r8
  49 0012 4946     		mov	r1, r9
  50 0014 FFF7FEFF 		bl	__aeabi_dcmpge
  51              	.LVL0:
  52 0018 3D4C     		ldr	r4, .L44+8
  53 001a 30B9     		cbnz	r0, .L38
 307:.\Motor_Contl4_3.c ****         ((StateDerivatives_Motor_Contl4_3 *) Motor_Contl4_3_M->ModelData.derivs)
 308:.\Motor_Contl4_3.c ****             ->Integrator1_CSTATE = 0;       
 309:.\Motor_Contl4_3.c ****     } else if( Motor_Contl4_3_Y.PWMDuty1  <= Motor_Contl4_3_P.Saturation_LowerSat){
  54              		.loc 1 309 0
  55 001c D5E90823 		ldrd	r2, [r5, #32]
  56 0020 4046     		mov	r0, r8
  57 0022 4946     		mov	r1, r9
  58 0024 FFF7FEFF 		bl	__aeabi_dcmple
  59              	.LVL1:
  60 0028 30B1     		cbz	r0, .L31
  61              	.L38:
 310:.\Motor_Contl4_3.c ****         ((StateDerivatives_Motor_Contl4_3 *) Motor_Contl4_3_M->ModelData.derivs)
 311:.\Motor_Contl4_3.c ****             ->Integrator1_CSTATE = 0;       
  62              		.loc 1 311 0
  63 002a D4F8F430 		ldr	r3, [r4, #244]
  64 002e 0020     		movs	r0, #0
  65 0030 0021     		movs	r1, #0
  66 0032 C3E90001 		strd	r0, [r3]
  67 0036 06E0     		b	.L4
  68              	.L31:
 312:.\Motor_Contl4_3.c ****     } else {
 313:.\Motor_Contl4_3.c ****         ((StateDerivatives_Motor_Contl4_3 *) Motor_Contl4_3_M->ModelData.derivs)
 314:.\Motor_Contl4_3.c ****             ->Integrator1_CSTATE = Motor_Contl4_3_B.Sum;
  69              		.loc 1 314 0
  70 0038 D4F8F410 		ldr	r1, [r4, #244]
  71 003c 354B     		ldr	r3, .L44+12
  72 003e D3E90023 		ldrd	r2, [r3]
  73 0042 C1E90023 		strd	r2, [r1]
  74              	.L4:
 315:.\Motor_Contl4_3.c ****     }
 316:.\Motor_Contl4_3.c ****     
 317:.\Motor_Contl4_3.c ****   /* Derivatives for Integrator: '<S2>/Integrator1' */
 318:.\Motor_Contl4_3.c ****     if( Motor_Contl4_3_Y.PWMDuty2  >= Motor_Contl4_3_P.Saturation_UpperSat_o){
  75              		.loc 1 318 0
  76 0046 D6E90489 		ldrd	r8, [r6, #16]
  77 004a D5E91023 		ldrd	r2, [r5, #64]
  78 004e 4046     		mov	r0, r8
  79 0050 4946     		mov	r1, r9
  80 0052 FFF7FEFF 		bl	__aeabi_dcmpge
  81              	.LVL2:
ARM GAS  C:\Users\miyag\AppData\Local\Temp\ccGJMi7G.s 			page 8


  82 0056 38B9     		cbnz	r0, .L39
 319:.\Motor_Contl4_3.c ****         ((StateDerivatives_Motor_Contl4_3 *) Motor_Contl4_3_M->ModelData.derivs)
 320:.\Motor_Contl4_3.c ****             ->Integrator1_CSTATE_h = 0;       
 321:.\Motor_Contl4_3.c ****     } else if( Motor_Contl4_3_Y.PWMDuty2  <= Motor_Contl4_3_P.Saturation_LowerSat_j){
  83              		.loc 1 321 0
  84 0058 2C4B     		ldr	r3, .L44+4
  85 005a 4046     		mov	r0, r8
  86 005c D3E91223 		ldrd	r2, [r3, #72]
  87 0060 4946     		mov	r1, r9
  88 0062 FFF7FEFF 		bl	__aeabi_dcmple
  89              	.LVL3:
  90 0066 30B1     		cbz	r0, .L33
  91              	.L39:
 322:.\Motor_Contl4_3.c ****         ((StateDerivatives_Motor_Contl4_3 *) Motor_Contl4_3_M->ModelData.derivs)
 323:.\Motor_Contl4_3.c ****             ->Integrator1_CSTATE_h = 0;       
  92              		.loc 1 323 0
  93 0068 D4F8F430 		ldr	r3, [r4, #244]
  94 006c 0020     		movs	r0, #0
  95 006e 0021     		movs	r1, #0
  96 0070 C3E90201 		strd	r0, [r3, #8]
  97 0074 06E0     		b	.L9
  98              	.L33:
 324:.\Motor_Contl4_3.c ****     } else {
 325:.\Motor_Contl4_3.c ****         ((StateDerivatives_Motor_Contl4_3 *) Motor_Contl4_3_M->ModelData.derivs)
 326:.\Motor_Contl4_3.c ****             ->Integrator1_CSTATE_h = Motor_Contl4_3_B.Sum_n;
  99              		.loc 1 326 0
 100 0076 D4F8F410 		ldr	r1, [r4, #244]
 101 007a 264B     		ldr	r3, .L44+12
 102 007c D3E90223 		ldrd	r2, [r3, #8]
 103 0080 C1E90223 		strd	r2, [r1, #8]
 104              	.L9:
 327:.\Motor_Contl4_3.c ****     }
 328:.\Motor_Contl4_3.c ****   
 329:.\Motor_Contl4_3.c ****   /* Derivatives for Integrator: '<S3>/Integrator1' */
 330:.\Motor_Contl4_3.c ****      if( Motor_Contl4_3_Y.PWMDuty3  >= Motor_Contl4_3_P.Saturation_UpperSat_j){
 105              		.loc 1 330 0
 106 0084 D6E90889 		ldrd	r8, [r6, #32]
 107 0088 D5E91A23 		ldrd	r2, [r5, #104]
 108 008c 4046     		mov	r0, r8
 109 008e 4946     		mov	r1, r9
 110 0090 FFF7FEFF 		bl	__aeabi_dcmpge
 111              	.LVL4:
 112 0094 38B9     		cbnz	r0, .L40
 331:.\Motor_Contl4_3.c ****         ((StateDerivatives_Motor_Contl4_3 *) Motor_Contl4_3_M->ModelData.derivs)
 332:.\Motor_Contl4_3.c ****             ->Integrator1_CSTATE_l = 0;       
 333:.\Motor_Contl4_3.c ****     } else if( Motor_Contl4_3_Y.PWMDuty3  <= Motor_Contl4_3_P.Saturation_LowerSat_a){
 113              		.loc 1 333 0
 114 0096 1D4B     		ldr	r3, .L44+4
 115 0098 4046     		mov	r0, r8
 116 009a D3E91C23 		ldrd	r2, [r3, #112]
 117 009e 4946     		mov	r1, r9
 118 00a0 FFF7FEFF 		bl	__aeabi_dcmple
 119              	.LVL5:
 120 00a4 30B1     		cbz	r0, .L35
 121              	.L40:
 334:.\Motor_Contl4_3.c ****         ((StateDerivatives_Motor_Contl4_3 *) Motor_Contl4_3_M->ModelData.derivs)
 335:.\Motor_Contl4_3.c ****             ->Integrator1_CSTATE_l = 0;       
ARM GAS  C:\Users\miyag\AppData\Local\Temp\ccGJMi7G.s 			page 9


 122              		.loc 1 335 0
 123 00a6 D4F8F430 		ldr	r3, [r4, #244]
 124 00aa 0020     		movs	r0, #0
 125 00ac 0021     		movs	r1, #0
 126 00ae C3E90401 		strd	r0, [r3, #16]
 127 00b2 06E0     		b	.L14
 128              	.L35:
 336:.\Motor_Contl4_3.c ****     } else {
 337:.\Motor_Contl4_3.c ****         ((StateDerivatives_Motor_Contl4_3 *) Motor_Contl4_3_M->ModelData.derivs)
 338:.\Motor_Contl4_3.c ****     		->Integrator1_CSTATE_l = Motor_Contl4_3_B.Sum_m;
 129              		.loc 1 338 0
 130 00b4 D4F8F410 		ldr	r1, [r4, #244]
 131 00b8 164B     		ldr	r3, .L44+12
 132 00ba D3E90423 		ldrd	r2, [r3, #16]
 133 00be C1E90423 		strd	r2, [r1, #16]
 134              	.L14:
 339:.\Motor_Contl4_3.c ****     }
 340:.\Motor_Contl4_3.c ****   
 341:.\Motor_Contl4_3.c **** 
 342:.\Motor_Contl4_3.c ****     
 343:.\Motor_Contl4_3.c ****   /* Derivatives for Integrator: '<S2>/Integrator1' */
 344:.\Motor_Contl4_3.c ****     if( Motor_Contl4_3_Y.PWMDuty4  >= Motor_Contl4_3_P.Saturation_UpperSat_g){
 135              		.loc 1 344 0
 136 00c2 06F13007 		add	r7, r6, #48
 137 00c6 D7E90067 		ldrd	r6, [r7]
 138 00ca D5E92423 		ldrd	r2, [r5, #144]
 139 00ce 3046     		mov	r0, r6
 140 00d0 3946     		mov	r1, r7
 141 00d2 FFF7FEFF 		bl	__aeabi_dcmpge
 142              	.LVL6:
 143 00d6 10B1     		cbz	r0, .L36
 345:.\Motor_Contl4_3.c ****         ((StateDerivatives_Motor_Contl4_3 *) Motor_Contl4_3_M->ModelData.derivs)
 346:.\Motor_Contl4_3.c ****             ->Integrator1_CSTATE_g = 0;       
 144              		.loc 1 346 0
 145 00d8 D4F8F430 		ldr	r3, [r4, #244]
 146 00dc 09E0     		b	.L42
 147              	.L36:
 347:.\Motor_Contl4_3.c ****     } else if( Motor_Contl4_3_Y.PWMDuty4  <= Motor_Contl4_3_P.Saturation_LowerSat_l){
 148              		.loc 1 347 0
 149 00de 0B4B     		ldr	r3, .L44+4
 150 00e0 3046     		mov	r0, r6
 151 00e2 D3E92623 		ldrd	r2, [r3, #152]
 152 00e6 3946     		mov	r1, r7
 153 00e8 FFF7FEFF 		bl	__aeabi_dcmple
 154              	.LVL7:
 348:.\Motor_Contl4_3.c ****         ((StateDerivatives_Motor_Contl4_3 *) Motor_Contl4_3_M->ModelData.derivs)
 349:.\Motor_Contl4_3.c ****             ->Integrator1_CSTATE_g = 0;       
 155              		.loc 1 349 0
 156 00ec D4F8F430 		ldr	r3, [r4, #244]
 347:.\Motor_Contl4_3.c ****     } else if( Motor_Contl4_3_Y.PWMDuty4  <= Motor_Contl4_3_P.Saturation_LowerSat_l){
 157              		.loc 1 347 0
 158 00f0 10B1     		cbz	r0, .L37
 159              	.L42:
 160              		.loc 1 349 0
 161 00f2 0020     		movs	r0, #0
 162 00f4 0021     		movs	r1, #0
 163 00f6 02E0     		b	.L41
ARM GAS  C:\Users\miyag\AppData\Local\Temp\ccGJMi7G.s 			page 10


 164              	.L37:
 350:.\Motor_Contl4_3.c ****     } else {
 351:.\Motor_Contl4_3.c ****           ((StateDerivatives_Motor_Contl4_3 *) Motor_Contl4_3_M->ModelData.derivs)
 352:.\Motor_Contl4_3.c ****     		->Integrator1_CSTATE_g = Motor_Contl4_3_B.Sum_i;
 165              		.loc 1 352 0
 166 00f8 064A     		ldr	r2, .L44+12
 167 00fa D2E90601 		ldrd	r0, [r2, #24]
 168              	.L41:
 169 00fe C3E90601 		strd	r0, [r3, #24]
 170 0102 BDE8F883 		pop	{r3, r4, r5, r6, r7, r8, r9, pc}
 171              	.L45:
 172 0106 00BF     		.align	2
 173              	.L44:
 174 0108 00000000 		.word	Motor_Contl4_3_Y
 175 010c 00000000 		.word	Motor_Contl4_3_P
 176 0110 00000000 		.word	Motor_Contl4_3_M_
 177 0114 00000000 		.word	Motor_Contl4_3_B
 178              		.cfi_endproc
 179              	.LFE2:
 180              		.size	Motor_Contl4_3_derivatives, .-Motor_Contl4_3_derivatives
 181              		.global	__aeabi_ui2d
 182              		.global	__aeabi_dmul
 183              		.global	__aeabi_f2d
 184              		.global	__aeabi_dsub
 185              		.global	__aeabi_dadd
 186              		.section	.text.Motor_Contl4_3_step,"ax",%progbits
 187              		.align	1
 188              		.global	Motor_Contl4_3_step
 189              		.thumb
 190              		.thumb_func
 191              		.type	Motor_Contl4_3_step, %function
 192              	Motor_Contl4_3_step:
 193              	.LFB1:
 121:.\Motor_Contl4_3.c ****   real_T rtb_Sum2;
 194              		.loc 1 121 0
 195              		.cfi_startproc
 196              		@ args = 0, pretend = 0, frame = 64
 197              		@ frame_needed = 0, uses_anonymous_args = 0
 198 0000 2DE9F04F 		push	{r4, r5, r6, r7, r8, r9, r10, fp, lr}
 199              		.cfi_def_cfa_offset 36
 200              		.cfi_offset 4, -36
 201              		.cfi_offset 5, -32
 202              		.cfi_offset 6, -28
 203              		.cfi_offset 7, -24
 204              		.cfi_offset 8, -20
 205              		.cfi_offset 9, -16
 206              		.cfi_offset 10, -12
 207              		.cfi_offset 11, -8
 208              		.cfi_offset 14, -4
 124:.\Motor_Contl4_3.c ****     /* set solver stop time */
 209              		.loc 1 124 0
 210 0004 0A4C     		ldr	r4, .L62
 121:.\Motor_Contl4_3.c ****   real_T rtb_Sum2;
 211              		.loc 1 121 0
 212 0006 91B0     		sub	sp, sp, #68
 213              		.cfi_def_cfa_offset 104
 124:.\Motor_Contl4_3.c ****     /* set solver stop time */
ARM GAS  C:\Users\miyag\AppData\Local\Temp\ccGJMi7G.s 			page 11


 214              		.loc 1 124 0
 215 0008 94F8ACB1 		ldrb	fp, [r4, #428]	@ zero_extendqisi2
 216 000c BBF1010F 		cmp	fp, #1
 217 0010 10D1     		bne	.L47
 126:.\Motor_Contl4_3.c ****                           ((Motor_Contl4_3_M->Timing.clockTick0+1)*
 218              		.loc 1 126 0
 219 0012 D4F89801 		ldr	r0, [r4, #408]
 220 0016 0130     		adds	r0, r0, #1
 221 0018 FFF7FEFF 		bl	__aeabi_ui2d
 222              	.LVL8:
 223 001c 04F5D073 		add	r3, r4, #416
 224 0020 D3E90023 		ldrd	r2, [r3]
 225 0024 FFF7FEFF 		bl	__aeabi_dmul
 226              	.LVL9:
 227 0028 C4E90801 		strd	r0, [r4, #32]
 228 002c 0EE0     		b	.L48
 229              	.L63:
 230 002e 00BF     		.align	2
 231              	.L62:
 232 0030 00000000 		.word	Motor_Contl4_3_M_
 233              	.L47:
 132:.\Motor_Contl4_3.c ****     Motor_Contl4_3_M->Timing.t[0] = rtsiGetT(&Motor_Contl4_3_M->solverInfo);
 234              		.loc 1 132 0
 235 0034 BBF1000F 		cmp	fp, #0
 236 0038 08D1     		bne	.L48
 133:.\Motor_Contl4_3.c ****   }
 237              		.loc 1 133 0
 238 003a D4F88430 		ldr	r3, [r4, #132]
 239 003e 1B68     		ldr	r3, [r3]
 240 0040 D3E90001 		ldrd	r0, [r3]
 241 0044 D4F8B031 		ldr	r3, [r4, #432]
 242 0048 C3E90001 		strd	r0, [r3]
 243              	.L48:
 140:.\Motor_Contl4_3.c **** // rtb_Sum2 = Motor_Contl4_3_U.RPM1 * 0.00033108163; //GP26A
 244              		.loc 1 140 0
 245 004c 9D4B     		ldr	r3, .L64
 246 004e 9E4C     		ldr	r4, .L64+4
 247 0050 1868     		ldr	r0, [r3]	@ float
 248 0052 FFF7FEFF 		bl	__aeabi_f2d
 249              	.LVL10:
 250 0056 D4E90223 		ldrd	r2, [r4, #8]
 251 005a CDE90001 		strd	r0, [sp]
 252 005e FFF7FEFF 		bl	__aeabi_dmul
 253              	.LVL11:
 254 0062 CDE90201 		strd	r0, [sp, #8]
 255              	.LVL12:
 152:.\Motor_Contl4_3.c **** 
 256              		.loc 1 152 0
 257 0066 DDE90223 		ldrd	r2, [sp, #8]
 258 006a D4E90001 		ldrd	r0, [r4]
 259              	.LVL13:
 260 006e FFF7FEFF 		bl	__aeabi_dsub
 261              	.LVL14:
 262 0072 8046     		mov	r8, r0
 263 0074 8946     		mov	r9, r1
 264 0076 954B     		ldr	r3, .L64+8
 160:.\Motor_Contl4_3.c ****     Motor_Contl4_3_P.Gain_Gain * Motor_Contl4_3_B.Sum;
ARM GAS  C:\Users\miyag\AppData\Local\Temp\ccGJMi7G.s 			page 12


 265              		.loc 1 160 0
 266 0078 954D     		ldr	r5, .L64+12
 152:.\Motor_Contl4_3.c **** 
 267              		.loc 1 152 0
 268 007a C3E90089 		strd	r8, [r3]
 160:.\Motor_Contl4_3.c ****     Motor_Contl4_3_P.Gain_Gain * Motor_Contl4_3_B.Sum;
 269              		.loc 1 160 0
 270 007e D5E90201 		ldrd	r0, [r5, #8]
 271 0082 944B     		ldr	r3, .L64+16
 272 0084 D3E90023 		ldrd	r2, [r3]
 273 0088 FFF7FEFF 		bl	__aeabi_dmul
 274              	.LVL15:
 161:.\Motor_Contl4_3.c **** 
 275              		.loc 1 161 0
 276 008c D5E90423 		ldrd	r2, [r5, #16]
 160:.\Motor_Contl4_3.c ****     Motor_Contl4_3_P.Gain_Gain * Motor_Contl4_3_B.Sum;
 277              		.loc 1 160 0
 278 0090 0646     		mov	r6, r0
 279 0092 0F46     		mov	r7, r1
 161:.\Motor_Contl4_3.c **** 
 280              		.loc 1 161 0
 281 0094 4046     		mov	r0, r8
 282 0096 4946     		mov	r1, r9
 283 0098 FFF7FEFF 		bl	__aeabi_dmul
 284              	.LVL16:
 285 009c 0246     		mov	r2, r0
 286 009e 0B46     		mov	r3, r1
 160:.\Motor_Contl4_3.c ****     Motor_Contl4_3_P.Gain_Gain * Motor_Contl4_3_B.Sum;
 287              		.loc 1 160 0
 288 00a0 3046     		mov	r0, r6
 289 00a2 3946     		mov	r1, r7
 290 00a4 FFF7FEFF 		bl	__aeabi_dadd
 291              	.LVL17:
 166:.\Motor_Contl4_3.c ****     Motor_Contl4_3_P.Saturation_UpperSat : u <=
 292              		.loc 1 166 0
 293 00a8 D5E90667 		ldrd	r6, [r5, #24]
 167:.\Motor_Contl4_3.c ****     Motor_Contl4_3_P.Saturation_LowerSat ? Motor_Contl4_3_P.Saturation_LowerSat :
 294              		.loc 1 167 0
 295 00ac 3246     		mov	r2, r6
 296 00ae 3B46     		mov	r3, r7
 160:.\Motor_Contl4_3.c ****     Motor_Contl4_3_P.Gain_Gain * Motor_Contl4_3_B.Sum;
 297              		.loc 1 160 0
 298 00b0 CDE90401 		strd	r0, [sp, #16]
 299              	.LVL18:
 167:.\Motor_Contl4_3.c ****     Motor_Contl4_3_P.Saturation_LowerSat ? Motor_Contl4_3_P.Saturation_LowerSat :
 300              		.loc 1 167 0
 301 00b4 FFF7FEFF 		bl	__aeabi_dcmpge
 302              	.LVL19:
 303 00b8 A046     		mov	r8, r4
 304 00ba 50B9     		cbnz	r0, .L49
 168:.\Motor_Contl4_3.c ****     u;
 305              		.loc 1 168 0
 306 00bc D5E90867 		ldrd	r6, [r5, #32]
 307 00c0 DDE90401 		ldrd	r0, [sp, #16]
 308 00c4 3246     		mov	r2, r6
 309 00c6 3B46     		mov	r3, r7
 310 00c8 FFF7FEFF 		bl	__aeabi_dcmple
ARM GAS  C:\Users\miyag\AppData\Local\Temp\ccGJMi7G.s 			page 13


 311              	.LVL20:
 312 00cc 08B9     		cbnz	r0, .L49
 313 00ce DDE90467 		ldrd	r6, [sp, #16]
 314              	.L49:
 172:.\Motor_Contl4_3.c **** 
 315              		.loc 1 172 0
 316 00d2 DDE90223 		ldrd	r2, [sp, #8]
 180:.\Motor_Contl4_3.c **** 
 317              		.loc 1 180 0
 318 00d6 DDE90001 		ldrd	r0, [sp]
 166:.\Motor_Contl4_3.c ****     Motor_Contl4_3_P.Saturation_UpperSat : u <=
 319              		.loc 1 166 0
 320 00da 7F4C     		ldr	r4, .L64+20
 194:.\Motor_Contl4_3.c ****     Motor_Contl4_3_P.Gain_Gain_a * Motor_Contl4_3_B.Sum_n;
 321              		.loc 1 194 0
 322 00dc 7C4D     		ldr	r5, .L64+12
 166:.\Motor_Contl4_3.c ****     Motor_Contl4_3_P.Saturation_UpperSat : u <=
 323              		.loc 1 166 0
 324 00de C4E90067 		strd	r6, [r4]
 172:.\Motor_Contl4_3.c **** 
 325              		.loc 1 172 0
 326 00e2 C4E90223 		strd	r2, [r4, #8]
 180:.\Motor_Contl4_3.c **** 
 327              		.loc 1 180 0
 328 00e6 D8E90623 		ldrd	r2, [r8, #24]
 329 00ea FFF7FEFF 		bl	__aeabi_dmul
 330              	.LVL21:
 331 00ee CDE90201 		strd	r0, [sp, #8]
 332              	.LVL22:
 186:.\Motor_Contl4_3.c **** 
 333              		.loc 1 186 0
 334 00f2 DDE90223 		ldrd	r2, [sp, #8]
 335 00f6 D8E90401 		ldrd	r0, [r8, #16]
 336              	.LVL23:
 337 00fa FFF7FEFF 		bl	__aeabi_dsub
 338              	.LVL24:
 339 00fe 8046     		mov	r8, r0
 340 0100 8946     		mov	r9, r1
 194:.\Motor_Contl4_3.c ****     Motor_Contl4_3_P.Gain_Gain_a * Motor_Contl4_3_B.Sum_n;
 341              		.loc 1 194 0
 342 0102 D5E90C01 		ldrd	r0, [r5, #48]
 186:.\Motor_Contl4_3.c **** 
 343              		.loc 1 186 0
 344 0106 714B     		ldr	r3, .L64+8
 345 0108 C3E90289 		strd	r8, [r3, #8]
 194:.\Motor_Contl4_3.c ****     Motor_Contl4_3_P.Gain_Gain_a * Motor_Contl4_3_B.Sum_n;
 346              		.loc 1 194 0
 347 010c 714B     		ldr	r3, .L64+16
 348 010e D3E90223 		ldrd	r2, [r3, #8]
 349 0112 FFF7FEFF 		bl	__aeabi_dmul
 350              	.LVL25:
 195:.\Motor_Contl4_3.c **** 
 351              		.loc 1 195 0
 352 0116 D5E90E23 		ldrd	r2, [r5, #56]
 194:.\Motor_Contl4_3.c ****     Motor_Contl4_3_P.Gain_Gain_a * Motor_Contl4_3_B.Sum_n;
 353              		.loc 1 194 0
 354 011a 0646     		mov	r6, r0
ARM GAS  C:\Users\miyag\AppData\Local\Temp\ccGJMi7G.s 			page 14


 355 011c 0F46     		mov	r7, r1
 195:.\Motor_Contl4_3.c **** 
 356              		.loc 1 195 0
 357 011e 4046     		mov	r0, r8
 358 0120 4946     		mov	r1, r9
 359 0122 FFF7FEFF 		bl	__aeabi_dmul
 360              	.LVL26:
 361 0126 0246     		mov	r2, r0
 362 0128 0B46     		mov	r3, r1
 194:.\Motor_Contl4_3.c ****     Motor_Contl4_3_P.Gain_Gain_a * Motor_Contl4_3_B.Sum_n;
 363              		.loc 1 194 0
 364 012a 3046     		mov	r0, r6
 365 012c 3946     		mov	r1, r7
 366 012e FFF7FEFF 		bl	__aeabi_dadd
 367              	.LVL27:
 200:.\Motor_Contl4_3.c ****     Motor_Contl4_3_P.Saturation_UpperSat_o : u <=
 368              		.loc 1 200 0
 369 0132 D5E91067 		ldrd	r6, [r5, #64]
 201:.\Motor_Contl4_3.c ****     Motor_Contl4_3_P.Saturation_LowerSat_j ?
 370              		.loc 1 201 0
 371 0136 3246     		mov	r2, r6
 372 0138 3B46     		mov	r3, r7
 194:.\Motor_Contl4_3.c ****     Motor_Contl4_3_P.Gain_Gain_a * Motor_Contl4_3_B.Sum_n;
 373              		.loc 1 194 0
 374 013a 8046     		mov	r8, r0
 375 013c 8946     		mov	r9, r1
 376              	.LVL28:
 201:.\Motor_Contl4_3.c ****     Motor_Contl4_3_P.Saturation_LowerSat_j ?
 377              		.loc 1 201 0
 378 013e FFF7FEFF 		bl	__aeabi_dcmpge
 379              	.LVL29:
 380 0142 50B9     		cbnz	r0, .L50
 202:.\Motor_Contl4_3.c ****     Motor_Contl4_3_P.Saturation_LowerSat_j : u;
 381              		.loc 1 202 0
 382 0144 D5E91267 		ldrd	r6, [r5, #72]
 203:.\Motor_Contl4_3.c **** 
 383              		.loc 1 203 0
 384 0148 4046     		mov	r0, r8
 385 014a 4946     		mov	r1, r9
 386 014c 3246     		mov	r2, r6
 387 014e 3B46     		mov	r3, r7
 388 0150 FFF7FEFF 		bl	__aeabi_dcmple
 389              	.LVL30:
 390 0154 08B9     		cbnz	r0, .L50
 391 0156 4646     		mov	r6, r8
 392 0158 4F46     		mov	r7, r9
 393              	.L50:
 206:.\Motor_Contl4_3.c **** 
 394              		.loc 1 206 0
 395 015a DDE90223 		ldrd	r2, [sp, #8]
 213:.\Motor_Contl4_3.c **** 
 396              		.loc 1 213 0
 397 015e DDE90001 		ldrd	r0, [sp]
 398 0162 594D     		ldr	r5, .L64+4
 200:.\Motor_Contl4_3.c ****     Motor_Contl4_3_P.Saturation_UpperSat_o : u <=
 399              		.loc 1 200 0
 400 0164 C4E90467 		strd	r6, [r4, #16]
ARM GAS  C:\Users\miyag\AppData\Local\Temp\ccGJMi7G.s 			page 15


 206:.\Motor_Contl4_3.c **** 
 401              		.loc 1 206 0
 402 0168 C4E90623 		strd	r2, [r4, #24]
 213:.\Motor_Contl4_3.c **** 
 403              		.loc 1 213 0
 404 016c D5E90A23 		ldrd	r2, [r5, #40]
 405 0170 FFF7FEFF 		bl	__aeabi_dmul
 406              	.LVL31:
 407 0174 CDE90201 		strd	r0, [sp, #8]
 408              	.LVL32:
 219:.\Motor_Contl4_3.c **** 
 409              		.loc 1 219 0
 410 0178 DDE90223 		ldrd	r2, [sp, #8]
 411 017c D5E90801 		ldrd	r0, [r5, #32]
 412              	.LVL33:
 413 0180 FFF7FEFF 		bl	__aeabi_dsub
 414              	.LVL34:
 415 0184 8046     		mov	r8, r0
 416              	.LVL35:
 417 0186 8946     		mov	r9, r1
 418 0188 504B     		ldr	r3, .L64+8
 227:.\Motor_Contl4_3.c ****     Motor_Contl4_3_P.Gain_Gain_i * Motor_Contl4_3_B.Sum_m;
 419              		.loc 1 227 0
 420 018a DFF844A1 		ldr	r10, .L64+12
 219:.\Motor_Contl4_3.c **** 
 421              		.loc 1 219 0
 422 018e C3E90489 		strd	r8, [r3, #16]
 227:.\Motor_Contl4_3.c ****     Motor_Contl4_3_P.Gain_Gain_i * Motor_Contl4_3_B.Sum_m;
 423              		.loc 1 227 0
 424 0192 DAE91601 		ldrd	r0, [r10, #88]
 425 0196 4F4B     		ldr	r3, .L64+16
 426 0198 D3E90423 		ldrd	r2, [r3, #16]
 427 019c FFF7FEFF 		bl	__aeabi_dmul
 428              	.LVL36:
 228:.\Motor_Contl4_3.c **** 
 429              		.loc 1 228 0
 430 01a0 DAE91823 		ldrd	r2, [r10, #96]
 227:.\Motor_Contl4_3.c ****     Motor_Contl4_3_P.Gain_Gain_i * Motor_Contl4_3_B.Sum_m;
 431              		.loc 1 227 0
 432 01a4 0646     		mov	r6, r0
 433 01a6 0F46     		mov	r7, r1
 228:.\Motor_Contl4_3.c **** 
 434              		.loc 1 228 0
 435 01a8 4046     		mov	r0, r8
 436 01aa 4946     		mov	r1, r9
 437 01ac FFF7FEFF 		bl	__aeabi_dmul
 438              	.LVL37:
 439 01b0 0246     		mov	r2, r0
 440 01b2 0B46     		mov	r3, r1
 227:.\Motor_Contl4_3.c ****     Motor_Contl4_3_P.Gain_Gain_i * Motor_Contl4_3_B.Sum_m;
 441              		.loc 1 227 0
 442 01b4 3046     		mov	r0, r6
 443 01b6 3946     		mov	r1, r7
 444 01b8 FFF7FEFF 		bl	__aeabi_dadd
 445              	.LVL38:
 233:.\Motor_Contl4_3.c ****     Motor_Contl4_3_P.Saturation_UpperSat_j : u <=
 446              		.loc 1 233 0
ARM GAS  C:\Users\miyag\AppData\Local\Temp\ccGJMi7G.s 			page 16


 447 01bc DAE91A67 		ldrd	r6, [r10, #104]
 234:.\Motor_Contl4_3.c ****     Motor_Contl4_3_P.Saturation_LowerSat_a ?
 448              		.loc 1 234 0
 449 01c0 3246     		mov	r2, r6
 450 01c2 3B46     		mov	r3, r7
 227:.\Motor_Contl4_3.c ****     Motor_Contl4_3_P.Gain_Gain_i * Motor_Contl4_3_B.Sum_m;
 451              		.loc 1 227 0
 452 01c4 8046     		mov	r8, r0
 453 01c6 8946     		mov	r9, r1
 454              	.LVL39:
 234:.\Motor_Contl4_3.c ****     Motor_Contl4_3_P.Saturation_LowerSat_a ?
 455              		.loc 1 234 0
 456 01c8 FFF7FEFF 		bl	__aeabi_dcmpge
 457              	.LVL40:
 458 01cc 50B9     		cbnz	r0, .L51
 235:.\Motor_Contl4_3.c ****     Motor_Contl4_3_P.Saturation_LowerSat_a : u;
 459              		.loc 1 235 0
 460 01ce DAE91C67 		ldrd	r6, [r10, #112]
 236:.\Motor_Contl4_3.c **** 
 461              		.loc 1 236 0
 462 01d2 4046     		mov	r0, r8
 463 01d4 4946     		mov	r1, r9
 464 01d6 3246     		mov	r2, r6
 465 01d8 3B46     		mov	r3, r7
 466 01da FFF7FEFF 		bl	__aeabi_dcmple
 467              	.LVL41:
 468 01de 08B9     		cbnz	r0, .L51
 469 01e0 4646     		mov	r6, r8
 470 01e2 4F46     		mov	r7, r9
 471              	.L51:
 239:.\Motor_Contl4_3.c **** 
 472              		.loc 1 239 0
 473 01e4 DDE90223 		ldrd	r2, [sp, #8]
 247:.\Motor_Contl4_3.c **** 
 474              		.loc 1 247 0
 475 01e8 DDE90001 		ldrd	r0, [sp]
 233:.\Motor_Contl4_3.c ****     Motor_Contl4_3_P.Saturation_UpperSat_j : u <=
 476              		.loc 1 233 0
 477 01ec C4E90867 		strd	r6, [r4, #32]
 239:.\Motor_Contl4_3.c **** 
 478              		.loc 1 239 0
 479 01f0 C4E90A23 		strd	r2, [r4, #40]
 247:.\Motor_Contl4_3.c **** 
 480              		.loc 1 247 0
 481 01f4 D5E90E23 		ldrd	r2, [r5, #56]
 482 01f8 FFF7FEFF 		bl	__aeabi_dmul
 483              	.LVL42:
 484 01fc 0646     		mov	r6, r0
 485 01fe 0F46     		mov	r7, r1
 486              	.LVL43:
 253:.\Motor_Contl4_3.c **** 
 487              		.loc 1 253 0
 488 0200 D5E90C01 		ldrd	r0, [r5, #48]
 489 0204 3246     		mov	r2, r6
 490 0206 3B46     		mov	r3, r7
 491 0208 FFF7FEFF 		bl	__aeabi_dsub
 492              	.LVL44:
ARM GAS  C:\Users\miyag\AppData\Local\Temp\ccGJMi7G.s 			page 17


 493 020c 0446     		mov	r4, r0
 494 020e 0D46     		mov	r5, r1
 495 0210 2E4B     		ldr	r3, .L64+8
 261:.\Motor_Contl4_3.c ****     Motor_Contl4_3_P.Gain_Gain_o * Motor_Contl4_3_B.Sum_i;
 496              		.loc 1 261 0
 497 0212 DFF8BCA0 		ldr	r10, .L64+12
 253:.\Motor_Contl4_3.c **** 
 498              		.loc 1 253 0
 499 0216 C3E90645 		strd	r4, [r3, #24]
 261:.\Motor_Contl4_3.c ****     Motor_Contl4_3_P.Gain_Gain_o * Motor_Contl4_3_B.Sum_i;
 500              		.loc 1 261 0
 501 021a DAE92001 		ldrd	r0, [r10, #128]
 502 021e 2D4B     		ldr	r3, .L64+16
 503 0220 D3E90623 		ldrd	r2, [r3, #24]
 504 0224 FFF7FEFF 		bl	__aeabi_dmul
 505              	.LVL45:
 262:.\Motor_Contl4_3.c **** 
 506              		.loc 1 262 0
 507 0228 DAE92223 		ldrd	r2, [r10, #136]
 261:.\Motor_Contl4_3.c ****     Motor_Contl4_3_P.Gain_Gain_o * Motor_Contl4_3_B.Sum_i;
 508              		.loc 1 261 0
 509 022c 8046     		mov	r8, r0
 510              	.LVL46:
 511 022e 8946     		mov	r9, r1
 262:.\Motor_Contl4_3.c **** 
 512              		.loc 1 262 0
 513 0230 2046     		mov	r0, r4
 514 0232 2946     		mov	r1, r5
 515 0234 FFF7FEFF 		bl	__aeabi_dmul
 516              	.LVL47:
 517 0238 0246     		mov	r2, r0
 518 023a 0B46     		mov	r3, r1
 261:.\Motor_Contl4_3.c ****     Motor_Contl4_3_P.Gain_Gain_o * Motor_Contl4_3_B.Sum_i;
 519              		.loc 1 261 0
 520 023c 4046     		mov	r0, r8
 521 023e 4946     		mov	r1, r9
 522 0240 FFF7FEFF 		bl	__aeabi_dadd
 523              	.LVL48:
 267:.\Motor_Contl4_3.c ****     Motor_Contl4_3_P.Saturation_UpperSat_g : u <=
 524              		.loc 1 267 0
 525 0244 DAE92445 		ldrd	r4, [r10, #144]
 268:.\Motor_Contl4_3.c ****     Motor_Contl4_3_P.Saturation_LowerSat_l ?
 526              		.loc 1 268 0
 527 0248 2246     		mov	r2, r4
 528 024a 2B46     		mov	r3, r5
 261:.\Motor_Contl4_3.c ****     Motor_Contl4_3_P.Gain_Gain_o * Motor_Contl4_3_B.Sum_i;
 529              		.loc 1 261 0
 530 024c 8046     		mov	r8, r0
 531 024e 8946     		mov	r9, r1
 532              	.LVL49:
 268:.\Motor_Contl4_3.c ****     Motor_Contl4_3_P.Saturation_LowerSat_l ?
 533              		.loc 1 268 0
 534 0250 FFF7FEFF 		bl	__aeabi_dcmpge
 535              	.LVL50:
 536 0254 50B9     		cbnz	r0, .L52
 269:.\Motor_Contl4_3.c ****     Motor_Contl4_3_P.Saturation_LowerSat_l : u;
 537              		.loc 1 269 0
ARM GAS  C:\Users\miyag\AppData\Local\Temp\ccGJMi7G.s 			page 18


 538 0256 DAE92645 		ldrd	r4, [r10, #152]
 270:.\Motor_Contl4_3.c **** 
 539              		.loc 1 270 0
 540 025a 4046     		mov	r0, r8
 541 025c 4946     		mov	r1, r9
 542 025e 2246     		mov	r2, r4
 543 0260 2B46     		mov	r3, r5
 544 0262 FFF7FEFF 		bl	__aeabi_dcmple
 545              	.LVL51:
 546 0266 08B9     		cbnz	r0, .L52
 547 0268 4446     		mov	r4, r8
 548 026a 4D46     		mov	r5, r9
 549              	.L52:
 267:.\Motor_Contl4_3.c ****     Motor_Contl4_3_P.Saturation_UpperSat_g : u <=
 550              		.loc 1 267 0
 551 026c 1A4B     		ldr	r3, .L64+20
 277:.\Motor_Contl4_3.c ****     rt_ertODEUpdateContinuousStates(&Motor_Contl4_3_M->solverInfo);
 552              		.loc 1 277 0
 553 026e BBF1010F 		cmp	fp, #1
 267:.\Motor_Contl4_3.c ****     Motor_Contl4_3_P.Saturation_UpperSat_g : u <=
 554              		.loc 1 267 0
 555 0272 C3E90C45 		strd	r4, [r3, #48]
 273:.\Motor_Contl4_3.c **** 
 556              		.loc 1 273 0
 557 0276 C3E90E67 		strd	r6, [r3, #56]
 277:.\Motor_Contl4_3.c ****     rt_ertODEUpdateContinuousStates(&Motor_Contl4_3_M->solverInfo);
 558              		.loc 1 277 0
 559 027a 40F03181 		bne	.L46
 560              	.LVL52:
 561              	.LBB4:
 562              	.LBB5:
  57:.\Motor_Contl4_3.c ****   time_T tnew = rtsiGetSolverStopTime(si);
 563              		.loc 1 57 0
 564 027e 174B     		ldr	r3, .L64+24
 565 0280 D3F88420 		ldr	r2, [r3, #132]
 566 0284 1268     		ldr	r2, [r2]
 567 0286 D2E90001 		ldrd	r0, [r2]
  59:.\Motor_Contl4_3.c ****   real_T *x = rtsiGetContStates(si);
 568              		.loc 1 59 0
 569 028a 9A6A     		ldr	r2, [r3, #40]
  57:.\Motor_Contl4_3.c ****   time_T tnew = rtsiGetSolverStopTime(si);
 570              		.loc 1 57 0
 571 028c CDE90401 		strd	r0, [sp, #16]
 572              	.LVL53:
  58:.\Motor_Contl4_3.c ****   time_T h = rtsiGetStepSize(si);
 573              		.loc 1 58 0
 574 0290 D3E90801 		ldrd	r0, [r3, #32]
 575              	.LVL54:
 576 0294 CDE90A01 		strd	r0, [sp, #40]
 577              	.LVL55:
  59:.\Motor_Contl4_3.c ****   real_T *x = rtsiGetContStates(si);
 578              		.loc 1 59 0
 579 0298 D2E90001 		ldrd	r0, [r2]
 580              	.LVL56:
  60:.\Motor_Contl4_3.c ****   ODE3_IntgData *id = (ODE3_IntgData *)rtsiGetSolverData(si);
 581              		.loc 1 60 0
 582 029c D3F88C20 		ldr	r2, [r3, #140]
ARM GAS  C:\Users\miyag\AppData\Local\Temp\ccGJMi7G.s 			page 19


  59:.\Motor_Contl4_3.c ****   real_T *x = rtsiGetContStates(si);
 583              		.loc 1 59 0
 584 02a0 CDE90001 		strd	r0, [sp]
 585              	.LVL57:
  60:.\Motor_Contl4_3.c ****   ODE3_IntgData *id = (ODE3_IntgData *)rtsiGetSolverData(si);
 586              		.loc 1 60 0
 587 02a4 1468     		ldr	r4, [r2]
 588              	.LVL58:
  61:.\Motor_Contl4_3.c ****   real_T *y = id->y;
 589              		.loc 1 61 0
 590 02a6 1A69     		ldr	r2, [r3, #16]
 591              	.LVL59:
  69:.\Motor_Contl4_3.c **** 
 592              		.loc 1 69 0
 593 02a8 0021     		movs	r1, #0
  62:.\Motor_Contl4_3.c ****   real_T *f0 = id->f[0];
 594              		.loc 1 62 0
 595 02aa 1768     		ldr	r7, [r2]
 596              	.LVL60:
  63:.\Motor_Contl4_3.c ****   real_T *f1 = id->f[1];
 597              		.loc 1 63 0
 598 02ac 5568     		ldr	r5, [r2, #4]
 599              	.LVL61:
  64:.\Motor_Contl4_3.c ****   real_T *f2 = id->f[2];
 600              		.loc 1 64 0
 601 02ae 9668     		ldr	r6, [r2, #8]
 602              	.LVL62:
  65:.\Motor_Contl4_3.c ****   real_T hB[3];
 603              		.loc 1 65 0
 604 02b0 D268     		ldr	r2, [r2, #12]
 605              	.LVL63:
  72:.\Motor_Contl4_3.c ****                 nXc*sizeof(real_T));
 606              		.loc 1 72 0
 607 02b2 04F12000 		add	r0, r4, #32
 608              	.LVL64:
  65:.\Motor_Contl4_3.c ****   real_T hB[3];
 609              		.loc 1 65 0
 610 02b6 0892     		str	r2, [sp, #32]
 611              	.LVL65:
  69:.\Motor_Contl4_3.c **** 
 612              		.loc 1 69 0
 613 02b8 DA68     		ldr	r2, [r3, #12]
 614              	.LVL66:
 615 02ba 1170     		strb	r1, [r2]
 616              	.LVL67:
  72:.\Motor_Contl4_3.c ****                 nXc*sizeof(real_T));
 617              		.loc 1 72 0
 618 02bc 2246     		mov	r2, r4
 619 02be 3946     		mov	r1, r7
 620 02c0 0EE0     		b	.L65
 621              	.L66:
 622 02c2 00BF     		.align	2
 623              	.L64:
 624 02c4 00000000 		.word	rpm2velo_ratio
 625 02c8 00000000 		.word	Motor_Contl4_3_U
 626 02cc 00000000 		.word	Motor_Contl4_3_B
 627 02d0 00000000 		.word	Motor_Contl4_3_P
ARM GAS  C:\Users\miyag\AppData\Local\Temp\ccGJMi7G.s 			page 20


 628 02d4 00000000 		.word	Motor_Contl4_3_X
 629 02d8 00000000 		.word	Motor_Contl4_3_Y
 630 02dc 00000000 		.word	Motor_Contl4_3_M_
 631              	.L65:
 632              	.LVL68:
 633              	.L54:
 634 02e0 52F804EB 		ldr	lr, [r2], #4	@ unaligned
 635 02e4 8242     		cmp	r2, r0
 636 02e6 41F804EB 		str	lr, [r1], #4	@ unaligned
 637 02ea F9D1     		bne	.L54
  77:.\Motor_Contl4_3.c ****   Motor_Contl4_3_derivatives();
 638              		.loc 1 77 0
 639 02ec D3F88030 		ldr	r3, [r3, #128]
 640 02f0 083C     		subs	r4, r4, #8
 641              	.LVL69:
 642 02f2 1D60     		str	r5, [r3]
  78:.\Motor_Contl4_3.c **** 
 643              		.loc 1 78 0
 644 02f4 FFF7FEFF 		bl	Motor_Contl4_3_derivatives
 645              	.LVL70:
  81:.\Motor_Contl4_3.c ****   for (i = 0; i < nXc; i++) {
 646              		.loc 1 81 0
 647 02f8 DDE90001 		ldrd	r0, [sp]
 648 02fc 804B     		ldr	r3, .L67+24
 649 02fe 0022     		movs	r2, #0
 650 0300 FFF7FEFF 		bl	__aeabi_dmul
 651              	.LVL71:
 652 0304 083D     		subs	r5, r5, #8
 653              	.LVL72:
 654 0306 8246     		mov	r10, r0
 655 0308 8B46     		mov	fp, r1
 656              	.LVL73:
 657 030a A046     		mov	r8, r4
 658              	.LVL74:
 659 030c A946     		mov	r9, r5
 660 030e A7F10803 		sub	r3, r7, #8
 661 0312 0293     		str	r3, [sp, #8]
 662 0314 07F11803 		add	r3, r7, #24
 663 0318 029F     		ldr	r7, [sp, #8]
 664              	.LVL75:
 665 031a 0993     		str	r3, [sp, #36]
 666              	.LVL76:
 667              	.L55:
  83:.\Motor_Contl4_3.c ****   }
 668              		.loc 1 83 0
 669 031c F9E90223 		ldrd	r2, [r9, #8]!
 670 0320 5046     		mov	r0, r10
 671 0322 5946     		mov	r1, fp
 672 0324 FFF7FEFF 		bl	__aeabi_dmul
 673              	.LVL77:
 674 0328 0B46     		mov	r3, r1
 675 032a 0246     		mov	r2, r0
 676 032c F7E90201 		ldrd	r0, [r7, #8]!
 677 0330 FFF7FEFF 		bl	__aeabi_dadd
 678              	.LVL78:
  82:.\Motor_Contl4_3.c ****     x[i] = y[i] + (f0[i]*hB[0]);
 679              		.loc 1 82 0
ARM GAS  C:\Users\miyag\AppData\Local\Temp\ccGJMi7G.s 			page 21


 680 0334 099B     		ldr	r3, [sp, #36]
  83:.\Motor_Contl4_3.c ****   }
 681              		.loc 1 83 0
 682 0336 E8E90201 		strd	r0, [r8, #8]!
  82:.\Motor_Contl4_3.c ****     x[i] = y[i] + (f0[i]*hB[0]);
 683              		.loc 1 82 0
 684 033a 9F42     		cmp	r7, r3
 685 033c EED1     		bne	.L55
  86:.\Motor_Contl4_3.c ****   rtsiSetdX(si, f1);
 686              		.loc 1 86 0
 687 033e DDE90401 		ldrd	r0, [sp, #16]
 688 0342 DFF8C481 		ldr	r8, .L67+32
 689 0346 5246     		mov	r2, r10
 690 0348 D8F88430 		ldr	r3, [r8, #132]
  93:.\Motor_Contl4_3.c ****   }
 691              		.loc 1 93 0
 692 034c A246     		mov	r10, r4
  86:.\Motor_Contl4_3.c ****   rtsiSetdX(si, f1);
 693              		.loc 1 86 0
 694 034e 1F68     		ldr	r7, [r3]
 695 0350 5B46     		mov	r3, fp
 696 0352 FFF7FEFF 		bl	__aeabi_dadd
 697              	.LVL79:
  87:.\Motor_Contl4_3.c ****   Motor_Contl4_3_step();
 698              		.loc 1 87 0
 699 0356 D8F88030 		ldr	r3, [r8, #128]
  86:.\Motor_Contl4_3.c ****   rtsiSetdX(si, f1);
 700              		.loc 1 86 0
 701 035a C7E90001 		strd	r0, [r7]
  87:.\Motor_Contl4_3.c ****   Motor_Contl4_3_step();
 702              		.loc 1 87 0
 703 035e 1E60     		str	r6, [r3]
  88:.\Motor_Contl4_3.c ****   Motor_Contl4_3_derivatives();
 704              		.loc 1 88 0
 705 0360 FFF7FEFF 		bl	Motor_Contl4_3_step
 706              	.LVL80:
  89:.\Motor_Contl4_3.c **** 
 707              		.loc 1 89 0
 708 0364 FFF7FEFF 		bl	Motor_Contl4_3_derivatives
 709              	.LVL81:
  93:.\Motor_Contl4_3.c ****   }
 710              		.loc 1 93 0
 711 0368 DDE90001 		ldrd	r0, [sp]
 712 036c 0022     		movs	r2, #0
 713 036e 0023     		movs	r3, #0
 714 0370 FFF7FEFF 		bl	__aeabi_dmul
 715              	.LVL82:
 716 0374 0022     		movs	r2, #0
 717 0376 CDE90C01 		strd	r0, [sp, #48]
 718              	.LVL83:
 719 037a DDE90001 		ldrd	r0, [sp]
 720 037e 614B     		ldr	r3, .L67+28
 721 0380 FFF7FEFF 		bl	__aeabi_dmul
 722              	.LVL84:
 723 0384 083E     		subs	r6, r6, #8
 724              	.LVL85:
 725 0386 B346     		mov	fp, r6
ARM GAS  C:\Users\miyag\AppData\Local\Temp\ccGJMi7G.s 			page 22


 726 0388 AC46     		mov	ip, r5
 727 038a CDE90601 		strd	r0, [sp, #24]
 728              	.LVL86:
 729 038e 029F     		ldr	r7, [sp, #8]
 730              	.LVL87:
 731              	.L56:
  97:.\Motor_Contl4_3.c ****   }
 732              		.loc 1 97 0
 733 0390 FCE90223 		ldrd	r2, [ip, #8]!
 734 0394 DDE90C01 		ldrd	r0, [sp, #48]
 735 0398 CDF838C0 		str	ip, [sp, #56]
 736 039c CDF83CC0 		str	ip, [sp, #60]
 737 03a0 FFF7FEFF 		bl	__aeabi_dmul
 738              	.LVL88:
 739 03a4 FBE90223 		ldrd	r2, [fp, #8]!
 740 03a8 8046     		mov	r8, r0
 741 03aa 8946     		mov	r9, r1
 742 03ac DDE90601 		ldrd	r0, [sp, #24]
 743 03b0 FFF7FEFF 		bl	__aeabi_dmul
 744              	.LVL89:
 745 03b4 0246     		mov	r2, r0
 746 03b6 0B46     		mov	r3, r1
 747 03b8 4046     		mov	r0, r8
 748 03ba 4946     		mov	r1, r9
 749 03bc FFF7FEFF 		bl	__aeabi_dadd
 750              	.LVL90:
 751 03c0 0B46     		mov	r3, r1
 752 03c2 0246     		mov	r2, r0
 753 03c4 F7E90201 		ldrd	r0, [r7, #8]!
 754 03c8 FFF7FEFF 		bl	__aeabi_dadd
 755              	.LVL91:
  96:.\Motor_Contl4_3.c ****     x[i] = y[i] + (f0[i]*hB[0] + f1[i]*hB[1]);
 756              		.loc 1 96 0
 757 03cc 099B     		ldr	r3, [sp, #36]
  97:.\Motor_Contl4_3.c ****   }
 758              		.loc 1 97 0
 759 03ce EAE90201 		strd	r0, [r10, #8]!
  96:.\Motor_Contl4_3.c ****     x[i] = y[i] + (f0[i]*hB[0] + f1[i]*hB[1]);
 760              		.loc 1 96 0
 761 03d2 9F42     		cmp	r7, r3
 762 03d4 DDF838C0 		ldr	ip, [sp, #56]
 763 03d8 DAD1     		bne	.L56
 100:.\Motor_Contl4_3.c ****   rtsiSetdX(si, f2);
 764              		.loc 1 100 0
 765 03da DDE90401 		ldrd	r0, [sp, #16]
 766 03de DFF82881 		ldr	r8, .L67+32
 108:.\Motor_Contl4_3.c ****   }
 767              		.loc 1 108 0
 768 03e2 4FF0000A 		mov	r10, #0
 100:.\Motor_Contl4_3.c ****   rtsiSetdX(si, f2);
 769              		.loc 1 100 0
 770 03e6 D8F88430 		ldr	r3, [r8, #132]
 771 03ea 1F68     		ldr	r7, [r3]
 772 03ec DDE90623 		ldrd	r2, [sp, #24]
 773 03f0 FFF7FEFF 		bl	__aeabi_dadd
 774              	.LVL92:
 101:.\Motor_Contl4_3.c ****   Motor_Contl4_3_step();
ARM GAS  C:\Users\miyag\AppData\Local\Temp\ccGJMi7G.s 			page 23


 775              		.loc 1 101 0
 776 03f4 D8F88030 		ldr	r3, [r8, #128]
 777 03f8 089A     		ldr	r2, [sp, #32]
 100:.\Motor_Contl4_3.c ****   rtsiSetdX(si, f2);
 778              		.loc 1 100 0
 779 03fa C7E90001 		strd	r0, [r7]
 101:.\Motor_Contl4_3.c ****   Motor_Contl4_3_step();
 780              		.loc 1 101 0
 781 03fe 1A60     		str	r2, [r3]
 102:.\Motor_Contl4_3.c ****   Motor_Contl4_3_derivatives();
 782              		.loc 1 102 0
 783 0400 FFF7FEFF 		bl	Motor_Contl4_3_step
 784              	.LVL93:
 103:.\Motor_Contl4_3.c **** 
 785              		.loc 1 103 0
 786 0404 FFF7FEFF 		bl	Motor_Contl4_3_derivatives
 787              	.LVL94:
 108:.\Motor_Contl4_3.c ****   }
 788              		.loc 1 108 0
 789 0408 DDE90001 		ldrd	r0, [sp]
 790 040c 36A3     		adr	r3, .L67
 791 040e D3E90023 		ldrd	r2, [r3]
 792 0412 FFF7FEFF 		bl	__aeabi_dmul
 793              	.LVL95:
 794 0416 36A3     		adr	r3, .L67+8
 795 0418 D3E90023 		ldrd	r2, [r3]
 796 041c CDE90401 		strd	r0, [sp, #16]
 797              	.LVL96:
 798 0420 DDE90001 		ldrd	r0, [sp]
 799 0424 FFF7FEFF 		bl	__aeabi_dmul
 800              	.LVL97:
 801 0428 33A3     		adr	r3, .L67+16
 802 042a D3E90023 		ldrd	r2, [r3]
 803 042e CDE90601 		strd	r0, [sp, #24]
 804              	.LVL98:
 805 0432 DDE90001 		ldrd	r0, [sp]
 806 0436 FFF7FEFF 		bl	__aeabi_dmul
 807              	.LVL99:
 808 043a 089B     		ldr	r3, [sp, #32]
 809 043c CDE90001 		strd	r0, [sp]
 810              	.LVL100:
 811 0440 A3F10807 		sub	r7, r3, #8
 812              	.LVL101:
 813              	.L57:
 112:.\Motor_Contl4_3.c ****   }
 814              		.loc 1 112 0
 815 0444 F5E90223 		ldrd	r2, [r5, #8]!
 816 0448 DDE90401 		ldrd	r0, [sp, #16]
 817 044c FFF7FEFF 		bl	__aeabi_dmul
 818              	.LVL102:
 819 0450 F6E90223 		ldrd	r2, [r6, #8]!
 820 0454 8046     		mov	r8, r0
 821 0456 8946     		mov	r9, r1
 822 0458 DDE90601 		ldrd	r0, [sp, #24]
 823 045c FFF7FEFF 		bl	__aeabi_dmul
 824              	.LVL103:
 825 0460 0246     		mov	r2, r0
ARM GAS  C:\Users\miyag\AppData\Local\Temp\ccGJMi7G.s 			page 24


 826 0462 0B46     		mov	r3, r1
 827 0464 4046     		mov	r0, r8
 828 0466 4946     		mov	r1, r9
 829 0468 FFF7FEFF 		bl	__aeabi_dadd
 830              	.LVL104:
 831 046c F7E90223 		ldrd	r2, [r7, #8]!
 832 0470 8046     		mov	r8, r0
 833 0472 8946     		mov	r9, r1
 834 0474 DDE90001 		ldrd	r0, [sp]
 835 0478 FFF7FEFF 		bl	__aeabi_dmul
 836              	.LVL105:
 837 047c 0246     		mov	r2, r0
 838 047e 0B46     		mov	r3, r1
 839 0480 4046     		mov	r0, r8
 840 0482 4946     		mov	r1, r9
 841 0484 FFF7FEFF 		bl	__aeabi_dadd
 842              	.LVL106:
 843 0488 8046     		mov	r8, r0
 844 048a 8946     		mov	r9, r1
 845 048c 029B     		ldr	r3, [sp, #8]
 846 048e 4246     		mov	r2, r8
 847 0490 F3E90201 		ldrd	r0, [r3, #8]!
 848 0494 0293     		str	r3, [sp, #8]
 849 0496 4B46     		mov	r3, r9
 850 0498 FFF7FEFF 		bl	__aeabi_dadd
 851              	.LVL107:
 111:.\Motor_Contl4_3.c ****     x[i] = y[i] + (f0[i]*hB[0] + f1[i]*hB[1] + f2[i]*hB[2]);
 852              		.loc 1 111 0
 853 049c 0AF1010A 		add	r10, r10, #1
 854              	.LVL108:
 855 04a0 BAF1040F 		cmp	r10, #4
 112:.\Motor_Contl4_3.c ****   }
 856              		.loc 1 112 0
 857 04a4 E4E90201 		strd	r0, [r4, #8]!
 111:.\Motor_Contl4_3.c ****     x[i] = y[i] + (f0[i]*hB[0] + f1[i]*hB[1] + f2[i]*hB[2]);
 858              		.loc 1 111 0
 859 04a8 CCD1     		bne	.L57
 115:.\Motor_Contl4_3.c ****   rtsiSetSimTimeStep(si,MAJOR_TIME_STEP);
 860              		.loc 1 115 0
 861 04aa DDE90A01 		ldrd	r0, [sp, #40]
 862 04ae 164B     		ldr	r3, .L67+32
 863 04b0 D3F88420 		ldr	r2, [r3, #132]
 864 04b4 1268     		ldr	r2, [r2]
 865 04b6 C2E90001 		strd	r0, [r2]
 116:.\Motor_Contl4_3.c **** }
 866              		.loc 1 116 0
 867 04ba DA68     		ldr	r2, [r3, #12]
 868 04bc 0121     		movs	r1, #1
 869 04be 1170     		strb	r1, [r2]
 870              	.LBE5:
 871              	.LBE4:
 286:.\Motor_Contl4_3.c ****     Motor_Contl4_3_M->Timing.t[0] = rtsiGetSolverStopTime
 872              		.loc 1 286 0
 873 04c0 D3F89821 		ldr	r2, [r3, #408]
 874 04c4 0A44     		add	r2, r2, r1
 875 04c6 C3F89821 		str	r2, [r3, #408]
 287:.\Motor_Contl4_3.c ****       (&Motor_Contl4_3_M->solverInfo);
ARM GAS  C:\Users\miyag\AppData\Local\Temp\ccGJMi7G.s 			page 25


 876              		.loc 1 287 0
 877 04ca D3F8B021 		ldr	r2, [r3, #432]
 878 04ce D3E90801 		ldrd	r0, [r3, #32]
 879 04d2 C2E90001 		strd	r0, [r2]
 297:.\Motor_Contl4_3.c ****     }
 880              		.loc 1 297 0
 881 04d6 D3F8A821 		ldr	r2, [r3, #424]
 882 04da 0132     		adds	r2, r2, #1
 883 04dc C3F8A821 		str	r2, [r3, #424]
 884              	.LVL109:
 885              	.L46:
 300:.\Motor_Contl4_3.c **** 
 886              		.loc 1 300 0
 887 04e0 11B0     		add	sp, sp, #68
 888              		.cfi_def_cfa_offset 36
 889              		@ sp needed
 890 04e2 BDE8F08F 		pop	{r4, r5, r6, r7, r8, r9, r10, fp, pc}
 891              	.L68:
 892 04e6 00BF     		.align	3
 893              	.L67:
 894 04e8 1CC7711C 		.word	477218588
 895 04ec C771CC3F 		.word	1070363079
 896 04f0 55555555 		.word	1431655765
 897 04f4 5555D53F 		.word	1070945621
 898 04f8 1CC7711C 		.word	477218588
 899 04fc C771DC3F 		.word	1071411655
 900 0500 0000E03F 		.word	1071644672
 901 0504 0000E83F 		.word	1072168960
 902 0508 00000000 		.word	Motor_Contl4_3_M_
 903              		.cfi_endproc
 904              	.LFE1:
 905              		.size	Motor_Contl4_3_step, .-Motor_Contl4_3_step
 906 050c AFF30080 		.section	.text.Motor_Contl4_3_initialize,"ax",%progbits
 907              		.align	1
 908              		.global	Motor_Contl4_3_initialize
 909              		.thumb
 910              		.thumb_func
 911              		.type	Motor_Contl4_3_initialize, %function
 912              	Motor_Contl4_3_initialize:
 913              	.LFB3:
 353:.\Motor_Contl4_3.c **** 
 354:.\Motor_Contl4_3.c ****     }
 355:.\Motor_Contl4_3.c ****   
 356:.\Motor_Contl4_3.c ****   /* Derivatives for Integrator: '<S4>/Integrator1' */
 357:.\Motor_Contl4_3.c **** }
 358:.\Motor_Contl4_3.c **** 
 359:.\Motor_Contl4_3.c **** /* Model initialize function */
 360:.\Motor_Contl4_3.c **** void Motor_Contl4_3_initialize(void)
 361:.\Motor_Contl4_3.c **** {
 914              		.loc 1 361 0
 915              		.cfi_startproc
 916              		@ args = 0, pretend = 0, frame = 0
 917              		@ frame_needed = 0, uses_anonymous_args = 0
 918 0000 38B5     		push	{r3, r4, r5, lr}
 919              		.cfi_def_cfa_offset 16
 920              		.cfi_offset 3, -16
 921              		.cfi_offset 4, -12
ARM GAS  C:\Users\miyag\AppData\Local\Temp\ccGJMi7G.s 			page 26


 922              		.cfi_offset 5, -8
 923              		.cfi_offset 14, -4
 362:.\Motor_Contl4_3.c ****   /* Registration code */
 363:.\Motor_Contl4_3.c **** 
 364:.\Motor_Contl4_3.c ****   /* initialize real-time model */
 365:.\Motor_Contl4_3.c ****   (void) memset((void *)Motor_Contl4_3_M, 0,
 924              		.loc 1 365 0
 925 0002 354C     		ldr	r4, .L70
 926 0004 0021     		movs	r1, #0
 927 0006 2046     		mov	r0, r4
 928 0008 4FF4E472 		mov	r2, #456
 929 000c FFF7FEFF 		bl	memset
 930              	.LVL110:
 366:.\Motor_Contl4_3.c ****                 sizeof(RT_MODEL_Motor_Contl4_3));
 367:.\Motor_Contl4_3.c **** 
 368:.\Motor_Contl4_3.c ****   {
 369:.\Motor_Contl4_3.c ****     /* Setup solver object */
 370:.\Motor_Contl4_3.c ****     rtsiSetSimTimeStepPtr(&Motor_Contl4_3_M->solverInfo,
 371:.\Motor_Contl4_3.c ****                           &Motor_Contl4_3_M->Timing.simTimeStep);
 372:.\Motor_Contl4_3.c ****     rtsiSetTPtr(&Motor_Contl4_3_M->solverInfo, &rtmGetTPtr(Motor_Contl4_3_M));
 373:.\Motor_Contl4_3.c ****     rtsiSetStepSizePtr(&Motor_Contl4_3_M->solverInfo,
 374:.\Motor_Contl4_3.c ****                        &Motor_Contl4_3_M->Timing.stepSize0);
 375:.\Motor_Contl4_3.c ****     rtsiSetdXPtr(&Motor_Contl4_3_M->solverInfo,
 931              		.loc 1 375 0
 932 0010 04F1F402 		add	r2, r4, #244
 933 0014 C4F88020 		str	r2, [r4, #128]
 376:.\Motor_Contl4_3.c ****                  &Motor_Contl4_3_M->ModelData.derivs);
 377:.\Motor_Contl4_3.c ****     rtsiSetContStatesPtr(&Motor_Contl4_3_M->solverInfo,
 934              		.loc 1 377 0
 935 0018 04F1F002 		add	r2, r4, #240
 936 001c C4F88C20 		str	r2, [r4, #140]
 378:.\Motor_Contl4_3.c ****                          &Motor_Contl4_3_M->ModelData.contStates);
 379:.\Motor_Contl4_3.c ****     rtsiSetNumContStatesPtr(&Motor_Contl4_3_M->solverInfo,
 937              		.loc 1 379 0
 938 0020 04F5C872 		add	r2, r4, #400
 939 0024 C4F88820 		str	r2, [r4, #136]
 380:.\Motor_Contl4_3.c ****       &Motor_Contl4_3_M->Sizes.numContStates);
 381:.\Motor_Contl4_3.c ****     rtsiSetErrorStatusPtr(&Motor_Contl4_3_M->solverInfo, ((const char_T **)
 382:.\Motor_Contl4_3.c ****       (&rtmGetErrorStatus(Motor_Contl4_3_M))));
 383:.\Motor_Contl4_3.c ****     rtsiSetRTModelPtr(&Motor_Contl4_3_M->solverInfo, Motor_Contl4_3_M);
 384:.\Motor_Contl4_3.c ****   }
 385:.\Motor_Contl4_3.c **** 
 386:.\Motor_Contl4_3.c ****   rtsiSetSimTimeStep(&Motor_Contl4_3_M->solverInfo, MAJOR_TIME_STEP);
 940              		.loc 1 386 0
 941 0028 0122     		movs	r2, #1
 942 002a 84F8AC21 		strb	r2, [r4, #428]
 387:.\Motor_Contl4_3.c ****   Motor_Contl4_3_M->ModelData.intgData.y = Motor_Contl4_3_M->ModelData.odeY;
 943              		.loc 1 387 0
 944 002e 04F58072 		add	r2, r4, #256
 945 0032 C4F88021 		str	r2, [r4, #384]
 388:.\Motor_Contl4_3.c ****   Motor_Contl4_3_M->ModelData.intgData.f[0] = Motor_Contl4_3_M->ModelData.odeF[0];
 946              		.loc 1 388 0
 947 0036 04F59072 		add	r2, r4, #288
 948 003a C4F88421 		str	r2, [r4, #388]
 389:.\Motor_Contl4_3.c ****   Motor_Contl4_3_M->ModelData.intgData.f[1] = Motor_Contl4_3_M->ModelData.odeF[1];
 949              		.loc 1 389 0
 950 003e 04F5A072 		add	r2, r4, #320
ARM GAS  C:\Users\miyag\AppData\Local\Temp\ccGJMi7G.s 			page 27


 951 0042 C4F88821 		str	r2, [r4, #392]
 390:.\Motor_Contl4_3.c ****   Motor_Contl4_3_M->ModelData.intgData.f[2] = Motor_Contl4_3_M->ModelData.odeF[2];
 952              		.loc 1 390 0
 953 0046 04F5B072 		add	r2, r4, #352
 954 004a C4F88C21 		str	r2, [r4, #396]
 391:.\Motor_Contl4_3.c ****   Motor_Contl4_3_M->ModelData.contStates = ((real_T *) &Motor_Contl4_3_X);
 392:.\Motor_Contl4_3.c ****   rtsiSetSolverData(&Motor_Contl4_3_M->solverInfo, (void *)
 955              		.loc 1 392 0
 956 004e 04F5C072 		add	r2, r4, #384
 370:.\Motor_Contl4_3.c ****                           &Motor_Contl4_3_M->Timing.simTimeStep);
 957              		.loc 1 370 0
 958 0052 04F5D673 		add	r3, r4, #428
 959              		.loc 1 392 0
 960 0056 2261     		str	r2, [r4, #16]
 393:.\Motor_Contl4_3.c ****                     &Motor_Contl4_3_M->ModelData.intgData);
 394:.\Motor_Contl4_3.c ****   rtsiSetSolverName(&Motor_Contl4_3_M->solverInfo,"ode3");
 961              		.loc 1 394 0
 962 0058 204A     		ldr	r2, .L70+4
 391:.\Motor_Contl4_3.c ****   rtsiSetSolverData(&Motor_Contl4_3_M->solverInfo, (void *)
 963              		.loc 1 391 0
 964 005a 214D     		ldr	r5, .L70+8
 370:.\Motor_Contl4_3.c ****                           &Motor_Contl4_3_M->Timing.simTimeStep);
 965              		.loc 1 370 0
 966 005c E360     		str	r3, [r4, #12]
 372:.\Motor_Contl4_3.c ****     rtsiSetStepSizePtr(&Motor_Contl4_3_M->solverInfo,
 967              		.loc 1 372 0
 968 005e 04F5D873 		add	r3, r4, #432
 969 0062 C4F88430 		str	r3, [r4, #132]
 970              		.loc 1 394 0
 971 0066 6261     		str	r2, [r4, #20]
 373:.\Motor_Contl4_3.c ****                        &Motor_Contl4_3_M->Timing.stepSize0);
 972              		.loc 1 373 0
 973 0068 04F5D073 		add	r3, r4, #416
 395:.\Motor_Contl4_3.c ****   rtmSetTPtr(Motor_Contl4_3_M, &Motor_Contl4_3_M->Timing.tArray[0]);
 974              		.loc 1 395 0
 975 006c 04F5DC72 		add	r2, r4, #440
 396:.\Motor_Contl4_3.c ****   Motor_Contl4_3_M->Timing.stepSize0 = 0.0625;
 976              		.loc 1 396 0
 977 0070 1C49     		ldr	r1, .L70+12
 373:.\Motor_Contl4_3.c ****                        &Motor_Contl4_3_M->Timing.stepSize0);
 978              		.loc 1 373 0
 979 0072 A362     		str	r3, [r4, #40]
 395:.\Motor_Contl4_3.c ****   rtmSetTPtr(Motor_Contl4_3_M, &Motor_Contl4_3_M->Timing.tArray[0]);
 980              		.loc 1 395 0
 981 0074 C4F8B021 		str	r2, [r4, #432]
 381:.\Motor_Contl4_3.c ****       (&rtmGetErrorStatus(Motor_Contl4_3_M))));
 982              		.loc 1 381 0
 983 0078 C4F8C840 		str	r4, [r4, #200]
 383:.\Motor_Contl4_3.c ****   }
 984              		.loc 1 383 0
 985 007c A460     		str	r4, [r4, #8]
 391:.\Motor_Contl4_3.c ****   rtsiSetSolverData(&Motor_Contl4_3_M->solverInfo, (void *)
 986              		.loc 1 391 0
 987 007e C4F8F050 		str	r5, [r4, #240]
 988              		.loc 1 396 0
 989 0082 0020     		movs	r0, #0
 397:.\Motor_Contl4_3.c **** 
ARM GAS  C:\Users\miyag\AppData\Local\Temp\ccGJMi7G.s 			page 28


 398:.\Motor_Contl4_3.c ****   /* block I/O */
 399:.\Motor_Contl4_3.c ****   (void) memset((void *)&Motor_Contl4_3_B, 0,
 990              		.loc 1 399 0
 991 0084 2024     		movs	r4, #32
 396:.\Motor_Contl4_3.c **** 
 992              		.loc 1 396 0
 993 0086 C3E90001 		strd	r0, [r3]
 994              		.loc 1 399 0
 995 008a 2246     		mov	r2, r4
 996 008c 0021     		movs	r1, #0
 997 008e 1648     		ldr	r0, .L70+16
 998 0090 FFF7FEFF 		bl	memset
 999              	.LVL111:
 400:.\Motor_Contl4_3.c ****                 sizeof(BlockIO_Motor_Contl4_3));
 401:.\Motor_Contl4_3.c **** 
 402:.\Motor_Contl4_3.c ****   /* states (continuous) */
 403:.\Motor_Contl4_3.c ****   {
 404:.\Motor_Contl4_3.c ****     (void) memset((void *)&Motor_Contl4_3_X, 0,
 1000              		.loc 1 404 0
 1001 0094 2246     		mov	r2, r4
 1002 0096 0021     		movs	r1, #0
 405:.\Motor_Contl4_3.c ****                   sizeof(ContinuousStates_Motor_Contl4_3));
 406:.\Motor_Contl4_3.c ****   }
 407:.\Motor_Contl4_3.c **** 
 408:.\Motor_Contl4_3.c ****   /* external inputs */
 409:.\Motor_Contl4_3.c ****   (void) memset((void *)&Motor_Contl4_3_U, 0,
 1003              		.loc 1 409 0
 1004 0098 4024     		movs	r4, #64
 404:.\Motor_Contl4_3.c ****                   sizeof(ContinuousStates_Motor_Contl4_3));
 1005              		.loc 1 404 0
 1006 009a 2846     		mov	r0, r5
 1007 009c FFF7FEFF 		bl	memset
 1008              	.LVL112:
 1009              		.loc 1 409 0
 1010 00a0 0021     		movs	r1, #0
 1011 00a2 2246     		mov	r2, r4
 1012 00a4 1148     		ldr	r0, .L70+20
 1013 00a6 FFF7FEFF 		bl	memset
 1014              	.LVL113:
 410:.\Motor_Contl4_3.c ****                 sizeof(ExternalInputs_Motor_Contl4_3));
 411:.\Motor_Contl4_3.c **** 
 412:.\Motor_Contl4_3.c ****   /* external outputs */
 413:.\Motor_Contl4_3.c ****   (void) memset((void *)&Motor_Contl4_3_Y, 0,
 1015              		.loc 1 413 0
 1016 00aa 0021     		movs	r1, #0
 1017 00ac 2246     		mov	r2, r4
 1018 00ae 1048     		ldr	r0, .L70+24
 1019 00b0 FFF7FEFF 		bl	memset
 1020              	.LVL114:
 414:.\Motor_Contl4_3.c ****                 sizeof(ExternalOutputs_Motor_Contl4_3));
 415:.\Motor_Contl4_3.c **** 
 416:.\Motor_Contl4_3.c ****   /* InitializeConditions for Integrator: '<S1>/Integrator1' */
 417:.\Motor_Contl4_3.c ****   Motor_Contl4_3_X.Integrator1_CSTATE = Motor_Contl4_3_P.Integrator1_IC;
 1021              		.loc 1 417 0
 1022 00b4 0F4B     		ldr	r3, .L70+28
 1023 00b6 D3E90001 		ldrd	r0, [r3]
 1024 00ba C5E90001 		strd	r0, [r5]
ARM GAS  C:\Users\miyag\AppData\Local\Temp\ccGJMi7G.s 			page 29


 418:.\Motor_Contl4_3.c **** 
 419:.\Motor_Contl4_3.c ****   /* InitializeConditions for Integrator: '<S2>/Integrator1' */
 420:.\Motor_Contl4_3.c ****   Motor_Contl4_3_X.Integrator1_CSTATE_h = Motor_Contl4_3_P.Integrator1_IC_i;
 1025              		.loc 1 420 0
 1026 00be D3E90A01 		ldrd	r0, [r3, #40]
 1027 00c2 C5E90201 		strd	r0, [r5, #8]
 421:.\Motor_Contl4_3.c **** 
 422:.\Motor_Contl4_3.c ****   /* InitializeConditions for Integrator: '<S3>/Integrator1' */
 423:.\Motor_Contl4_3.c ****   Motor_Contl4_3_X.Integrator1_CSTATE_l = Motor_Contl4_3_P.Integrator1_IC_p;
 1028              		.loc 1 423 0
 1029 00c6 D3E91401 		ldrd	r0, [r3, #80]
 424:.\Motor_Contl4_3.c **** 
 425:.\Motor_Contl4_3.c ****   /* InitializeConditions for Integrator: '<S4>/Integrator1' */
 426:.\Motor_Contl4_3.c ****   Motor_Contl4_3_X.Integrator1_CSTATE_g = Motor_Contl4_3_P.Integrator1_IC_ik;
 1030              		.loc 1 426 0
 1031 00ca D3E91E23 		ldrd	r2, [r3, #120]
 423:.\Motor_Contl4_3.c **** 
 1032              		.loc 1 423 0
 1033 00ce C5E90401 		strd	r0, [r5, #16]
 1034              		.loc 1 426 0
 1035 00d2 C5E90623 		strd	r2, [r5, #24]
 1036 00d6 38BD     		pop	{r3, r4, r5, pc}
 1037              	.L71:
 1038              		.align	2
 1039              	.L70:
 1040 00d8 00000000 		.word	Motor_Contl4_3_M_
 1041 00dc 00000000 		.word	.LC0
 1042 00e0 00000000 		.word	Motor_Contl4_3_X
 1043 00e4 0000B03F 		.word	1068498944
 1044 00e8 00000000 		.word	Motor_Contl4_3_B
 1045 00ec 00000000 		.word	Motor_Contl4_3_U
 1046 00f0 00000000 		.word	Motor_Contl4_3_Y
 1047 00f4 00000000 		.word	Motor_Contl4_3_P
 1048              		.cfi_endproc
 1049              	.LFE3:
 1050              		.size	Motor_Contl4_3_initialize, .-Motor_Contl4_3_initialize
 1051              		.section	.text.Motor_Contl4_3_terminate,"ax",%progbits
 1052              		.align	1
 1053              		.global	Motor_Contl4_3_terminate
 1054              		.thumb
 1055              		.thumb_func
 1056              		.type	Motor_Contl4_3_terminate, %function
 1057              	Motor_Contl4_3_terminate:
 1058              	.LFB4:
 427:.\Motor_Contl4_3.c **** }
 428:.\Motor_Contl4_3.c **** 
 429:.\Motor_Contl4_3.c **** /* Model terminate function */
 430:.\Motor_Contl4_3.c **** void Motor_Contl4_3_terminate(void)
 431:.\Motor_Contl4_3.c **** {
 1059              		.loc 1 431 0
 1060              		.cfi_startproc
 1061              		@ args = 0, pretend = 0, frame = 0
 1062              		@ frame_needed = 0, uses_anonymous_args = 0
 1063              		@ link register save eliminated.
 1064 0000 7047     		bx	lr
 1065              		.cfi_endproc
 1066              	.LFE4:
ARM GAS  C:\Users\miyag\AppData\Local\Temp\ccGJMi7G.s 			page 30


 1067              		.size	Motor_Contl4_3_terminate, .-Motor_Contl4_3_terminate
 1068              		.global	Motor_Contl4_3_M
 1069              		.comm	Motor_Contl4_3_M_,456,8
 1070              		.comm	Motor_Contl4_3_Y,64,8
 1071              		.comm	Motor_Contl4_3_U,64,8
 1072              		.comm	Motor_Contl4_3_X,32,8
 1073              		.comm	Motor_Contl4_3_B,32,8
 1074              		.section	.rodata
 1075              		.align	2
 1076              		.type	Motor_Contl4_3_M, %object
 1077              		.size	Motor_Contl4_3_M, 4
 1078              	Motor_Contl4_3_M:
 1079 0000 00000000 		.word	Motor_Contl4_3_M_
 1080              		.section	.rodata.str1.1,"aMS",%progbits,1
 1081              	.LC0:
 1082 0000 6F646533 		.ascii	"ode3\000"
 1082      00
 1083              		.text
 1084              	.Letext0:
 1085              		.file 2 ".\\rtwtypes.h"
 1086              		.file 3 ".\\rtw_continuous.h"
 1087              		.file 4 ".\\rtw_solver.h"
 1088              		.file 5 ".\\Motor_Contl4_3_types.h"
 1089              		.file 6 ".\\Motor_Contl4_3.h"