ARM GAS  C:\Users\miyag\AppData\Local\Temp\ccMogLpV.s 			page 1


   1              		.syntax unified
   2              		.cpu cortex-m3
   3              		.fpu softvfp
   4              		.eabi_attribute 20, 1
   5              		.eabi_attribute 21, 1
   6              		.eabi_attribute 23, 3
   7              		.eabi_attribute 24, 1
   8              		.eabi_attribute 25, 1
   9              		.eabi_attribute 26, 1
  10              		.eabi_attribute 30, 4
  11              		.eabi_attribute 34, 1
  12              		.eabi_attribute 18, 4
  13              		.thumb
  14              		.file	"P_out.c"
  15              		.text
  16              	.Ltext0:
  17              		.cfi_sections	.debug_frame
  18              		.section	.text.P_out_Write,"ax",%progbits
  19              		.align	1
  20              		.global	P_out_Write
  21              		.thumb
  22              		.thumb_func
  23              		.type	P_out_Write, %function
  24              	P_out_Write:
  25              	.LFB0:
  26              		.file 1 ".\\Generated_Source\\PSoC5\\P_out.c"
   1:.\Generated_Source\PSoC5/P_out.c **** /*******************************************************************************
   2:.\Generated_Source\PSoC5/P_out.c **** * File Name: P_out.c  
   3:.\Generated_Source\PSoC5/P_out.c **** * Version 2.20
   4:.\Generated_Source\PSoC5/P_out.c **** *
   5:.\Generated_Source\PSoC5/P_out.c **** * Description:
   6:.\Generated_Source\PSoC5/P_out.c **** *  This file contains API to enable firmware control of a Pins component.
   7:.\Generated_Source\PSoC5/P_out.c **** *
   8:.\Generated_Source\PSoC5/P_out.c **** * Note:
   9:.\Generated_Source\PSoC5/P_out.c **** *
  10:.\Generated_Source\PSoC5/P_out.c **** ********************************************************************************
  11:.\Generated_Source\PSoC5/P_out.c **** * Copyright 2008-2015, Cypress Semiconductor Corporation.  All rights reserved.
  12:.\Generated_Source\PSoC5/P_out.c **** * You may use this file only in accordance with the license, terms, conditions, 
  13:.\Generated_Source\PSoC5/P_out.c **** * disclaimers, and limitations in the end user license agreement accompanying 
  14:.\Generated_Source\PSoC5/P_out.c **** * the software package with which this file was provided.
  15:.\Generated_Source\PSoC5/P_out.c **** *******************************************************************************/
  16:.\Generated_Source\PSoC5/P_out.c **** 
  17:.\Generated_Source\PSoC5/P_out.c **** #include "cytypes.h"
  18:.\Generated_Source\PSoC5/P_out.c **** #include "P_out.h"
  19:.\Generated_Source\PSoC5/P_out.c **** 
  20:.\Generated_Source\PSoC5/P_out.c **** /* APIs are not generated for P15[7:6] on PSoC 5 */
  21:.\Generated_Source\PSoC5/P_out.c **** #if !(CY_PSOC5A &&\
  22:.\Generated_Source\PSoC5/P_out.c **** 	 P_out__PORT == 15 && ((P_out__MASK & 0xC0) != 0))
  23:.\Generated_Source\PSoC5/P_out.c **** 
  24:.\Generated_Source\PSoC5/P_out.c **** 
  25:.\Generated_Source\PSoC5/P_out.c **** /*******************************************************************************
  26:.\Generated_Source\PSoC5/P_out.c **** * Function Name: P_out_Write
  27:.\Generated_Source\PSoC5/P_out.c **** ****************************************************************************//**
  28:.\Generated_Source\PSoC5/P_out.c **** *
  29:.\Generated_Source\PSoC5/P_out.c **** * \brief Writes the value to the physical port (data output register), masking
  30:.\Generated_Source\PSoC5/P_out.c **** *  and shifting the bits appropriately. 
  31:.\Generated_Source\PSoC5/P_out.c **** *
ARM GAS  C:\Users\miyag\AppData\Local\Temp\ccMogLpV.s 			page 2


  32:.\Generated_Source\PSoC5/P_out.c **** * The data output register controls the signal applied to the physical pin in 
  33:.\Generated_Source\PSoC5/P_out.c **** * conjunction with the drive mode parameter. This function avoids changing 
  34:.\Generated_Source\PSoC5/P_out.c **** * other bits in the port by using the appropriate method (read-modify-write or
  35:.\Generated_Source\PSoC5/P_out.c **** * bit banding).
  36:.\Generated_Source\PSoC5/P_out.c **** *
  37:.\Generated_Source\PSoC5/P_out.c **** * <b>Note</b> This function should not be used on a hardware digital output pin 
  38:.\Generated_Source\PSoC5/P_out.c **** * as it is driven by the hardware signal attached to it.
  39:.\Generated_Source\PSoC5/P_out.c **** *
  40:.\Generated_Source\PSoC5/P_out.c **** * \param value
  41:.\Generated_Source\PSoC5/P_out.c **** *  Value to write to the component instance.
  42:.\Generated_Source\PSoC5/P_out.c **** *
  43:.\Generated_Source\PSoC5/P_out.c **** * \return 
  44:.\Generated_Source\PSoC5/P_out.c **** *  None 
  45:.\Generated_Source\PSoC5/P_out.c **** *
  46:.\Generated_Source\PSoC5/P_out.c **** * \sideeffect
  47:.\Generated_Source\PSoC5/P_out.c **** *  If you use read-modify-write operations that are not atomic; the Interrupt 
  48:.\Generated_Source\PSoC5/P_out.c **** *  Service Routines (ISR) can cause corruption of this function. An ISR that 
  49:.\Generated_Source\PSoC5/P_out.c **** *  interrupts this function and performs writes to the Pins component data 
  50:.\Generated_Source\PSoC5/P_out.c **** *  register can cause corrupted port data. To avoid this issue, you should 
  51:.\Generated_Source\PSoC5/P_out.c **** *  either use the Per-Pin APIs (primary method) or disable interrupts around 
  52:.\Generated_Source\PSoC5/P_out.c **** *  this function.
  53:.\Generated_Source\PSoC5/P_out.c **** *
  54:.\Generated_Source\PSoC5/P_out.c **** * \funcusage
  55:.\Generated_Source\PSoC5/P_out.c **** *  \snippet P_out_SUT.c usage_P_out_Write
  56:.\Generated_Source\PSoC5/P_out.c **** *******************************************************************************/
  57:.\Generated_Source\PSoC5/P_out.c **** void P_out_Write(uint8 value)
  58:.\Generated_Source\PSoC5/P_out.c **** {
  27              		.loc 1 58 0
  28              		.cfi_startproc
  29              		@ args = 0, pretend = 0, frame = 0
  30              		@ frame_needed = 0, uses_anonymous_args = 0
  31              		@ link register save eliminated.
  32              	.LVL0:
  59:.\Generated_Source\PSoC5/P_out.c ****     uint8 staticBits = (P_out_DR & (uint8)(~P_out_MASK));
  33              		.loc 1 59 0
  34 0000 044A     		ldr	r2, .L2
  35 0002 1378     		ldrb	r3, [r2]	@ zero_extendqisi2
  36              	.LVL1:
  37 0004 03F00F03 		and	r3, r3, #15
  38              	.LVL2:
  60:.\Generated_Source\PSoC5/P_out.c ****     P_out_DR = staticBits | ((uint8)(value << P_out_SHIFT) & P_out_MASK);
  39              		.loc 1 60 0
  40 0008 43EA0010 		orr	r0, r3, r0, lsl #4
  41              	.LVL3:
  42 000c C0B2     		uxtb	r0, r0
  43 000e 1070     		strb	r0, [r2]
  44 0010 7047     		bx	lr
  45              	.L3:
  46 0012 00BF     		.align	2
  47              	.L2:
  48 0014 20510040 		.word	1073762592
  49              		.cfi_endproc
  50              	.LFE0:
  51              		.size	P_out_Write, .-P_out_Write
  52              		.section	.text.P_out_SetDriveMode,"ax",%progbits
  53              		.align	1
  54              		.global	P_out_SetDriveMode
ARM GAS  C:\Users\miyag\AppData\Local\Temp\ccMogLpV.s 			page 3


  55              		.thumb
  56              		.thumb_func
  57              		.type	P_out_SetDriveMode, %function
  58              	P_out_SetDriveMode:
  59              	.LFB1:
  61:.\Generated_Source\PSoC5/P_out.c **** }
  62:.\Generated_Source\PSoC5/P_out.c **** 
  63:.\Generated_Source\PSoC5/P_out.c **** 
  64:.\Generated_Source\PSoC5/P_out.c **** /*******************************************************************************
  65:.\Generated_Source\PSoC5/P_out.c **** * Function Name: P_out_SetDriveMode
  66:.\Generated_Source\PSoC5/P_out.c **** ****************************************************************************//**
  67:.\Generated_Source\PSoC5/P_out.c **** *
  68:.\Generated_Source\PSoC5/P_out.c **** * \brief Sets the drive mode for each of the Pins component's pins.
  69:.\Generated_Source\PSoC5/P_out.c **** * 
  70:.\Generated_Source\PSoC5/P_out.c **** * <b>Note</b> This affects all pins in the Pins component instance. Use the
  71:.\Generated_Source\PSoC5/P_out.c **** * Per-Pin APIs if you wish to control individual pin's drive modes.
  72:.\Generated_Source\PSoC5/P_out.c **** *
  73:.\Generated_Source\PSoC5/P_out.c **** * \param mode
  74:.\Generated_Source\PSoC5/P_out.c **** *  Mode for the selected signals. Valid options are documented in 
  75:.\Generated_Source\PSoC5/P_out.c **** *  \ref driveMode.
  76:.\Generated_Source\PSoC5/P_out.c **** *
  77:.\Generated_Source\PSoC5/P_out.c **** * \return
  78:.\Generated_Source\PSoC5/P_out.c **** *  None
  79:.\Generated_Source\PSoC5/P_out.c **** *
  80:.\Generated_Source\PSoC5/P_out.c **** * \sideeffect
  81:.\Generated_Source\PSoC5/P_out.c **** *  If you use read-modify-write operations that are not atomic, the ISR can
  82:.\Generated_Source\PSoC5/P_out.c **** *  cause corruption of this function. An ISR that interrupts this function 
  83:.\Generated_Source\PSoC5/P_out.c **** *  and performs writes to the Pins component Drive Mode registers can cause 
  84:.\Generated_Source\PSoC5/P_out.c **** *  corrupted port data. To avoid this issue, you should either use the Per-Pin
  85:.\Generated_Source\PSoC5/P_out.c **** *  APIs (primary method) or disable interrupts around this function.
  86:.\Generated_Source\PSoC5/P_out.c **** *
  87:.\Generated_Source\PSoC5/P_out.c **** * \funcusage
  88:.\Generated_Source\PSoC5/P_out.c **** *  \snippet P_out_SUT.c usage_P_out_SetDriveMode
  89:.\Generated_Source\PSoC5/P_out.c **** *******************************************************************************/
  90:.\Generated_Source\PSoC5/P_out.c **** void P_out_SetDriveMode(uint8 mode)
  91:.\Generated_Source\PSoC5/P_out.c **** {
  60              		.loc 1 91 0
  61              		.cfi_startproc
  62              		@ args = 0, pretend = 0, frame = 0
  63              		@ frame_needed = 0, uses_anonymous_args = 0
  64              		@ link register save eliminated.
  65              	.LVL4:
  92:.\Generated_Source\PSoC5/P_out.c **** 	CyPins_SetPinDriveMode(P_out_0, mode);
  66              		.loc 1 92 0
  67 0000 0B4A     		ldr	r2, .L5
  68 0002 00F00E00 		and	r0, r0, #14
  69              	.LVL5:
  70 0006 1378     		ldrb	r3, [r2]	@ zero_extendqisi2
  71 0008 03F0F103 		and	r3, r3, #241
  72 000c 0343     		orrs	r3, r3, r0
  73 000e 1370     		strb	r3, [r2]
  93:.\Generated_Source\PSoC5/P_out.c **** 	CyPins_SetPinDriveMode(P_out_1, mode);
  74              		.loc 1 93 0
  75 0010 5378     		ldrb	r3, [r2, #1]	@ zero_extendqisi2
  76 0012 03F0F103 		and	r3, r3, #241
  77 0016 0343     		orrs	r3, r3, r0
  78 0018 5370     		strb	r3, [r2, #1]
ARM GAS  C:\Users\miyag\AppData\Local\Temp\ccMogLpV.s 			page 4


  94:.\Generated_Source\PSoC5/P_out.c **** 	CyPins_SetPinDriveMode(P_out_2, mode);
  79              		.loc 1 94 0
  80 001a 9378     		ldrb	r3, [r2, #2]	@ zero_extendqisi2
  81 001c 03F0F103 		and	r3, r3, #241
  82 0020 0343     		orrs	r3, r3, r0
  83 0022 9370     		strb	r3, [r2, #2]
  95:.\Generated_Source\PSoC5/P_out.c **** 	CyPins_SetPinDriveMode(P_out_3, mode);
  84              		.loc 1 95 0
  85 0024 D378     		ldrb	r3, [r2, #3]	@ zero_extendqisi2
  86 0026 03F0F103 		and	r3, r3, #241
  87 002a 1843     		orrs	r0, r0, r3
  88 002c D070     		strb	r0, [r2, #3]
  89 002e 7047     		bx	lr
  90              	.L6:
  91              		.align	2
  92              	.L5:
  93 0030 14500040 		.word	1073762324
  94              		.cfi_endproc
  95              	.LFE1:
  96              		.size	P_out_SetDriveMode, .-P_out_SetDriveMode
  97              		.section	.text.P_out_Read,"ax",%progbits
  98              		.align	1
  99              		.global	P_out_Read
 100              		.thumb
 101              		.thumb_func
 102              		.type	P_out_Read, %function
 103              	P_out_Read:
 104              	.LFB2:
  96:.\Generated_Source\PSoC5/P_out.c **** }
  97:.\Generated_Source\PSoC5/P_out.c **** 
  98:.\Generated_Source\PSoC5/P_out.c **** 
  99:.\Generated_Source\PSoC5/P_out.c **** /*******************************************************************************
 100:.\Generated_Source\PSoC5/P_out.c **** * Function Name: P_out_Read
 101:.\Generated_Source\PSoC5/P_out.c **** ****************************************************************************//**
 102:.\Generated_Source\PSoC5/P_out.c **** *
 103:.\Generated_Source\PSoC5/P_out.c **** * \brief Reads the associated physical port (pin status register) and masks 
 104:.\Generated_Source\PSoC5/P_out.c **** *  the required bits according to the width and bit position of the component
 105:.\Generated_Source\PSoC5/P_out.c **** *  instance. 
 106:.\Generated_Source\PSoC5/P_out.c **** *
 107:.\Generated_Source\PSoC5/P_out.c **** * The pin's status register returns the current logic level present on the 
 108:.\Generated_Source\PSoC5/P_out.c **** * physical pin.
 109:.\Generated_Source\PSoC5/P_out.c **** *
 110:.\Generated_Source\PSoC5/P_out.c **** * \return 
 111:.\Generated_Source\PSoC5/P_out.c **** *  The current value for the pins in the component as a right justified number.
 112:.\Generated_Source\PSoC5/P_out.c **** *
 113:.\Generated_Source\PSoC5/P_out.c **** * \funcusage
 114:.\Generated_Source\PSoC5/P_out.c **** *  \snippet P_out_SUT.c usage_P_out_Read  
 115:.\Generated_Source\PSoC5/P_out.c **** *******************************************************************************/
 116:.\Generated_Source\PSoC5/P_out.c **** uint8 P_out_Read(void)
 117:.\Generated_Source\PSoC5/P_out.c **** {
 105              		.loc 1 117 0
 106              		.cfi_startproc
 107              		@ args = 0, pretend = 0, frame = 0
 108              		@ frame_needed = 0, uses_anonymous_args = 0
 109              		@ link register save eliminated.
 118:.\Generated_Source\PSoC5/P_out.c ****     return (P_out_PS & P_out_MASK) >> P_out_SHIFT;
 110              		.loc 1 118 0
ARM GAS  C:\Users\miyag\AppData\Local\Temp\ccMogLpV.s 			page 5


 111 0000 014B     		ldr	r3, .L8
 112 0002 1878     		ldrb	r0, [r3]	@ zero_extendqisi2
 119:.\Generated_Source\PSoC5/P_out.c **** }
 113              		.loc 1 119 0
 114 0004 0009     		lsrs	r0, r0, #4
 115 0006 7047     		bx	lr
 116              	.L9:
 117              		.align	2
 118              	.L8:
 119 0008 21510040 		.word	1073762593
 120              		.cfi_endproc
 121              	.LFE2:
 122              		.size	P_out_Read, .-P_out_Read
 123              		.section	.text.P_out_ReadDataReg,"ax",%progbits
 124              		.align	1
 125              		.global	P_out_ReadDataReg
 126              		.thumb
 127              		.thumb_func
 128              		.type	P_out_ReadDataReg, %function
 129              	P_out_ReadDataReg:
 130              	.LFB3:
 120:.\Generated_Source\PSoC5/P_out.c **** 
 121:.\Generated_Source\PSoC5/P_out.c **** 
 122:.\Generated_Source\PSoC5/P_out.c **** /*******************************************************************************
 123:.\Generated_Source\PSoC5/P_out.c **** * Function Name: P_out_ReadDataReg
 124:.\Generated_Source\PSoC5/P_out.c **** ****************************************************************************//**
 125:.\Generated_Source\PSoC5/P_out.c **** *
 126:.\Generated_Source\PSoC5/P_out.c **** * \brief Reads the associated physical port's data output register and masks 
 127:.\Generated_Source\PSoC5/P_out.c **** *  the correct bits according to the width and bit position of the component 
 128:.\Generated_Source\PSoC5/P_out.c **** *  instance. 
 129:.\Generated_Source\PSoC5/P_out.c **** *
 130:.\Generated_Source\PSoC5/P_out.c **** * The data output register controls the signal applied to the physical pin in 
 131:.\Generated_Source\PSoC5/P_out.c **** * conjunction with the drive mode parameter. This is not the same as the 
 132:.\Generated_Source\PSoC5/P_out.c **** * preferred P_out_Read() API because the 
 133:.\Generated_Source\PSoC5/P_out.c **** * P_out_ReadDataReg() reads the data register instead of the status 
 134:.\Generated_Source\PSoC5/P_out.c **** * register. For output pins this is a useful function to determine the value 
 135:.\Generated_Source\PSoC5/P_out.c **** * just written to the pin.
 136:.\Generated_Source\PSoC5/P_out.c **** *
 137:.\Generated_Source\PSoC5/P_out.c **** * \return 
 138:.\Generated_Source\PSoC5/P_out.c **** *  The current value of the data register masked and shifted into a right 
 139:.\Generated_Source\PSoC5/P_out.c **** *  justified number for the component instance.
 140:.\Generated_Source\PSoC5/P_out.c **** *
 141:.\Generated_Source\PSoC5/P_out.c **** * \funcusage
 142:.\Generated_Source\PSoC5/P_out.c **** *  \snippet P_out_SUT.c usage_P_out_ReadDataReg 
 143:.\Generated_Source\PSoC5/P_out.c **** *******************************************************************************/
 144:.\Generated_Source\PSoC5/P_out.c **** uint8 P_out_ReadDataReg(void)
 145:.\Generated_Source\PSoC5/P_out.c **** {
 131              		.loc 1 145 0
 132              		.cfi_startproc
 133              		@ args = 0, pretend = 0, frame = 0
 134              		@ frame_needed = 0, uses_anonymous_args = 0
 135              		@ link register save eliminated.
 146:.\Generated_Source\PSoC5/P_out.c ****     return (P_out_DR & P_out_MASK) >> P_out_SHIFT;
 136              		.loc 1 146 0
 137 0000 014B     		ldr	r3, .L11
 138 0002 1878     		ldrb	r0, [r3]	@ zero_extendqisi2
 147:.\Generated_Source\PSoC5/P_out.c **** }
ARM GAS  C:\Users\miyag\AppData\Local\Temp\ccMogLpV.s 			page 6


 139              		.loc 1 147 0
 140 0004 0009     		lsrs	r0, r0, #4
 141 0006 7047     		bx	lr
 142              	.L12:
 143              		.align	2
 144              	.L11:
 145 0008 20510040 		.word	1073762592
 146              		.cfi_endproc
 147              	.LFE3:
 148              		.size	P_out_ReadDataReg, .-P_out_ReadDataReg
 149              		.text
 150              	.Letext0:
 151              		.file 2 ".\\Generated_Source\\PSoC5\\cytypes.h"