ARM GAS  C:\Users\miyag\AppData\Local\Temp\ccP84OqR.s 			page 1


   1              		.syntax unified
   2              		.cpu cortex-m3
   3              		.fpu softvfp
   4              		.eabi_attribute 20, 1
   5              		.eabi_attribute 21, 1
   6              		.eabi_attribute 23, 3
   7              		.eabi_attribute 24, 1
   8              		.eabi_attribute 25, 1
   9              		.eabi_attribute 26, 1
  10              		.eabi_attribute 30, 4
  11              		.eabi_attribute 34, 1
  12              		.eabi_attribute 18, 4
  13              		.thumb
  14              		.file	"Timer_sub_cycle.c"
  15              		.text
  16              	.Ltext0:
  17              		.cfi_sections	.debug_frame
  18              		.section	.text.Timer_sub_cycle_Init,"ax",%progbits
  19              		.align	1
  20              		.global	Timer_sub_cycle_Init
  21              		.thumb
  22              		.thumb_func
  23              		.type	Timer_sub_cycle_Init, %function
  24              	Timer_sub_cycle_Init:
  25              	.LFB0:
  26              		.file 1 ".\\Generated_Source\\PSoC5\\Timer_sub_cycle.c"
   1:.\Generated_Source\PSoC5/Timer_sub_cycle.c **** /*******************************************************************************
   2:.\Generated_Source\PSoC5/Timer_sub_cycle.c **** * File Name: Timer_sub_cycle.c
   3:.\Generated_Source\PSoC5/Timer_sub_cycle.c **** * Version 2.70
   4:.\Generated_Source\PSoC5/Timer_sub_cycle.c **** *
   5:.\Generated_Source\PSoC5/Timer_sub_cycle.c **** * Description:
   6:.\Generated_Source\PSoC5/Timer_sub_cycle.c **** *  The Timer component consists of a 8, 16, 24 or 32-bit timer with
   7:.\Generated_Source\PSoC5/Timer_sub_cycle.c **** *  a selectable period between 2 and 2^Width - 1.  The timer may free run
   8:.\Generated_Source\PSoC5/Timer_sub_cycle.c **** *  or be used as a capture timer as well.  The capture can be initiated
   9:.\Generated_Source\PSoC5/Timer_sub_cycle.c **** *  by a positive or negative edge signal as well as via software.
  10:.\Generated_Source\PSoC5/Timer_sub_cycle.c **** *  A trigger input can be programmed to enable the timer on rising edge
  11:.\Generated_Source\PSoC5/Timer_sub_cycle.c **** *  falling edge, either edge or continous run.
  12:.\Generated_Source\PSoC5/Timer_sub_cycle.c **** *  Interrupts may be generated due to a terminal count condition
  13:.\Generated_Source\PSoC5/Timer_sub_cycle.c **** *  or a capture event.
  14:.\Generated_Source\PSoC5/Timer_sub_cycle.c **** *
  15:.\Generated_Source\PSoC5/Timer_sub_cycle.c **** * Note:
  16:.\Generated_Source\PSoC5/Timer_sub_cycle.c **** *
  17:.\Generated_Source\PSoC5/Timer_sub_cycle.c **** ********************************************************************************
  18:.\Generated_Source\PSoC5/Timer_sub_cycle.c **** * Copyright 2008-2014, Cypress Semiconductor Corporation.  All rights reserved.
  19:.\Generated_Source\PSoC5/Timer_sub_cycle.c **** * You may use this file only in accordance with the license, terms, conditions,
  20:.\Generated_Source\PSoC5/Timer_sub_cycle.c **** * disclaimers, and limitations in the end user license agreement accompanying
  21:.\Generated_Source\PSoC5/Timer_sub_cycle.c **** * the software package with which this file was provided.
  22:.\Generated_Source\PSoC5/Timer_sub_cycle.c **** ********************************************************************************/
  23:.\Generated_Source\PSoC5/Timer_sub_cycle.c **** 
  24:.\Generated_Source\PSoC5/Timer_sub_cycle.c **** #include "Timer_sub_cycle.h"
  25:.\Generated_Source\PSoC5/Timer_sub_cycle.c **** 
  26:.\Generated_Source\PSoC5/Timer_sub_cycle.c **** uint8 Timer_sub_cycle_initVar = 0u;
  27:.\Generated_Source\PSoC5/Timer_sub_cycle.c **** 
  28:.\Generated_Source\PSoC5/Timer_sub_cycle.c **** 
  29:.\Generated_Source\PSoC5/Timer_sub_cycle.c **** /*******************************************************************************
  30:.\Generated_Source\PSoC5/Timer_sub_cycle.c **** * Function Name: Timer_sub_cycle_Init
  31:.\Generated_Source\PSoC5/Timer_sub_cycle.c **** ********************************************************************************
ARM GAS  C:\Users\miyag\AppData\Local\Temp\ccP84OqR.s 			page 2


  32:.\Generated_Source\PSoC5/Timer_sub_cycle.c **** *
  33:.\Generated_Source\PSoC5/Timer_sub_cycle.c **** * Summary:
  34:.\Generated_Source\PSoC5/Timer_sub_cycle.c **** *  Initialize to the schematic state
  35:.\Generated_Source\PSoC5/Timer_sub_cycle.c **** *
  36:.\Generated_Source\PSoC5/Timer_sub_cycle.c **** * Parameters:
  37:.\Generated_Source\PSoC5/Timer_sub_cycle.c **** *  void
  38:.\Generated_Source\PSoC5/Timer_sub_cycle.c **** *
  39:.\Generated_Source\PSoC5/Timer_sub_cycle.c **** * Return:
  40:.\Generated_Source\PSoC5/Timer_sub_cycle.c **** *  void
  41:.\Generated_Source\PSoC5/Timer_sub_cycle.c **** *
  42:.\Generated_Source\PSoC5/Timer_sub_cycle.c **** *******************************************************************************/
  43:.\Generated_Source\PSoC5/Timer_sub_cycle.c **** void Timer_sub_cycle_Init(void) 
  44:.\Generated_Source\PSoC5/Timer_sub_cycle.c **** {
  27              		.loc 1 44 0
  28              		.cfi_startproc
  29              		@ args = 0, pretend = 0, frame = 0
  30              		@ frame_needed = 0, uses_anonymous_args = 0
  31              		@ link register save eliminated.
  45:.\Generated_Source\PSoC5/Timer_sub_cycle.c ****     #if(!Timer_sub_cycle_UsingFixedFunction)
  46:.\Generated_Source\PSoC5/Timer_sub_cycle.c ****             /* Interrupt State Backup for Critical Region*/
  47:.\Generated_Source\PSoC5/Timer_sub_cycle.c ****             uint8 Timer_sub_cycle_interruptState;
  48:.\Generated_Source\PSoC5/Timer_sub_cycle.c ****     #endif /* Interrupt state back up for Fixed Function only */
  49:.\Generated_Source\PSoC5/Timer_sub_cycle.c **** 
  50:.\Generated_Source\PSoC5/Timer_sub_cycle.c ****     #if (Timer_sub_cycle_UsingFixedFunction)
  51:.\Generated_Source\PSoC5/Timer_sub_cycle.c ****         /* Clear all bits but the enable bit (if it's already set) for Timer operation */
  52:.\Generated_Source\PSoC5/Timer_sub_cycle.c ****         Timer_sub_cycle_CONTROL &= Timer_sub_cycle_CTRL_ENABLE;
  32              		.loc 1 52 0
  33 0000 1D4A     		ldr	r2, .L2
  34 0002 1378     		ldrb	r3, [r2]	@ zero_extendqisi2
  35 0004 03F00103 		and	r3, r3, #1
  36 0008 1370     		strb	r3, [r2]
  53:.\Generated_Source\PSoC5/Timer_sub_cycle.c **** 
  54:.\Generated_Source\PSoC5/Timer_sub_cycle.c ****         /* Clear the mode bits for continuous run mode */
  55:.\Generated_Source\PSoC5/Timer_sub_cycle.c ****         #if (CY_PSOC5A)
  56:.\Generated_Source\PSoC5/Timer_sub_cycle.c ****             Timer_sub_cycle_CONTROL2 &= ((uint8)(~Timer_sub_cycle_CTRL_MODE_MASK));
  57:.\Generated_Source\PSoC5/Timer_sub_cycle.c ****         #endif /* Clear bits in CONTROL2 only in PSOC5A */
  58:.\Generated_Source\PSoC5/Timer_sub_cycle.c **** 
  59:.\Generated_Source\PSoC5/Timer_sub_cycle.c ****         #if (CY_PSOC3 || CY_PSOC5LP)
  60:.\Generated_Source\PSoC5/Timer_sub_cycle.c ****             Timer_sub_cycle_CONTROL3 &= ((uint8)(~Timer_sub_cycle_CTRL_MODE_MASK));
  37              		.loc 1 60 0
  38 000a 1C4B     		ldr	r3, .L2+4
  39 000c 1A78     		ldrb	r2, [r3]	@ zero_extendqisi2
  40 000e 02F0FC02 		and	r2, r2, #252
  41 0012 1A70     		strb	r2, [r3]
  61:.\Generated_Source\PSoC5/Timer_sub_cycle.c ****         #endif /* CONTROL3 register exists only in PSoC3 OR PSoC5LP */
  62:.\Generated_Source\PSoC5/Timer_sub_cycle.c **** 
  63:.\Generated_Source\PSoC5/Timer_sub_cycle.c ****         /* Check if One Shot mode is enabled i.e. RunMode !=0*/
  64:.\Generated_Source\PSoC5/Timer_sub_cycle.c ****         #if (Timer_sub_cycle_RunModeUsed != 0x0u)
  65:.\Generated_Source\PSoC5/Timer_sub_cycle.c ****             /* Set 3rd bit of Control register to enable one shot mode */
  66:.\Generated_Source\PSoC5/Timer_sub_cycle.c ****             Timer_sub_cycle_CONTROL |= 0x04u;
  67:.\Generated_Source\PSoC5/Timer_sub_cycle.c ****         #endif /* One Shot enabled only when RunModeUsed is not Continuous*/
  68:.\Generated_Source\PSoC5/Timer_sub_cycle.c **** 
  69:.\Generated_Source\PSoC5/Timer_sub_cycle.c ****         #if (Timer_sub_cycle_RunModeUsed == 2)
  70:.\Generated_Source\PSoC5/Timer_sub_cycle.c ****             #if (CY_PSOC5A)
  71:.\Generated_Source\PSoC5/Timer_sub_cycle.c ****                 /* Set last 2 bits of control2 register if one shot(halt on
  72:.\Generated_Source\PSoC5/Timer_sub_cycle.c ****                 interrupt) is enabled*/
  73:.\Generated_Source\PSoC5/Timer_sub_cycle.c ****                 Timer_sub_cycle_CONTROL2 |= 0x03u;
ARM GAS  C:\Users\miyag\AppData\Local\Temp\ccP84OqR.s 			page 3


  74:.\Generated_Source\PSoC5/Timer_sub_cycle.c ****             #endif /* Set One-Shot Halt on Interrupt bit in CONTROL2 for PSoC5A */
  75:.\Generated_Source\PSoC5/Timer_sub_cycle.c **** 
  76:.\Generated_Source\PSoC5/Timer_sub_cycle.c ****             #if (CY_PSOC3 || CY_PSOC5LP)
  77:.\Generated_Source\PSoC5/Timer_sub_cycle.c ****                 /* Set last 2 bits of control3 register if one shot(halt on
  78:.\Generated_Source\PSoC5/Timer_sub_cycle.c ****                 interrupt) is enabled*/
  79:.\Generated_Source\PSoC5/Timer_sub_cycle.c ****                 Timer_sub_cycle_CONTROL3 |= 0x03u;
  80:.\Generated_Source\PSoC5/Timer_sub_cycle.c ****             #endif /* Set One-Shot Halt on Interrupt bit in CONTROL3 for PSoC3 or PSoC5LP */
  81:.\Generated_Source\PSoC5/Timer_sub_cycle.c **** 
  82:.\Generated_Source\PSoC5/Timer_sub_cycle.c ****         #endif /* Remove section if One Shot Halt on Interrupt is not enabled */
  83:.\Generated_Source\PSoC5/Timer_sub_cycle.c **** 
  84:.\Generated_Source\PSoC5/Timer_sub_cycle.c ****         #if (Timer_sub_cycle_UsingHWEnable != 0)
  85:.\Generated_Source\PSoC5/Timer_sub_cycle.c ****             #if (CY_PSOC5A)
  86:.\Generated_Source\PSoC5/Timer_sub_cycle.c ****                 /* Set the default Run Mode of the Timer to Continuous */
  87:.\Generated_Source\PSoC5/Timer_sub_cycle.c ****                 Timer_sub_cycle_CONTROL2 |= Timer_sub_cycle_CTRL_MODE_PULSEWIDTH;
  88:.\Generated_Source\PSoC5/Timer_sub_cycle.c ****             #endif /* Set Continuous Run Mode in CONTROL2 for PSoC5A */
  89:.\Generated_Source\PSoC5/Timer_sub_cycle.c **** 
  90:.\Generated_Source\PSoC5/Timer_sub_cycle.c ****             #if (CY_PSOC3 || CY_PSOC5LP)
  91:.\Generated_Source\PSoC5/Timer_sub_cycle.c ****                 /* Clear and Set ROD and COD bits of CFG2 register */
  92:.\Generated_Source\PSoC5/Timer_sub_cycle.c ****                 Timer_sub_cycle_CONTROL3 &= ((uint8)(~Timer_sub_cycle_CTRL_RCOD_MASK));
  42              		.loc 1 92 0
  43 0014 1A78     		ldrb	r2, [r3]	@ zero_extendqisi2
  44 0016 02F0F302 		and	r2, r2, #243
  45 001a 1A70     		strb	r2, [r3]
  93:.\Generated_Source\PSoC5/Timer_sub_cycle.c ****                 Timer_sub_cycle_CONTROL3 |= Timer_sub_cycle_CTRL_RCOD;
  46              		.loc 1 93 0
  47 001c 1A78     		ldrb	r2, [r3]	@ zero_extendqisi2
  48 001e 42F00C02 		orr	r2, r2, #12
  49 0022 1A70     		strb	r2, [r3]
  94:.\Generated_Source\PSoC5/Timer_sub_cycle.c **** 
  95:.\Generated_Source\PSoC5/Timer_sub_cycle.c ****                 /* Clear and Enable the HW enable bit in CFG2 register */
  96:.\Generated_Source\PSoC5/Timer_sub_cycle.c ****                 Timer_sub_cycle_CONTROL3 &= ((uint8)(~Timer_sub_cycle_CTRL_ENBL_MASK));
  50              		.loc 1 96 0
  51 0024 1A78     		ldrb	r2, [r3]	@ zero_extendqisi2
  52 0026 02F07F02 		and	r2, r2, #127
  53 002a 1A70     		strb	r2, [r3]
  97:.\Generated_Source\PSoC5/Timer_sub_cycle.c ****                 Timer_sub_cycle_CONTROL3 |= Timer_sub_cycle_CTRL_ENBL;
  54              		.loc 1 97 0
  55 002c 1A78     		ldrb	r2, [r3]	@ zero_extendqisi2
  56 002e 42F08002 		orr	r2, r2, #128
  57 0032 1A70     		strb	r2, [r3]
  98:.\Generated_Source\PSoC5/Timer_sub_cycle.c **** 
  99:.\Generated_Source\PSoC5/Timer_sub_cycle.c ****                 /* Set the default Run Mode of the Timer to Continuous */
 100:.\Generated_Source\PSoC5/Timer_sub_cycle.c ****                 Timer_sub_cycle_CONTROL3 |= Timer_sub_cycle_CTRL_MODE_CONTINUOUS;
  58              		.loc 1 100 0
  59 0034 1A78     		ldrb	r2, [r3]	@ zero_extendqisi2
  60 0036 D2B2     		uxtb	r2, r2
  61 0038 1A70     		strb	r2, [r3]
 101:.\Generated_Source\PSoC5/Timer_sub_cycle.c ****             #endif /* Set Continuous Run Mode in CONTROL3 for PSoC3ES3 or PSoC5A */
 102:.\Generated_Source\PSoC5/Timer_sub_cycle.c **** 
 103:.\Generated_Source\PSoC5/Timer_sub_cycle.c ****         #endif /* Configure Run Mode with hardware enable */
 104:.\Generated_Source\PSoC5/Timer_sub_cycle.c **** 
 105:.\Generated_Source\PSoC5/Timer_sub_cycle.c ****         /* Clear and Set SYNCTC and SYNCCMP bits of RT1 register */
 106:.\Generated_Source\PSoC5/Timer_sub_cycle.c ****         Timer_sub_cycle_RT1 &= ((uint8)(~Timer_sub_cycle_RT1_MASK));
  62              		.loc 1 106 0
  63 003a 5A7A     		ldrb	r2, [r3, #9]	@ zero_extendqisi2
  64 003c 02F0CF02 		and	r2, r2, #207
  65 0040 5A72     		strb	r2, [r3, #9]
ARM GAS  C:\Users\miyag\AppData\Local\Temp\ccP84OqR.s 			page 4


 107:.\Generated_Source\PSoC5/Timer_sub_cycle.c ****         Timer_sub_cycle_RT1 |= Timer_sub_cycle_SYNC;
  66              		.loc 1 107 0
  67 0042 5A7A     		ldrb	r2, [r3, #9]	@ zero_extendqisi2
  68 0044 42F03002 		orr	r2, r2, #48
  69 0048 5A72     		strb	r2, [r3, #9]
 108:.\Generated_Source\PSoC5/Timer_sub_cycle.c **** 
 109:.\Generated_Source\PSoC5/Timer_sub_cycle.c ****         /*Enable DSI Sync all all inputs of the Timer*/
 110:.\Generated_Source\PSoC5/Timer_sub_cycle.c ****         Timer_sub_cycle_RT1 &= ((uint8)(~Timer_sub_cycle_SYNCDSI_MASK));
  70              		.loc 1 110 0
  71 004a 5A7A     		ldrb	r2, [r3, #9]	@ zero_extendqisi2
  72 004c 02F0F002 		and	r2, r2, #240
  73 0050 5A72     		strb	r2, [r3, #9]
 111:.\Generated_Source\PSoC5/Timer_sub_cycle.c ****         Timer_sub_cycle_RT1 |= Timer_sub_cycle_SYNCDSI_EN;
  74              		.loc 1 111 0
  75 0052 5A7A     		ldrb	r2, [r3, #9]	@ zero_extendqisi2
  76 0054 42F00F02 		orr	r2, r2, #15
  77 0058 5A72     		strb	r2, [r3, #9]
 112:.\Generated_Source\PSoC5/Timer_sub_cycle.c **** 
 113:.\Generated_Source\PSoC5/Timer_sub_cycle.c ****         /* Set the IRQ to use the status register interrupts */
 114:.\Generated_Source\PSoC5/Timer_sub_cycle.c ****         Timer_sub_cycle_CONTROL2 |= Timer_sub_cycle_CTRL2_IRQ_SEL;
  78              		.loc 1 114 0
  79 005a 094A     		ldr	r2, .L2+8
  80 005c 1378     		ldrb	r3, [r2]	@ zero_extendqisi2
  81 005e 43F00103 		orr	r3, r3, #1
  82 0062 1370     		strb	r3, [r2]
  83              	.LVL0:
  84              	.LBB8:
  85              	.LBB9:
 115:.\Generated_Source\PSoC5/Timer_sub_cycle.c ****     #endif /* Configuring registers of fixed function implementation */
 116:.\Generated_Source\PSoC5/Timer_sub_cycle.c **** 
 117:.\Generated_Source\PSoC5/Timer_sub_cycle.c ****     /* Set Initial values from Configuration */
 118:.\Generated_Source\PSoC5/Timer_sub_cycle.c ****     Timer_sub_cycle_WritePeriod(Timer_sub_cycle_INIT_PERIOD);
 119:.\Generated_Source\PSoC5/Timer_sub_cycle.c ****     Timer_sub_cycle_WriteCounter(Timer_sub_cycle_INIT_PERIOD);
 120:.\Generated_Source\PSoC5/Timer_sub_cycle.c **** 
 121:.\Generated_Source\PSoC5/Timer_sub_cycle.c ****     #if (Timer_sub_cycle_UsingHWCaptureCounter)/* Capture counter is enabled */
 122:.\Generated_Source\PSoC5/Timer_sub_cycle.c ****         Timer_sub_cycle_CAPTURE_COUNT_CTRL |= Timer_sub_cycle_CNTR_ENABLE;
 123:.\Generated_Source\PSoC5/Timer_sub_cycle.c ****         Timer_sub_cycle_SetCaptureCount(Timer_sub_cycle_INIT_CAPTURE_COUNT);
 124:.\Generated_Source\PSoC5/Timer_sub_cycle.c ****     #endif /* Configure capture counter value */
 125:.\Generated_Source\PSoC5/Timer_sub_cycle.c **** 
 126:.\Generated_Source\PSoC5/Timer_sub_cycle.c ****     #if (!Timer_sub_cycle_UsingFixedFunction)
 127:.\Generated_Source\PSoC5/Timer_sub_cycle.c ****         #if (Timer_sub_cycle_SoftwareCaptureMode)
 128:.\Generated_Source\PSoC5/Timer_sub_cycle.c ****             Timer_sub_cycle_SetCaptureMode(Timer_sub_cycle_INIT_CAPTURE_MODE);
 129:.\Generated_Source\PSoC5/Timer_sub_cycle.c ****         #endif /* Set Capture Mode for UDB implementation if capture mode is software controlled */
 130:.\Generated_Source\PSoC5/Timer_sub_cycle.c **** 
 131:.\Generated_Source\PSoC5/Timer_sub_cycle.c ****         #if (Timer_sub_cycle_SoftwareTriggerMode)
 132:.\Generated_Source\PSoC5/Timer_sub_cycle.c ****             #if (!Timer_sub_cycle_UDB_CONTROL_REG_REMOVED)
 133:.\Generated_Source\PSoC5/Timer_sub_cycle.c ****                 if (0u == (Timer_sub_cycle_CONTROL & Timer_sub_cycle__B_TIMER__TM_SOFTWARE))
 134:.\Generated_Source\PSoC5/Timer_sub_cycle.c ****                 {
 135:.\Generated_Source\PSoC5/Timer_sub_cycle.c ****                     Timer_sub_cycle_SetTriggerMode(Timer_sub_cycle_INIT_TRIGGER_MODE);
 136:.\Generated_Source\PSoC5/Timer_sub_cycle.c ****                 }
 137:.\Generated_Source\PSoC5/Timer_sub_cycle.c ****             #endif /* (!Timer_sub_cycle_UDB_CONTROL_REG_REMOVED) */
 138:.\Generated_Source\PSoC5/Timer_sub_cycle.c ****         #endif /* Set trigger mode for UDB Implementation if trigger mode is software controlled */
 139:.\Generated_Source\PSoC5/Timer_sub_cycle.c **** 
 140:.\Generated_Source\PSoC5/Timer_sub_cycle.c ****         /* CyEnterCriticalRegion and CyExitCriticalRegion are used to mark following region critica
 141:.\Generated_Source\PSoC5/Timer_sub_cycle.c ****         /* Enter Critical Region*/
 142:.\Generated_Source\PSoC5/Timer_sub_cycle.c ****         Timer_sub_cycle_interruptState = CyEnterCriticalSection();
 143:.\Generated_Source\PSoC5/Timer_sub_cycle.c **** 
ARM GAS  C:\Users\miyag\AppData\Local\Temp\ccP84OqR.s 			page 5


 144:.\Generated_Source\PSoC5/Timer_sub_cycle.c ****         /* Use the interrupt output of the status register for IRQ output */
 145:.\Generated_Source\PSoC5/Timer_sub_cycle.c ****         Timer_sub_cycle_STATUS_AUX_CTRL |= Timer_sub_cycle_STATUS_ACTL_INT_EN_MASK;
 146:.\Generated_Source\PSoC5/Timer_sub_cycle.c **** 
 147:.\Generated_Source\PSoC5/Timer_sub_cycle.c ****         /* Exit Critical Region*/
 148:.\Generated_Source\PSoC5/Timer_sub_cycle.c ****         CyExitCriticalSection(Timer_sub_cycle_interruptState);
 149:.\Generated_Source\PSoC5/Timer_sub_cycle.c **** 
 150:.\Generated_Source\PSoC5/Timer_sub_cycle.c ****         #if (Timer_sub_cycle_EnableTriggerMode)
 151:.\Generated_Source\PSoC5/Timer_sub_cycle.c ****             Timer_sub_cycle_EnableTrigger();
 152:.\Generated_Source\PSoC5/Timer_sub_cycle.c ****         #endif /* Set Trigger enable bit for UDB implementation in the control register*/
 153:.\Generated_Source\PSoC5/Timer_sub_cycle.c **** 		
 154:.\Generated_Source\PSoC5/Timer_sub_cycle.c **** 		
 155:.\Generated_Source\PSoC5/Timer_sub_cycle.c ****         #if (Timer_sub_cycle_InterruptOnCaptureCount && !Timer_sub_cycle_UDB_CONTROL_REG_REMOVED)
 156:.\Generated_Source\PSoC5/Timer_sub_cycle.c ****             Timer_sub_cycle_SetInterruptCount(Timer_sub_cycle_INIT_INT_CAPTURE_COUNT);
 157:.\Generated_Source\PSoC5/Timer_sub_cycle.c ****         #endif /* Set interrupt count in UDB implementation if interrupt count feature is checked.*
 158:.\Generated_Source\PSoC5/Timer_sub_cycle.c **** 
 159:.\Generated_Source\PSoC5/Timer_sub_cycle.c ****         Timer_sub_cycle_ClearFIFO();
 160:.\Generated_Source\PSoC5/Timer_sub_cycle.c ****     #endif /* Configure additional features of UDB implementation */
 161:.\Generated_Source\PSoC5/Timer_sub_cycle.c **** 
 162:.\Generated_Source\PSoC5/Timer_sub_cycle.c ****     Timer_sub_cycle_SetInterruptMode(Timer_sub_cycle_INIT_INTERRUPT_MODE);
 163:.\Generated_Source\PSoC5/Timer_sub_cycle.c **** }
 164:.\Generated_Source\PSoC5/Timer_sub_cycle.c **** 
 165:.\Generated_Source\PSoC5/Timer_sub_cycle.c **** 
 166:.\Generated_Source\PSoC5/Timer_sub_cycle.c **** /*******************************************************************************
 167:.\Generated_Source\PSoC5/Timer_sub_cycle.c **** * Function Name: Timer_sub_cycle_Enable
 168:.\Generated_Source\PSoC5/Timer_sub_cycle.c **** ********************************************************************************
 169:.\Generated_Source\PSoC5/Timer_sub_cycle.c **** *
 170:.\Generated_Source\PSoC5/Timer_sub_cycle.c **** * Summary:
 171:.\Generated_Source\PSoC5/Timer_sub_cycle.c **** *  Enable the Timer
 172:.\Generated_Source\PSoC5/Timer_sub_cycle.c **** *
 173:.\Generated_Source\PSoC5/Timer_sub_cycle.c **** * Parameters:
 174:.\Generated_Source\PSoC5/Timer_sub_cycle.c **** *  void
 175:.\Generated_Source\PSoC5/Timer_sub_cycle.c **** *
 176:.\Generated_Source\PSoC5/Timer_sub_cycle.c **** * Return:
 177:.\Generated_Source\PSoC5/Timer_sub_cycle.c **** *  void
 178:.\Generated_Source\PSoC5/Timer_sub_cycle.c **** *
 179:.\Generated_Source\PSoC5/Timer_sub_cycle.c **** *******************************************************************************/
 180:.\Generated_Source\PSoC5/Timer_sub_cycle.c **** void Timer_sub_cycle_Enable(void) 
 181:.\Generated_Source\PSoC5/Timer_sub_cycle.c **** {
 182:.\Generated_Source\PSoC5/Timer_sub_cycle.c ****     /* Globally Enable the Fixed Function Block chosen */
 183:.\Generated_Source\PSoC5/Timer_sub_cycle.c ****     #if (Timer_sub_cycle_UsingFixedFunction)
 184:.\Generated_Source\PSoC5/Timer_sub_cycle.c ****         Timer_sub_cycle_GLOBAL_ENABLE |= Timer_sub_cycle_BLOCK_EN_MASK;
 185:.\Generated_Source\PSoC5/Timer_sub_cycle.c ****         Timer_sub_cycle_GLOBAL_STBY_ENABLE |= Timer_sub_cycle_BLOCK_STBY_EN_MASK;
 186:.\Generated_Source\PSoC5/Timer_sub_cycle.c ****     #endif /* Set Enable bit for enabling Fixed function timer*/
 187:.\Generated_Source\PSoC5/Timer_sub_cycle.c **** 
 188:.\Generated_Source\PSoC5/Timer_sub_cycle.c ****     /* Remove assignment if control register is removed */
 189:.\Generated_Source\PSoC5/Timer_sub_cycle.c ****     #if (!Timer_sub_cycle_UDB_CONTROL_REG_REMOVED || Timer_sub_cycle_UsingFixedFunction)
 190:.\Generated_Source\PSoC5/Timer_sub_cycle.c ****         Timer_sub_cycle_CONTROL |= Timer_sub_cycle_CTRL_ENABLE;
 191:.\Generated_Source\PSoC5/Timer_sub_cycle.c ****     #endif /* Remove assignment if control register is removed */
 192:.\Generated_Source\PSoC5/Timer_sub_cycle.c **** }
 193:.\Generated_Source\PSoC5/Timer_sub_cycle.c **** 
 194:.\Generated_Source\PSoC5/Timer_sub_cycle.c **** 
 195:.\Generated_Source\PSoC5/Timer_sub_cycle.c **** /*******************************************************************************
 196:.\Generated_Source\PSoC5/Timer_sub_cycle.c **** * Function Name: Timer_sub_cycle_Start
 197:.\Generated_Source\PSoC5/Timer_sub_cycle.c **** ********************************************************************************
 198:.\Generated_Source\PSoC5/Timer_sub_cycle.c **** *
 199:.\Generated_Source\PSoC5/Timer_sub_cycle.c **** * Summary:
 200:.\Generated_Source\PSoC5/Timer_sub_cycle.c **** *  The start function initializes the timer with the default values, the
ARM GAS  C:\Users\miyag\AppData\Local\Temp\ccP84OqR.s 			page 6


 201:.\Generated_Source\PSoC5/Timer_sub_cycle.c **** *  enables the timerto begin counting.  It does not enable interrupts,
 202:.\Generated_Source\PSoC5/Timer_sub_cycle.c **** *  the EnableInt command should be called if interrupt generation is required.
 203:.\Generated_Source\PSoC5/Timer_sub_cycle.c **** *
 204:.\Generated_Source\PSoC5/Timer_sub_cycle.c **** * Parameters:
 205:.\Generated_Source\PSoC5/Timer_sub_cycle.c **** *  void
 206:.\Generated_Source\PSoC5/Timer_sub_cycle.c **** *
 207:.\Generated_Source\PSoC5/Timer_sub_cycle.c **** * Return:
 208:.\Generated_Source\PSoC5/Timer_sub_cycle.c **** *  void
 209:.\Generated_Source\PSoC5/Timer_sub_cycle.c **** *
 210:.\Generated_Source\PSoC5/Timer_sub_cycle.c **** * Global variables:
 211:.\Generated_Source\PSoC5/Timer_sub_cycle.c **** *  Timer_sub_cycle_initVar: Is modified when this function is called for the
 212:.\Generated_Source\PSoC5/Timer_sub_cycle.c **** *   first time. Is used to ensure that initialization happens only once.
 213:.\Generated_Source\PSoC5/Timer_sub_cycle.c **** *
 214:.\Generated_Source\PSoC5/Timer_sub_cycle.c **** *******************************************************************************/
 215:.\Generated_Source\PSoC5/Timer_sub_cycle.c **** void Timer_sub_cycle_Start(void) 
 216:.\Generated_Source\PSoC5/Timer_sub_cycle.c **** {
 217:.\Generated_Source\PSoC5/Timer_sub_cycle.c ****     if(Timer_sub_cycle_initVar == 0u)
 218:.\Generated_Source\PSoC5/Timer_sub_cycle.c ****     {
 219:.\Generated_Source\PSoC5/Timer_sub_cycle.c ****         Timer_sub_cycle_Init();
 220:.\Generated_Source\PSoC5/Timer_sub_cycle.c **** 
 221:.\Generated_Source\PSoC5/Timer_sub_cycle.c ****         Timer_sub_cycle_initVar = 1u;   /* Clear this bit for Initialization */
 222:.\Generated_Source\PSoC5/Timer_sub_cycle.c ****     }
 223:.\Generated_Source\PSoC5/Timer_sub_cycle.c **** 
 224:.\Generated_Source\PSoC5/Timer_sub_cycle.c ****     /* Enable the Timer */
 225:.\Generated_Source\PSoC5/Timer_sub_cycle.c ****     Timer_sub_cycle_Enable();
 226:.\Generated_Source\PSoC5/Timer_sub_cycle.c **** }
 227:.\Generated_Source\PSoC5/Timer_sub_cycle.c **** 
 228:.\Generated_Source\PSoC5/Timer_sub_cycle.c **** 
 229:.\Generated_Source\PSoC5/Timer_sub_cycle.c **** /*******************************************************************************
 230:.\Generated_Source\PSoC5/Timer_sub_cycle.c **** * Function Name: Timer_sub_cycle_Stop
 231:.\Generated_Source\PSoC5/Timer_sub_cycle.c **** ********************************************************************************
 232:.\Generated_Source\PSoC5/Timer_sub_cycle.c **** *
 233:.\Generated_Source\PSoC5/Timer_sub_cycle.c **** * Summary:
 234:.\Generated_Source\PSoC5/Timer_sub_cycle.c **** *  The stop function halts the timer, but does not change any modes or disable
 235:.\Generated_Source\PSoC5/Timer_sub_cycle.c **** *  interrupts.
 236:.\Generated_Source\PSoC5/Timer_sub_cycle.c **** *
 237:.\Generated_Source\PSoC5/Timer_sub_cycle.c **** * Parameters:
 238:.\Generated_Source\PSoC5/Timer_sub_cycle.c **** *  void
 239:.\Generated_Source\PSoC5/Timer_sub_cycle.c **** *
 240:.\Generated_Source\PSoC5/Timer_sub_cycle.c **** * Return:
 241:.\Generated_Source\PSoC5/Timer_sub_cycle.c **** *  void
 242:.\Generated_Source\PSoC5/Timer_sub_cycle.c **** *
 243:.\Generated_Source\PSoC5/Timer_sub_cycle.c **** * Side Effects: If the Enable mode is set to Hardware only then this function
 244:.\Generated_Source\PSoC5/Timer_sub_cycle.c **** *               has no effect on the operation of the timer.
 245:.\Generated_Source\PSoC5/Timer_sub_cycle.c **** *
 246:.\Generated_Source\PSoC5/Timer_sub_cycle.c **** *******************************************************************************/
 247:.\Generated_Source\PSoC5/Timer_sub_cycle.c **** void Timer_sub_cycle_Stop(void) 
 248:.\Generated_Source\PSoC5/Timer_sub_cycle.c **** {
 249:.\Generated_Source\PSoC5/Timer_sub_cycle.c ****     /* Disable Timer */
 250:.\Generated_Source\PSoC5/Timer_sub_cycle.c ****     #if(!Timer_sub_cycle_UDB_CONTROL_REG_REMOVED || Timer_sub_cycle_UsingFixedFunction)
 251:.\Generated_Source\PSoC5/Timer_sub_cycle.c ****         Timer_sub_cycle_CONTROL &= ((uint8)(~Timer_sub_cycle_CTRL_ENABLE));
 252:.\Generated_Source\PSoC5/Timer_sub_cycle.c ****     #endif /* Remove assignment if control register is removed */
 253:.\Generated_Source\PSoC5/Timer_sub_cycle.c **** 
 254:.\Generated_Source\PSoC5/Timer_sub_cycle.c ****     /* Globally disable the Fixed Function Block chosen */
 255:.\Generated_Source\PSoC5/Timer_sub_cycle.c ****     #if (Timer_sub_cycle_UsingFixedFunction)
 256:.\Generated_Source\PSoC5/Timer_sub_cycle.c ****         Timer_sub_cycle_GLOBAL_ENABLE &= ((uint8)(~Timer_sub_cycle_BLOCK_EN_MASK));
 257:.\Generated_Source\PSoC5/Timer_sub_cycle.c ****         Timer_sub_cycle_GLOBAL_STBY_ENABLE &= ((uint8)(~Timer_sub_cycle_BLOCK_STBY_EN_MASK));
ARM GAS  C:\Users\miyag\AppData\Local\Temp\ccP84OqR.s 			page 7


 258:.\Generated_Source\PSoC5/Timer_sub_cycle.c ****     #endif /* Disable global enable for the Timer Fixed function block to stop the Timer*/
 259:.\Generated_Source\PSoC5/Timer_sub_cycle.c **** }
 260:.\Generated_Source\PSoC5/Timer_sub_cycle.c **** 
 261:.\Generated_Source\PSoC5/Timer_sub_cycle.c **** 
 262:.\Generated_Source\PSoC5/Timer_sub_cycle.c **** /*******************************************************************************
 263:.\Generated_Source\PSoC5/Timer_sub_cycle.c **** * Function Name: Timer_sub_cycle_SetInterruptMode
 264:.\Generated_Source\PSoC5/Timer_sub_cycle.c **** ********************************************************************************
 265:.\Generated_Source\PSoC5/Timer_sub_cycle.c **** *
 266:.\Generated_Source\PSoC5/Timer_sub_cycle.c **** * Summary:
 267:.\Generated_Source\PSoC5/Timer_sub_cycle.c **** *  This function selects which of the interrupt inputs may cause an interrupt.
 268:.\Generated_Source\PSoC5/Timer_sub_cycle.c **** *  The twosources are caputure and terminal.  One, both or neither may
 269:.\Generated_Source\PSoC5/Timer_sub_cycle.c **** *  be selected.
 270:.\Generated_Source\PSoC5/Timer_sub_cycle.c **** *
 271:.\Generated_Source\PSoC5/Timer_sub_cycle.c **** * Parameters:
 272:.\Generated_Source\PSoC5/Timer_sub_cycle.c **** *  interruptMode:   This parameter is used to enable interrups on either/or
 273:.\Generated_Source\PSoC5/Timer_sub_cycle.c **** *                   terminal count or capture.
 274:.\Generated_Source\PSoC5/Timer_sub_cycle.c **** *
 275:.\Generated_Source\PSoC5/Timer_sub_cycle.c **** * Return:
 276:.\Generated_Source\PSoC5/Timer_sub_cycle.c **** *  void
 277:.\Generated_Source\PSoC5/Timer_sub_cycle.c **** *
 278:.\Generated_Source\PSoC5/Timer_sub_cycle.c **** *******************************************************************************/
 279:.\Generated_Source\PSoC5/Timer_sub_cycle.c **** void Timer_sub_cycle_SetInterruptMode(uint8 interruptMode) 
 280:.\Generated_Source\PSoC5/Timer_sub_cycle.c **** {
 281:.\Generated_Source\PSoC5/Timer_sub_cycle.c ****     Timer_sub_cycle_STATUS_MASK = interruptMode;
 282:.\Generated_Source\PSoC5/Timer_sub_cycle.c **** }
 283:.\Generated_Source\PSoC5/Timer_sub_cycle.c **** 
 284:.\Generated_Source\PSoC5/Timer_sub_cycle.c **** 
 285:.\Generated_Source\PSoC5/Timer_sub_cycle.c **** /*******************************************************************************
 286:.\Generated_Source\PSoC5/Timer_sub_cycle.c **** * Function Name: Timer_sub_cycle_SoftwareCapture
 287:.\Generated_Source\PSoC5/Timer_sub_cycle.c **** ********************************************************************************
 288:.\Generated_Source\PSoC5/Timer_sub_cycle.c **** *
 289:.\Generated_Source\PSoC5/Timer_sub_cycle.c **** * Summary:
 290:.\Generated_Source\PSoC5/Timer_sub_cycle.c **** *  This function forces a capture independent of the capture signal.
 291:.\Generated_Source\PSoC5/Timer_sub_cycle.c **** *
 292:.\Generated_Source\PSoC5/Timer_sub_cycle.c **** * Parameters:
 293:.\Generated_Source\PSoC5/Timer_sub_cycle.c **** *  void
 294:.\Generated_Source\PSoC5/Timer_sub_cycle.c **** *
 295:.\Generated_Source\PSoC5/Timer_sub_cycle.c **** * Return:
 296:.\Generated_Source\PSoC5/Timer_sub_cycle.c **** *  void
 297:.\Generated_Source\PSoC5/Timer_sub_cycle.c **** *
 298:.\Generated_Source\PSoC5/Timer_sub_cycle.c **** * Side Effects:
 299:.\Generated_Source\PSoC5/Timer_sub_cycle.c **** *  An existing hardware capture could be overwritten.
 300:.\Generated_Source\PSoC5/Timer_sub_cycle.c **** *
 301:.\Generated_Source\PSoC5/Timer_sub_cycle.c **** *******************************************************************************/
 302:.\Generated_Source\PSoC5/Timer_sub_cycle.c **** void Timer_sub_cycle_SoftwareCapture(void) 
 303:.\Generated_Source\PSoC5/Timer_sub_cycle.c **** {
 304:.\Generated_Source\PSoC5/Timer_sub_cycle.c ****     /* Generate a software capture by reading the counter register */
 305:.\Generated_Source\PSoC5/Timer_sub_cycle.c ****     #if(Timer_sub_cycle_UsingFixedFunction)
 306:.\Generated_Source\PSoC5/Timer_sub_cycle.c ****         (void)CY_GET_REG16(Timer_sub_cycle_COUNTER_LSB_PTR);
 307:.\Generated_Source\PSoC5/Timer_sub_cycle.c ****     #else
 308:.\Generated_Source\PSoC5/Timer_sub_cycle.c ****         (void)CY_GET_REG8(Timer_sub_cycle_COUNTER_LSB_PTR_8BIT);
 309:.\Generated_Source\PSoC5/Timer_sub_cycle.c ****     #endif/* (Timer_sub_cycle_UsingFixedFunction) */
 310:.\Generated_Source\PSoC5/Timer_sub_cycle.c ****     /* Capture Data is now in the FIFO */
 311:.\Generated_Source\PSoC5/Timer_sub_cycle.c **** }
 312:.\Generated_Source\PSoC5/Timer_sub_cycle.c **** 
 313:.\Generated_Source\PSoC5/Timer_sub_cycle.c **** 
 314:.\Generated_Source\PSoC5/Timer_sub_cycle.c **** /*******************************************************************************
ARM GAS  C:\Users\miyag\AppData\Local\Temp\ccP84OqR.s 			page 8


 315:.\Generated_Source\PSoC5/Timer_sub_cycle.c **** * Function Name: Timer_sub_cycle_ReadStatusRegister
 316:.\Generated_Source\PSoC5/Timer_sub_cycle.c **** ********************************************************************************
 317:.\Generated_Source\PSoC5/Timer_sub_cycle.c **** *
 318:.\Generated_Source\PSoC5/Timer_sub_cycle.c **** * Summary:
 319:.\Generated_Source\PSoC5/Timer_sub_cycle.c **** *  Reads the status register and returns it's state. This function should use
 320:.\Generated_Source\PSoC5/Timer_sub_cycle.c **** *  defined types for the bit-field information as the bits in this register may
 321:.\Generated_Source\PSoC5/Timer_sub_cycle.c **** *  be permuteable.
 322:.\Generated_Source\PSoC5/Timer_sub_cycle.c **** *
 323:.\Generated_Source\PSoC5/Timer_sub_cycle.c **** * Parameters:
 324:.\Generated_Source\PSoC5/Timer_sub_cycle.c **** *  void
 325:.\Generated_Source\PSoC5/Timer_sub_cycle.c **** *
 326:.\Generated_Source\PSoC5/Timer_sub_cycle.c **** * Return:
 327:.\Generated_Source\PSoC5/Timer_sub_cycle.c **** *  The contents of the status register
 328:.\Generated_Source\PSoC5/Timer_sub_cycle.c **** *
 329:.\Generated_Source\PSoC5/Timer_sub_cycle.c **** * Side Effects:
 330:.\Generated_Source\PSoC5/Timer_sub_cycle.c **** *  Status register bits may be clear on read.
 331:.\Generated_Source\PSoC5/Timer_sub_cycle.c **** *
 332:.\Generated_Source\PSoC5/Timer_sub_cycle.c **** *******************************************************************************/
 333:.\Generated_Source\PSoC5/Timer_sub_cycle.c **** uint8   Timer_sub_cycle_ReadStatusRegister(void) 
 334:.\Generated_Source\PSoC5/Timer_sub_cycle.c **** {
 335:.\Generated_Source\PSoC5/Timer_sub_cycle.c ****     return (Timer_sub_cycle_STATUS);
 336:.\Generated_Source\PSoC5/Timer_sub_cycle.c **** }
 337:.\Generated_Source\PSoC5/Timer_sub_cycle.c **** 
 338:.\Generated_Source\PSoC5/Timer_sub_cycle.c **** 
 339:.\Generated_Source\PSoC5/Timer_sub_cycle.c **** #if (!Timer_sub_cycle_UDB_CONTROL_REG_REMOVED) /* Remove API if control register is unused */
 340:.\Generated_Source\PSoC5/Timer_sub_cycle.c **** 
 341:.\Generated_Source\PSoC5/Timer_sub_cycle.c **** 
 342:.\Generated_Source\PSoC5/Timer_sub_cycle.c **** /*******************************************************************************
 343:.\Generated_Source\PSoC5/Timer_sub_cycle.c **** * Function Name: Timer_sub_cycle_ReadControlRegister
 344:.\Generated_Source\PSoC5/Timer_sub_cycle.c **** ********************************************************************************
 345:.\Generated_Source\PSoC5/Timer_sub_cycle.c **** *
 346:.\Generated_Source\PSoC5/Timer_sub_cycle.c **** * Summary:
 347:.\Generated_Source\PSoC5/Timer_sub_cycle.c **** *  Reads the control register and returns it's value.
 348:.\Generated_Source\PSoC5/Timer_sub_cycle.c **** *
 349:.\Generated_Source\PSoC5/Timer_sub_cycle.c **** * Parameters:
 350:.\Generated_Source\PSoC5/Timer_sub_cycle.c **** *  void
 351:.\Generated_Source\PSoC5/Timer_sub_cycle.c **** *
 352:.\Generated_Source\PSoC5/Timer_sub_cycle.c **** * Return:
 353:.\Generated_Source\PSoC5/Timer_sub_cycle.c **** *  The contents of the control register
 354:.\Generated_Source\PSoC5/Timer_sub_cycle.c **** *
 355:.\Generated_Source\PSoC5/Timer_sub_cycle.c **** *******************************************************************************/
 356:.\Generated_Source\PSoC5/Timer_sub_cycle.c **** uint8 Timer_sub_cycle_ReadControlRegister(void) 
 357:.\Generated_Source\PSoC5/Timer_sub_cycle.c **** {
 358:.\Generated_Source\PSoC5/Timer_sub_cycle.c ****     #if (!Timer_sub_cycle_UDB_CONTROL_REG_REMOVED) 
 359:.\Generated_Source\PSoC5/Timer_sub_cycle.c ****         return ((uint8)Timer_sub_cycle_CONTROL);
 360:.\Generated_Source\PSoC5/Timer_sub_cycle.c ****     #else
 361:.\Generated_Source\PSoC5/Timer_sub_cycle.c ****         return (0);
 362:.\Generated_Source\PSoC5/Timer_sub_cycle.c ****     #endif /* (!Timer_sub_cycle_UDB_CONTROL_REG_REMOVED) */
 363:.\Generated_Source\PSoC5/Timer_sub_cycle.c **** }
 364:.\Generated_Source\PSoC5/Timer_sub_cycle.c **** 
 365:.\Generated_Source\PSoC5/Timer_sub_cycle.c **** 
 366:.\Generated_Source\PSoC5/Timer_sub_cycle.c **** /*******************************************************************************
 367:.\Generated_Source\PSoC5/Timer_sub_cycle.c **** * Function Name: Timer_sub_cycle_WriteControlRegister
 368:.\Generated_Source\PSoC5/Timer_sub_cycle.c **** ********************************************************************************
 369:.\Generated_Source\PSoC5/Timer_sub_cycle.c **** *
 370:.\Generated_Source\PSoC5/Timer_sub_cycle.c **** * Summary:
 371:.\Generated_Source\PSoC5/Timer_sub_cycle.c **** *  Sets the bit-field of the control register.
ARM GAS  C:\Users\miyag\AppData\Local\Temp\ccP84OqR.s 			page 9


 372:.\Generated_Source\PSoC5/Timer_sub_cycle.c **** *
 373:.\Generated_Source\PSoC5/Timer_sub_cycle.c **** * Parameters:
 374:.\Generated_Source\PSoC5/Timer_sub_cycle.c **** *  control: The contents of the control register
 375:.\Generated_Source\PSoC5/Timer_sub_cycle.c **** *
 376:.\Generated_Source\PSoC5/Timer_sub_cycle.c **** * Return:
 377:.\Generated_Source\PSoC5/Timer_sub_cycle.c **** *
 378:.\Generated_Source\PSoC5/Timer_sub_cycle.c **** *******************************************************************************/
 379:.\Generated_Source\PSoC5/Timer_sub_cycle.c **** void Timer_sub_cycle_WriteControlRegister(uint8 control) 
 380:.\Generated_Source\PSoC5/Timer_sub_cycle.c **** {
 381:.\Generated_Source\PSoC5/Timer_sub_cycle.c ****     #if (!Timer_sub_cycle_UDB_CONTROL_REG_REMOVED) 
 382:.\Generated_Source\PSoC5/Timer_sub_cycle.c ****         Timer_sub_cycle_CONTROL = control;
 383:.\Generated_Source\PSoC5/Timer_sub_cycle.c ****     #else
 384:.\Generated_Source\PSoC5/Timer_sub_cycle.c ****         control = 0u;
 385:.\Generated_Source\PSoC5/Timer_sub_cycle.c ****     #endif /* (!Timer_sub_cycle_UDB_CONTROL_REG_REMOVED) */
 386:.\Generated_Source\PSoC5/Timer_sub_cycle.c **** }
 387:.\Generated_Source\PSoC5/Timer_sub_cycle.c **** 
 388:.\Generated_Source\PSoC5/Timer_sub_cycle.c **** #endif /* Remove API if control register is unused */
 389:.\Generated_Source\PSoC5/Timer_sub_cycle.c **** 
 390:.\Generated_Source\PSoC5/Timer_sub_cycle.c **** 
 391:.\Generated_Source\PSoC5/Timer_sub_cycle.c **** /*******************************************************************************
 392:.\Generated_Source\PSoC5/Timer_sub_cycle.c **** * Function Name: Timer_sub_cycle_ReadPeriod
 393:.\Generated_Source\PSoC5/Timer_sub_cycle.c **** ********************************************************************************
 394:.\Generated_Source\PSoC5/Timer_sub_cycle.c **** *
 395:.\Generated_Source\PSoC5/Timer_sub_cycle.c **** * Summary:
 396:.\Generated_Source\PSoC5/Timer_sub_cycle.c **** *  This function returns the current value of the Period.
 397:.\Generated_Source\PSoC5/Timer_sub_cycle.c **** *
 398:.\Generated_Source\PSoC5/Timer_sub_cycle.c **** * Parameters:
 399:.\Generated_Source\PSoC5/Timer_sub_cycle.c **** *  void
 400:.\Generated_Source\PSoC5/Timer_sub_cycle.c **** *
 401:.\Generated_Source\PSoC5/Timer_sub_cycle.c **** * Return:
 402:.\Generated_Source\PSoC5/Timer_sub_cycle.c **** *  The present value of the counter.
 403:.\Generated_Source\PSoC5/Timer_sub_cycle.c **** *
 404:.\Generated_Source\PSoC5/Timer_sub_cycle.c **** *******************************************************************************/
 405:.\Generated_Source\PSoC5/Timer_sub_cycle.c **** uint16 Timer_sub_cycle_ReadPeriod(void) 
 406:.\Generated_Source\PSoC5/Timer_sub_cycle.c **** {
 407:.\Generated_Source\PSoC5/Timer_sub_cycle.c ****    #if(Timer_sub_cycle_UsingFixedFunction)
 408:.\Generated_Source\PSoC5/Timer_sub_cycle.c ****        return ((uint16)CY_GET_REG16(Timer_sub_cycle_PERIOD_LSB_PTR));
 409:.\Generated_Source\PSoC5/Timer_sub_cycle.c ****    #else
 410:.\Generated_Source\PSoC5/Timer_sub_cycle.c ****        return (CY_GET_REG16(Timer_sub_cycle_PERIOD_LSB_PTR));
 411:.\Generated_Source\PSoC5/Timer_sub_cycle.c ****    #endif /* (Timer_sub_cycle_UsingFixedFunction) */
 412:.\Generated_Source\PSoC5/Timer_sub_cycle.c **** }
 413:.\Generated_Source\PSoC5/Timer_sub_cycle.c **** 
 414:.\Generated_Source\PSoC5/Timer_sub_cycle.c **** 
 415:.\Generated_Source\PSoC5/Timer_sub_cycle.c **** /*******************************************************************************
 416:.\Generated_Source\PSoC5/Timer_sub_cycle.c **** * Function Name: Timer_sub_cycle_WritePeriod
 417:.\Generated_Source\PSoC5/Timer_sub_cycle.c **** ********************************************************************************
 418:.\Generated_Source\PSoC5/Timer_sub_cycle.c **** *
 419:.\Generated_Source\PSoC5/Timer_sub_cycle.c **** * Summary:
 420:.\Generated_Source\PSoC5/Timer_sub_cycle.c **** *  This function is used to change the period of the counter.  The new period
 421:.\Generated_Source\PSoC5/Timer_sub_cycle.c **** *  will be loaded the next time terminal count is detected.
 422:.\Generated_Source\PSoC5/Timer_sub_cycle.c **** *
 423:.\Generated_Source\PSoC5/Timer_sub_cycle.c **** * Parameters:
 424:.\Generated_Source\PSoC5/Timer_sub_cycle.c **** *  period: This value may be between 1 and (2^Resolution)-1.  A value of 0 will
 425:.\Generated_Source\PSoC5/Timer_sub_cycle.c **** *          result in the counter remaining at zero.
 426:.\Generated_Source\PSoC5/Timer_sub_cycle.c **** *
 427:.\Generated_Source\PSoC5/Timer_sub_cycle.c **** * Return:
 428:.\Generated_Source\PSoC5/Timer_sub_cycle.c **** *  void
ARM GAS  C:\Users\miyag\AppData\Local\Temp\ccP84OqR.s 			page 10


 429:.\Generated_Source\PSoC5/Timer_sub_cycle.c **** *
 430:.\Generated_Source\PSoC5/Timer_sub_cycle.c **** *******************************************************************************/
 431:.\Generated_Source\PSoC5/Timer_sub_cycle.c **** void Timer_sub_cycle_WritePeriod(uint16 period) 
 432:.\Generated_Source\PSoC5/Timer_sub_cycle.c **** {
 433:.\Generated_Source\PSoC5/Timer_sub_cycle.c ****     #if(Timer_sub_cycle_UsingFixedFunction)
 434:.\Generated_Source\PSoC5/Timer_sub_cycle.c ****         uint16 period_temp = (uint16)period;
 435:.\Generated_Source\PSoC5/Timer_sub_cycle.c ****         CY_SET_REG16(Timer_sub_cycle_PERIOD_LSB_PTR, period_temp);
  86              		.loc 1 435 0
  87 0064 40F67133 		movw	r3, #2929
  88 0068 A2F80330 		strh	r3, [r2, #3]	@ movhi
  89              	.LVL1:
  90              	.LBE9:
  91              	.LBE8:
  92              	.LBB10:
  93              	.LBB11:
 436:.\Generated_Source\PSoC5/Timer_sub_cycle.c ****     #else
 437:.\Generated_Source\PSoC5/Timer_sub_cycle.c ****         CY_SET_REG16(Timer_sub_cycle_PERIOD_LSB_PTR, period);
 438:.\Generated_Source\PSoC5/Timer_sub_cycle.c ****     #endif /*Write Period value with appropriate resolution suffix depending on UDB or fixed functi
 439:.\Generated_Source\PSoC5/Timer_sub_cycle.c **** }
 440:.\Generated_Source\PSoC5/Timer_sub_cycle.c **** 
 441:.\Generated_Source\PSoC5/Timer_sub_cycle.c **** 
 442:.\Generated_Source\PSoC5/Timer_sub_cycle.c **** /*******************************************************************************
 443:.\Generated_Source\PSoC5/Timer_sub_cycle.c **** * Function Name: Timer_sub_cycle_ReadCapture
 444:.\Generated_Source\PSoC5/Timer_sub_cycle.c **** ********************************************************************************
 445:.\Generated_Source\PSoC5/Timer_sub_cycle.c **** *
 446:.\Generated_Source\PSoC5/Timer_sub_cycle.c **** * Summary:
 447:.\Generated_Source\PSoC5/Timer_sub_cycle.c **** *  This function returns the last value captured.
 448:.\Generated_Source\PSoC5/Timer_sub_cycle.c **** *
 449:.\Generated_Source\PSoC5/Timer_sub_cycle.c **** * Parameters:
 450:.\Generated_Source\PSoC5/Timer_sub_cycle.c **** *  void
 451:.\Generated_Source\PSoC5/Timer_sub_cycle.c **** *
 452:.\Generated_Source\PSoC5/Timer_sub_cycle.c **** * Return:
 453:.\Generated_Source\PSoC5/Timer_sub_cycle.c **** *  Present Capture value.
 454:.\Generated_Source\PSoC5/Timer_sub_cycle.c **** *
 455:.\Generated_Source\PSoC5/Timer_sub_cycle.c **** *******************************************************************************/
 456:.\Generated_Source\PSoC5/Timer_sub_cycle.c **** uint16 Timer_sub_cycle_ReadCapture(void) 
 457:.\Generated_Source\PSoC5/Timer_sub_cycle.c **** {
 458:.\Generated_Source\PSoC5/Timer_sub_cycle.c ****    #if(Timer_sub_cycle_UsingFixedFunction)
 459:.\Generated_Source\PSoC5/Timer_sub_cycle.c ****        return ((uint16)CY_GET_REG16(Timer_sub_cycle_CAPTURE_LSB_PTR));
 460:.\Generated_Source\PSoC5/Timer_sub_cycle.c ****    #else
 461:.\Generated_Source\PSoC5/Timer_sub_cycle.c ****        return (CY_GET_REG16(Timer_sub_cycle_CAPTURE_LSB_PTR));
 462:.\Generated_Source\PSoC5/Timer_sub_cycle.c ****    #endif /* (Timer_sub_cycle_UsingFixedFunction) */
 463:.\Generated_Source\PSoC5/Timer_sub_cycle.c **** }
 464:.\Generated_Source\PSoC5/Timer_sub_cycle.c **** 
 465:.\Generated_Source\PSoC5/Timer_sub_cycle.c **** 
 466:.\Generated_Source\PSoC5/Timer_sub_cycle.c **** /*******************************************************************************
 467:.\Generated_Source\PSoC5/Timer_sub_cycle.c **** * Function Name: Timer_sub_cycle_WriteCounter
 468:.\Generated_Source\PSoC5/Timer_sub_cycle.c **** ********************************************************************************
 469:.\Generated_Source\PSoC5/Timer_sub_cycle.c **** *
 470:.\Generated_Source\PSoC5/Timer_sub_cycle.c **** * Summary:
 471:.\Generated_Source\PSoC5/Timer_sub_cycle.c **** *  This funtion is used to set the counter to a specific value
 472:.\Generated_Source\PSoC5/Timer_sub_cycle.c **** *
 473:.\Generated_Source\PSoC5/Timer_sub_cycle.c **** * Parameters:
 474:.\Generated_Source\PSoC5/Timer_sub_cycle.c **** *  counter:  New counter value.
 475:.\Generated_Source\PSoC5/Timer_sub_cycle.c **** *
 476:.\Generated_Source\PSoC5/Timer_sub_cycle.c **** * Return:
 477:.\Generated_Source\PSoC5/Timer_sub_cycle.c **** *  void
ARM GAS  C:\Users\miyag\AppData\Local\Temp\ccP84OqR.s 			page 11


 478:.\Generated_Source\PSoC5/Timer_sub_cycle.c **** *
 479:.\Generated_Source\PSoC5/Timer_sub_cycle.c **** *******************************************************************************/
 480:.\Generated_Source\PSoC5/Timer_sub_cycle.c **** void Timer_sub_cycle_WriteCounter(uint16 counter) 
 481:.\Generated_Source\PSoC5/Timer_sub_cycle.c **** {
 482:.\Generated_Source\PSoC5/Timer_sub_cycle.c ****    #if(Timer_sub_cycle_UsingFixedFunction)
 483:.\Generated_Source\PSoC5/Timer_sub_cycle.c ****         /* This functionality is removed until a FixedFunction HW update to
 484:.\Generated_Source\PSoC5/Timer_sub_cycle.c ****          * allow this register to be written
 485:.\Generated_Source\PSoC5/Timer_sub_cycle.c ****          */
 486:.\Generated_Source\PSoC5/Timer_sub_cycle.c ****         CY_SET_REG16(Timer_sub_cycle_COUNTER_LSB_PTR, (uint16)counter);
  94              		.loc 1 486 0
  95 006c A2F80530 		strh	r3, [r2, #5]	@ movhi
  96              	.LVL2:
  97              	.LBE11:
  98              	.LBE10:
  99              	.LBB12:
 100              	.LBB13:
 281:.\Generated_Source\PSoC5/Timer_sub_cycle.c **** }
 101              		.loc 1 281 0
 102 0070 044B     		ldr	r3, .L2+12
 103 0072 0822     		movs	r2, #8
 104 0074 1A70     		strb	r2, [r3]
 105 0076 7047     		bx	lr
 106              	.L3:
 107              		.align	2
 108              	.L2:
 109 0078 004F0040 		.word	1073762048
 110 007c 024F0040 		.word	1073762050
 111 0080 014F0040 		.word	1073762049
 112 0084 034F0040 		.word	1073762051
 113              	.LBE13:
 114              	.LBE12:
 115              		.cfi_endproc
 116              	.LFE0:
 117              		.size	Timer_sub_cycle_Init, .-Timer_sub_cycle_Init
 118              		.section	.text.Timer_sub_cycle_Enable,"ax",%progbits
 119              		.align	1
 120              		.global	Timer_sub_cycle_Enable
 121              		.thumb
 122              		.thumb_func
 123              		.type	Timer_sub_cycle_Enable, %function
 124              	Timer_sub_cycle_Enable:
 125              	.LFB1:
 181:.\Generated_Source\PSoC5/Timer_sub_cycle.c ****     /* Globally Enable the Fixed Function Block chosen */
 126              		.loc 1 181 0
 127              		.cfi_startproc
 128              		@ args = 0, pretend = 0, frame = 0
 129              		@ frame_needed = 0, uses_anonymous_args = 0
 130              		@ link register save eliminated.
 184:.\Generated_Source\PSoC5/Timer_sub_cycle.c ****         Timer_sub_cycle_GLOBAL_STBY_ENABLE |= Timer_sub_cycle_BLOCK_STBY_EN_MASK;
 131              		.loc 1 184 0
 132 0000 074A     		ldr	r2, .L5
 133 0002 1378     		ldrb	r3, [r2]	@ zero_extendqisi2
 134 0004 43F00103 		orr	r3, r3, #1
 135 0008 1370     		strb	r3, [r2]
 185:.\Generated_Source\PSoC5/Timer_sub_cycle.c ****     #endif /* Set Enable bit for enabling Fixed function timer*/
 136              		.loc 1 185 0
 137 000a 137C     		ldrb	r3, [r2, #16]	@ zero_extendqisi2
ARM GAS  C:\Users\miyag\AppData\Local\Temp\ccP84OqR.s 			page 12


 138 000c 43F00103 		orr	r3, r3, #1
 139 0010 1374     		strb	r3, [r2, #16]
 190:.\Generated_Source\PSoC5/Timer_sub_cycle.c ****     #endif /* Remove assignment if control register is removed */
 140              		.loc 1 190 0
 141 0012 92F85D3B 		ldrb	r3, [r2, #2909]	@ zero_extendqisi2
 142 0016 43F00103 		orr	r3, r3, #1
 143 001a 82F85D3B 		strb	r3, [r2, #2909]
 144 001e 7047     		bx	lr
 145              	.L6:
 146              		.align	2
 147              	.L5:
 148 0020 A3430040 		.word	1073759139
 149              		.cfi_endproc
 150              	.LFE1:
 151              		.size	Timer_sub_cycle_Enable, .-Timer_sub_cycle_Enable
 152              		.section	.text.Timer_sub_cycle_Start,"ax",%progbits
 153              		.align	1
 154              		.global	Timer_sub_cycle_Start
 155              		.thumb
 156              		.thumb_func
 157              		.type	Timer_sub_cycle_Start, %function
 158              	Timer_sub_cycle_Start:
 159              	.LFB2:
 216:.\Generated_Source\PSoC5/Timer_sub_cycle.c ****     if(Timer_sub_cycle_initVar == 0u)
 160              		.loc 1 216 0
 161              		.cfi_startproc
 162              		@ args = 0, pretend = 0, frame = 0
 163              		@ frame_needed = 0, uses_anonymous_args = 0
 164 0000 10B5     		push	{r4, lr}
 165              		.cfi_def_cfa_offset 8
 166              		.cfi_offset 4, -8
 167              		.cfi_offset 14, -4
 217:.\Generated_Source\PSoC5/Timer_sub_cycle.c ****     {
 168              		.loc 1 217 0
 169 0002 054C     		ldr	r4, .L10
 170 0004 2378     		ldrb	r3, [r4]	@ zero_extendqisi2
 171 0006 1BB9     		cbnz	r3, .L8
 219:.\Generated_Source\PSoC5/Timer_sub_cycle.c **** 
 172              		.loc 1 219 0
 173 0008 FFF7FEFF 		bl	Timer_sub_cycle_Init
 174              	.LVL3:
 221:.\Generated_Source\PSoC5/Timer_sub_cycle.c ****     }
 175              		.loc 1 221 0
 176 000c 0123     		movs	r3, #1
 177 000e 2370     		strb	r3, [r4]
 178              	.L8:
 226:.\Generated_Source\PSoC5/Timer_sub_cycle.c **** 
 179              		.loc 1 226 0
 180 0010 BDE81040 		pop	{r4, lr}
 181              		.cfi_restore 14
 182              		.cfi_restore 4
 183              		.cfi_def_cfa_offset 0
 225:.\Generated_Source\PSoC5/Timer_sub_cycle.c **** }
 184              		.loc 1 225 0
 185 0014 FFF7FEBF 		b	Timer_sub_cycle_Enable
 186              	.LVL4:
 187              	.L11:
ARM GAS  C:\Users\miyag\AppData\Local\Temp\ccP84OqR.s 			page 13


 188              		.align	2
 189              	.L10:
 190 0018 00000000 		.word	.LANCHOR0
 191              		.cfi_endproc
 192              	.LFE2:
 193              		.size	Timer_sub_cycle_Start, .-Timer_sub_cycle_Start
 194              		.section	.text.Timer_sub_cycle_Stop,"ax",%progbits
 195              		.align	1
 196              		.global	Timer_sub_cycle_Stop
 197              		.thumb
 198              		.thumb_func
 199              		.type	Timer_sub_cycle_Stop, %function
 200              	Timer_sub_cycle_Stop:
 201              	.LFB3:
 248:.\Generated_Source\PSoC5/Timer_sub_cycle.c ****     /* Disable Timer */
 202              		.loc 1 248 0
 203              		.cfi_startproc
 204              		@ args = 0, pretend = 0, frame = 0
 205              		@ frame_needed = 0, uses_anonymous_args = 0
 206              		@ link register save eliminated.
 251:.\Generated_Source\PSoC5/Timer_sub_cycle.c ****     #endif /* Remove assignment if control register is removed */
 207              		.loc 1 251 0
 208 0000 084A     		ldr	r2, .L13
 209 0002 1378     		ldrb	r3, [r2]	@ zero_extendqisi2
 256:.\Generated_Source\PSoC5/Timer_sub_cycle.c ****         Timer_sub_cycle_GLOBAL_STBY_ENABLE &= ((uint8)(~Timer_sub_cycle_BLOCK_STBY_EN_MASK));
 210              		.loc 1 256 0
 211 0004 A2F65D32 		subw	r2, r2, #2909
 251:.\Generated_Source\PSoC5/Timer_sub_cycle.c ****     #endif /* Remove assignment if control register is removed */
 212              		.loc 1 251 0
 213 0008 03F0FE03 		and	r3, r3, #254
 214 000c 82F85D3B 		strb	r3, [r2, #2909]
 256:.\Generated_Source\PSoC5/Timer_sub_cycle.c ****         Timer_sub_cycle_GLOBAL_STBY_ENABLE &= ((uint8)(~Timer_sub_cycle_BLOCK_STBY_EN_MASK));
 215              		.loc 1 256 0
 216 0010 1378     		ldrb	r3, [r2]	@ zero_extendqisi2
 217 0012 03F0FE03 		and	r3, r3, #254
 218 0016 1370     		strb	r3, [r2]
 257:.\Generated_Source\PSoC5/Timer_sub_cycle.c ****     #endif /* Disable global enable for the Timer Fixed function block to stop the Timer*/
 219              		.loc 1 257 0
 220 0018 137C     		ldrb	r3, [r2, #16]	@ zero_extendqisi2
 221 001a 03F0FE03 		and	r3, r3, #254
 222 001e 1374     		strb	r3, [r2, #16]
 223 0020 7047     		bx	lr
 224              	.L14:
 225 0022 00BF     		.align	2
 226              	.L13:
 227 0024 004F0040 		.word	1073762048
 228              		.cfi_endproc
 229              	.LFE3:
 230              		.size	Timer_sub_cycle_Stop, .-Timer_sub_cycle_Stop
 231              		.section	.text.Timer_sub_cycle_SetInterruptMode,"ax",%progbits
 232              		.align	1
 233              		.global	Timer_sub_cycle_SetInterruptMode
 234              		.thumb
 235              		.thumb_func
 236              		.type	Timer_sub_cycle_SetInterruptMode, %function
 237              	Timer_sub_cycle_SetInterruptMode:
 238              	.LFB4:
ARM GAS  C:\Users\miyag\AppData\Local\Temp\ccP84OqR.s 			page 14


 280:.\Generated_Source\PSoC5/Timer_sub_cycle.c ****     Timer_sub_cycle_STATUS_MASK = interruptMode;
 239              		.loc 1 280 0
 240              		.cfi_startproc
 241              		@ args = 0, pretend = 0, frame = 0
 242              		@ frame_needed = 0, uses_anonymous_args = 0
 243              		@ link register save eliminated.
 244              	.LVL5:
 281:.\Generated_Source\PSoC5/Timer_sub_cycle.c **** }
 245              		.loc 1 281 0
 246 0000 014B     		ldr	r3, .L16
 247 0002 1870     		strb	r0, [r3]
 248 0004 7047     		bx	lr
 249              	.L17:
 250 0006 00BF     		.align	2
 251              	.L16:
 252 0008 034F0040 		.word	1073762051
 253              		.cfi_endproc
 254              	.LFE4:
 255              		.size	Timer_sub_cycle_SetInterruptMode, .-Timer_sub_cycle_SetInterruptMode
 256              		.section	.text.Timer_sub_cycle_SoftwareCapture,"ax",%progbits
 257              		.align	1
 258              		.global	Timer_sub_cycle_SoftwareCapture
 259              		.thumb
 260              		.thumb_func
 261              		.type	Timer_sub_cycle_SoftwareCapture, %function
 262              	Timer_sub_cycle_SoftwareCapture:
 263              	.LFB5:
 303:.\Generated_Source\PSoC5/Timer_sub_cycle.c ****     /* Generate a software capture by reading the counter register */
 264              		.loc 1 303 0
 265              		.cfi_startproc
 266              		@ args = 0, pretend = 0, frame = 0
 267              		@ frame_needed = 0, uses_anonymous_args = 0
 268              		@ link register save eliminated.
 306:.\Generated_Source\PSoC5/Timer_sub_cycle.c ****     #else
 269              		.loc 1 306 0
 270 0000 014B     		ldr	r3, .L19
 271 0002 1B88     		ldrh	r3, [r3]
 272 0004 7047     		bx	lr
 273              	.L20:
 274 0006 00BF     		.align	2
 275              	.L19:
 276 0008 064F0040 		.word	1073762054
 277              		.cfi_endproc
 278              	.LFE5:
 279              		.size	Timer_sub_cycle_SoftwareCapture, .-Timer_sub_cycle_SoftwareCapture
 280              		.section	.text.Timer_sub_cycle_ReadStatusRegister,"ax",%progbits
 281              		.align	1
 282              		.global	Timer_sub_cycle_ReadStatusRegister
 283              		.thumb
 284              		.thumb_func
 285              		.type	Timer_sub_cycle_ReadStatusRegister, %function
 286              	Timer_sub_cycle_ReadStatusRegister:
 287              	.LFB6:
 334:.\Generated_Source\PSoC5/Timer_sub_cycle.c ****     return (Timer_sub_cycle_STATUS);
 288              		.loc 1 334 0
 289              		.cfi_startproc
 290              		@ args = 0, pretend = 0, frame = 0
ARM GAS  C:\Users\miyag\AppData\Local\Temp\ccP84OqR.s 			page 15


 291              		@ frame_needed = 0, uses_anonymous_args = 0
 292              		@ link register save eliminated.
 335:.\Generated_Source\PSoC5/Timer_sub_cycle.c **** }
 293              		.loc 1 335 0
 294 0000 014B     		ldr	r3, .L22
 295 0002 1878     		ldrb	r0, [r3]	@ zero_extendqisi2
 336:.\Generated_Source\PSoC5/Timer_sub_cycle.c **** 
 296              		.loc 1 336 0
 297 0004 7047     		bx	lr
 298              	.L23:
 299 0006 00BF     		.align	2
 300              	.L22:
 301 0008 034F0040 		.word	1073762051
 302              		.cfi_endproc
 303              	.LFE6:
 304              		.size	Timer_sub_cycle_ReadStatusRegister, .-Timer_sub_cycle_ReadStatusRegister
 305              		.section	.text.Timer_sub_cycle_ReadControlRegister,"ax",%progbits
 306              		.align	1
 307              		.global	Timer_sub_cycle_ReadControlRegister
 308              		.thumb
 309              		.thumb_func
 310              		.type	Timer_sub_cycle_ReadControlRegister, %function
 311              	Timer_sub_cycle_ReadControlRegister:
 312              	.LFB7:
 357:.\Generated_Source\PSoC5/Timer_sub_cycle.c ****     #if (!Timer_sub_cycle_UDB_CONTROL_REG_REMOVED) 
 313              		.loc 1 357 0
 314              		.cfi_startproc
 315              		@ args = 0, pretend = 0, frame = 0
 316              		@ frame_needed = 0, uses_anonymous_args = 0
 317              		@ link register save eliminated.
 359:.\Generated_Source\PSoC5/Timer_sub_cycle.c ****     #else
 318              		.loc 1 359 0
 319 0000 014B     		ldr	r3, .L25
 320 0002 1878     		ldrb	r0, [r3]	@ zero_extendqisi2
 363:.\Generated_Source\PSoC5/Timer_sub_cycle.c **** 
 321              		.loc 1 363 0
 322 0004 7047     		bx	lr
 323              	.L26:
 324 0006 00BF     		.align	2
 325              	.L25:
 326 0008 004F0040 		.word	1073762048
 327              		.cfi_endproc
 328              	.LFE7:
 329              		.size	Timer_sub_cycle_ReadControlRegister, .-Timer_sub_cycle_ReadControlRegister
 330              		.section	.text.Timer_sub_cycle_WriteControlRegister,"ax",%progbits
 331              		.align	1
 332              		.global	Timer_sub_cycle_WriteControlRegister
 333              		.thumb
 334              		.thumb_func
 335              		.type	Timer_sub_cycle_WriteControlRegister, %function
 336              	Timer_sub_cycle_WriteControlRegister:
 337              	.LFB8:
 380:.\Generated_Source\PSoC5/Timer_sub_cycle.c ****     #if (!Timer_sub_cycle_UDB_CONTROL_REG_REMOVED) 
 338              		.loc 1 380 0
 339              		.cfi_startproc
 340              		@ args = 0, pretend = 0, frame = 0
 341              		@ frame_needed = 0, uses_anonymous_args = 0
ARM GAS  C:\Users\miyag\AppData\Local\Temp\ccP84OqR.s 			page 16


 342              		@ link register save eliminated.
 343              	.LVL6:
 382:.\Generated_Source\PSoC5/Timer_sub_cycle.c ****     #else
 344              		.loc 1 382 0
 345 0000 014B     		ldr	r3, .L28
 346 0002 1870     		strb	r0, [r3]
 347 0004 7047     		bx	lr
 348              	.L29:
 349 0006 00BF     		.align	2
 350              	.L28:
 351 0008 004F0040 		.word	1073762048
 352              		.cfi_endproc
 353              	.LFE8:
 354              		.size	Timer_sub_cycle_WriteControlRegister, .-Timer_sub_cycle_WriteControlRegister
 355              		.section	.text.Timer_sub_cycle_ReadPeriod,"ax",%progbits
 356              		.align	1
 357              		.global	Timer_sub_cycle_ReadPeriod
 358              		.thumb
 359              		.thumb_func
 360              		.type	Timer_sub_cycle_ReadPeriod, %function
 361              	Timer_sub_cycle_ReadPeriod:
 362              	.LFB9:
 406:.\Generated_Source\PSoC5/Timer_sub_cycle.c ****    #if(Timer_sub_cycle_UsingFixedFunction)
 363              		.loc 1 406 0
 364              		.cfi_startproc
 365              		@ args = 0, pretend = 0, frame = 0
 366              		@ frame_needed = 0, uses_anonymous_args = 0
 367              		@ link register save eliminated.
 408:.\Generated_Source\PSoC5/Timer_sub_cycle.c ****    #else
 368              		.loc 1 408 0
 369 0000 014B     		ldr	r3, .L31
 370 0002 1888     		ldrh	r0, [r3]
 412:.\Generated_Source\PSoC5/Timer_sub_cycle.c **** 
 371              		.loc 1 412 0
 372 0004 80B2     		uxth	r0, r0
 373 0006 7047     		bx	lr
 374              	.L32:
 375              		.align	2
 376              	.L31:
 377 0008 044F0040 		.word	1073762052
 378              		.cfi_endproc
 379              	.LFE9:
 380              		.size	Timer_sub_cycle_ReadPeriod, .-Timer_sub_cycle_ReadPeriod
 381              		.section	.text.Timer_sub_cycle_WritePeriod,"ax",%progbits
 382              		.align	1
 383              		.global	Timer_sub_cycle_WritePeriod
 384              		.thumb
 385              		.thumb_func
 386              		.type	Timer_sub_cycle_WritePeriod, %function
 387              	Timer_sub_cycle_WritePeriod:
 388              	.LFB10:
 432:.\Generated_Source\PSoC5/Timer_sub_cycle.c ****     #if(Timer_sub_cycle_UsingFixedFunction)
 389              		.loc 1 432 0
 390              		.cfi_startproc
 391              		@ args = 0, pretend = 0, frame = 0
 392              		@ frame_needed = 0, uses_anonymous_args = 0
 393              		@ link register save eliminated.
ARM GAS  C:\Users\miyag\AppData\Local\Temp\ccP84OqR.s 			page 17


 394              	.LVL7:
 435:.\Generated_Source\PSoC5/Timer_sub_cycle.c ****     #else
 395              		.loc 1 435 0
 396 0000 014B     		ldr	r3, .L34
 397 0002 1880     		strh	r0, [r3]	@ movhi
 398 0004 7047     		bx	lr
 399              	.L35:
 400 0006 00BF     		.align	2
 401              	.L34:
 402 0008 044F0040 		.word	1073762052
 403              		.cfi_endproc
 404              	.LFE10:
 405              		.size	Timer_sub_cycle_WritePeriod, .-Timer_sub_cycle_WritePeriod
 406              		.section	.text.Timer_sub_cycle_ReadCapture,"ax",%progbits
 407              		.align	1
 408              		.global	Timer_sub_cycle_ReadCapture
 409              		.thumb
 410              		.thumb_func
 411              		.type	Timer_sub_cycle_ReadCapture, %function
 412              	Timer_sub_cycle_ReadCapture:
 413              	.LFB11:
 457:.\Generated_Source\PSoC5/Timer_sub_cycle.c ****    #if(Timer_sub_cycle_UsingFixedFunction)
 414              		.loc 1 457 0
 415              		.cfi_startproc
 416              		@ args = 0, pretend = 0, frame = 0
 417              		@ frame_needed = 0, uses_anonymous_args = 0
 418              		@ link register save eliminated.
 459:.\Generated_Source\PSoC5/Timer_sub_cycle.c ****    #else
 419              		.loc 1 459 0
 420 0000 014B     		ldr	r3, .L37
 421 0002 1888     		ldrh	r0, [r3]
 463:.\Generated_Source\PSoC5/Timer_sub_cycle.c **** 
 422              		.loc 1 463 0
 423 0004 80B2     		uxth	r0, r0
 424 0006 7047     		bx	lr
 425              	.L38:
 426              		.align	2
 427              	.L37:
 428 0008 084F0040 		.word	1073762056
 429              		.cfi_endproc
 430              	.LFE11:
 431              		.size	Timer_sub_cycle_ReadCapture, .-Timer_sub_cycle_ReadCapture
 432              		.section	.text.Timer_sub_cycle_WriteCounter,"ax",%progbits
 433              		.align	1
 434              		.global	Timer_sub_cycle_WriteCounter
 435              		.thumb
 436              		.thumb_func
 437              		.type	Timer_sub_cycle_WriteCounter, %function
 438              	Timer_sub_cycle_WriteCounter:
 439              	.LFB12:
 481:.\Generated_Source\PSoC5/Timer_sub_cycle.c ****    #if(Timer_sub_cycle_UsingFixedFunction)
 440              		.loc 1 481 0
 441              		.cfi_startproc
 442              		@ args = 0, pretend = 0, frame = 0
 443              		@ frame_needed = 0, uses_anonymous_args = 0
 444              		@ link register save eliminated.
 445              	.LVL8:
ARM GAS  C:\Users\miyag\AppData\Local\Temp\ccP84OqR.s 			page 18


 446              		.loc 1 486 0
 447 0000 014B     		ldr	r3, .L40
 448 0002 1880     		strh	r0, [r3]	@ movhi
 449 0004 7047     		bx	lr
 450              	.L41:
 451 0006 00BF     		.align	2
 452              	.L40:
 453 0008 064F0040 		.word	1073762054
 454              		.cfi_endproc
 455              	.LFE12:
 456              		.size	Timer_sub_cycle_WriteCounter, .-Timer_sub_cycle_WriteCounter
 457              		.section	.text.Timer_sub_cycle_ReadCounter,"ax",%progbits
 458              		.align	1
 459              		.global	Timer_sub_cycle_ReadCounter
 460              		.thumb
 461              		.thumb_func
 462              		.type	Timer_sub_cycle_ReadCounter, %function
 463              	Timer_sub_cycle_ReadCounter:
 464              	.LFB13:
 487:.\Generated_Source\PSoC5/Timer_sub_cycle.c ****         
 488:.\Generated_Source\PSoC5/Timer_sub_cycle.c ****     #else
 489:.\Generated_Source\PSoC5/Timer_sub_cycle.c ****         CY_SET_REG16(Timer_sub_cycle_COUNTER_LSB_PTR, counter);
 490:.\Generated_Source\PSoC5/Timer_sub_cycle.c ****     #endif /* Set Write Counter only for the UDB implementation (Write Counter not available in fix
 491:.\Generated_Source\PSoC5/Timer_sub_cycle.c **** }
 492:.\Generated_Source\PSoC5/Timer_sub_cycle.c **** 
 493:.\Generated_Source\PSoC5/Timer_sub_cycle.c **** 
 494:.\Generated_Source\PSoC5/Timer_sub_cycle.c **** /*******************************************************************************
 495:.\Generated_Source\PSoC5/Timer_sub_cycle.c **** * Function Name: Timer_sub_cycle_ReadCounter
 496:.\Generated_Source\PSoC5/Timer_sub_cycle.c **** ********************************************************************************
 497:.\Generated_Source\PSoC5/Timer_sub_cycle.c **** *
 498:.\Generated_Source\PSoC5/Timer_sub_cycle.c **** * Summary:
 499:.\Generated_Source\PSoC5/Timer_sub_cycle.c **** *  This function returns the current counter value.
 500:.\Generated_Source\PSoC5/Timer_sub_cycle.c **** *
 501:.\Generated_Source\PSoC5/Timer_sub_cycle.c **** * Parameters:
 502:.\Generated_Source\PSoC5/Timer_sub_cycle.c **** *  void
 503:.\Generated_Source\PSoC5/Timer_sub_cycle.c **** *
 504:.\Generated_Source\PSoC5/Timer_sub_cycle.c **** * Return:
 505:.\Generated_Source\PSoC5/Timer_sub_cycle.c **** *  Present compare value.
 506:.\Generated_Source\PSoC5/Timer_sub_cycle.c **** *
 507:.\Generated_Source\PSoC5/Timer_sub_cycle.c **** *******************************************************************************/
 508:.\Generated_Source\PSoC5/Timer_sub_cycle.c **** uint16 Timer_sub_cycle_ReadCounter(void) 
 509:.\Generated_Source\PSoC5/Timer_sub_cycle.c **** {
 465              		.loc 1 509 0
 466              		.cfi_startproc
 467              		@ args = 0, pretend = 0, frame = 0
 468              		@ frame_needed = 0, uses_anonymous_args = 0
 469              		@ link register save eliminated.
 510:.\Generated_Source\PSoC5/Timer_sub_cycle.c ****     /* Force capture by reading Accumulator */
 511:.\Generated_Source\PSoC5/Timer_sub_cycle.c ****     /* Must first do a software capture to be able to read the counter */
 512:.\Generated_Source\PSoC5/Timer_sub_cycle.c ****     /* It is up to the user code to make sure there isn't already captured data in the FIFO */
 513:.\Generated_Source\PSoC5/Timer_sub_cycle.c ****     #if(Timer_sub_cycle_UsingFixedFunction)
 514:.\Generated_Source\PSoC5/Timer_sub_cycle.c ****         (void)CY_GET_REG16(Timer_sub_cycle_COUNTER_LSB_PTR);
 470              		.loc 1 514 0
 471 0000 024B     		ldr	r3, .L43
 472 0002 1B88     		ldrh	r3, [r3]
 515:.\Generated_Source\PSoC5/Timer_sub_cycle.c ****     #else
 516:.\Generated_Source\PSoC5/Timer_sub_cycle.c ****         (void)CY_GET_REG8(Timer_sub_cycle_COUNTER_LSB_PTR_8BIT);
ARM GAS  C:\Users\miyag\AppData\Local\Temp\ccP84OqR.s 			page 19


 517:.\Generated_Source\PSoC5/Timer_sub_cycle.c ****     #endif/* (Timer_sub_cycle_UsingFixedFunction) */
 518:.\Generated_Source\PSoC5/Timer_sub_cycle.c **** 
 519:.\Generated_Source\PSoC5/Timer_sub_cycle.c ****     /* Read the data from the FIFO (or capture register for Fixed Function)*/
 520:.\Generated_Source\PSoC5/Timer_sub_cycle.c ****     #if(Timer_sub_cycle_UsingFixedFunction)
 521:.\Generated_Source\PSoC5/Timer_sub_cycle.c ****         return ((uint16)CY_GET_REG16(Timer_sub_cycle_CAPTURE_LSB_PTR));
 473              		.loc 1 521 0
 474 0004 024B     		ldr	r3, .L43+4
 475 0006 1888     		ldrh	r0, [r3]
 522:.\Generated_Source\PSoC5/Timer_sub_cycle.c ****     #else
 523:.\Generated_Source\PSoC5/Timer_sub_cycle.c ****         return (CY_GET_REG16(Timer_sub_cycle_CAPTURE_LSB_PTR));
 524:.\Generated_Source\PSoC5/Timer_sub_cycle.c ****     #endif /* (Timer_sub_cycle_UsingFixedFunction) */
 525:.\Generated_Source\PSoC5/Timer_sub_cycle.c **** }
 476              		.loc 1 525 0
 477 0008 80B2     		uxth	r0, r0
 478 000a 7047     		bx	lr
 479              	.L44:
 480              		.align	2
 481              	.L43:
 482 000c 064F0040 		.word	1073762054
 483 0010 084F0040 		.word	1073762056
 484              		.cfi_endproc
 485              	.LFE13:
 486              		.size	Timer_sub_cycle_ReadCounter, .-Timer_sub_cycle_ReadCounter
 487              		.global	Timer_sub_cycle_initVar
 488              		.bss
 489              		.set	.LANCHOR0,. + 0
 490              		.type	Timer_sub_cycle_initVar, %object
 491              		.size	Timer_sub_cycle_initVar, 1
 492              	Timer_sub_cycle_initVar:
 493 0000 00       		.space	1
 494              		.text
 495              	.Letext0:
 496              		.file 2 ".\\Generated_Source\\PSoC5\\cytypes.h"