ARM GAS  C:\Users\miyag\AppData\Local\Temp\ccphtVl4.s 			page 1


   1              		.syntax unified
   2              		.cpu cortex-m3
   3              		.fpu softvfp
   4              		.eabi_attribute 20, 1
   5              		.eabi_attribute 21, 1
   6              		.eabi_attribute 23, 3
   7              		.eabi_attribute 24, 1
   8              		.eabi_attribute 25, 1
   9              		.eabi_attribute 26, 1
  10              		.eabi_attribute 30, 4
  11              		.eabi_attribute 34, 1
  12              		.eabi_attribute 18, 4
  13              		.thumb
  14              		.file	"USBUART_1_std.c"
  15              		.text
  16              	.Ltext0:
  17              		.cfi_sections	.debug_frame
  18              		.section	.text.USBUART_1_ReadDieID,"ax",%progbits
  19              		.align	1
  20              		.global	USBUART_1_ReadDieID
  21              		.thumb
  22              		.thumb_func
  23              		.type	USBUART_1_ReadDieID, %function
  24              	USBUART_1_ReadDieID:
  25              	.LFB1:
  26              		.file 1 ".\\Generated_Source\\PSoC5\\USBUART_1_std.c"
   1:.\Generated_Source\PSoC5/USBUART_1_std.c **** /***************************************************************************//**
   2:.\Generated_Source\PSoC5/USBUART_1_std.c **** * \file USBUART_1_std.c
   3:.\Generated_Source\PSoC5/USBUART_1_std.c **** * \version 3.0
   4:.\Generated_Source\PSoC5/USBUART_1_std.c **** *
   5:.\Generated_Source\PSoC5/USBUART_1_std.c **** * \brief
   6:.\Generated_Source\PSoC5/USBUART_1_std.c **** *  This file contains the USB Standard request handler.
   7:.\Generated_Source\PSoC5/USBUART_1_std.c **** *
   8:.\Generated_Source\PSoC5/USBUART_1_std.c **** ********************************************************************************
   9:.\Generated_Source\PSoC5/USBUART_1_std.c **** * \copyright
  10:.\Generated_Source\PSoC5/USBUART_1_std.c **** * Copyright 2008-2015, Cypress Semiconductor Corporation.  All rights reserved.
  11:.\Generated_Source\PSoC5/USBUART_1_std.c **** * You may use this file only in accordance with the license, terms, conditions,
  12:.\Generated_Source\PSoC5/USBUART_1_std.c **** * disclaimers, and limitations in the end user license agreement accompanying
  13:.\Generated_Source\PSoC5/USBUART_1_std.c **** * the software package with which this file was provided.
  14:.\Generated_Source\PSoC5/USBUART_1_std.c **** *******************************************************************************/
  15:.\Generated_Source\PSoC5/USBUART_1_std.c **** 
  16:.\Generated_Source\PSoC5/USBUART_1_std.c **** #include "USBUART_1_pvt.h"
  17:.\Generated_Source\PSoC5/USBUART_1_std.c **** 
  18:.\Generated_Source\PSoC5/USBUART_1_std.c **** /***************************************
  19:.\Generated_Source\PSoC5/USBUART_1_std.c **** *   Static data allocation
  20:.\Generated_Source\PSoC5/USBUART_1_std.c **** ***************************************/
  21:.\Generated_Source\PSoC5/USBUART_1_std.c **** 
  22:.\Generated_Source\PSoC5/USBUART_1_std.c **** #if defined(USBUART_1_ENABLE_FWSN_STRING)
  23:.\Generated_Source\PSoC5/USBUART_1_std.c ****     static volatile uint8* USBUART_1_fwSerialNumberStringDescriptor;
  24:.\Generated_Source\PSoC5/USBUART_1_std.c ****     static volatile uint8  USBUART_1_snStringConfirm = USBUART_1_FALSE;
  25:.\Generated_Source\PSoC5/USBUART_1_std.c **** #endif  /* (USBUART_1_ENABLE_FWSN_STRING) */
  26:.\Generated_Source\PSoC5/USBUART_1_std.c **** 
  27:.\Generated_Source\PSoC5/USBUART_1_std.c **** #if defined(USBUART_1_ENABLE_FWSN_STRING)
  28:.\Generated_Source\PSoC5/USBUART_1_std.c ****     /***************************************************************************
  29:.\Generated_Source\PSoC5/USBUART_1_std.c ****     * Function Name: USBUART_1_SerialNumString
  30:.\Generated_Source\PSoC5/USBUART_1_std.c ****     ************************************************************************//**
  31:.\Generated_Source\PSoC5/USBUART_1_std.c ****     *
ARM GAS  C:\Users\miyag\AppData\Local\Temp\ccphtVl4.s 			page 2


  32:.\Generated_Source\PSoC5/USBUART_1_std.c ****     *  This function is available only when the User Call Back option in the 
  33:.\Generated_Source\PSoC5/USBUART_1_std.c ****     *  Serial Number String descriptor properties is selected. Application 
  34:.\Generated_Source\PSoC5/USBUART_1_std.c ****     *  firmware can provide the source of the USB device serial number string 
  35:.\Generated_Source\PSoC5/USBUART_1_std.c ****     *  descriptor during run time. The default string is used if the application 
  36:.\Generated_Source\PSoC5/USBUART_1_std.c ****     *  firmware does not use this function or sets the wrong string descriptor.
  37:.\Generated_Source\PSoC5/USBUART_1_std.c ****     *
  38:.\Generated_Source\PSoC5/USBUART_1_std.c ****     *  \param snString:  Pointer to the user-defined string descriptor. The 
  39:.\Generated_Source\PSoC5/USBUART_1_std.c ****     *  string descriptor should meet the Universal Serial Bus Specification 
  40:.\Generated_Source\PSoC5/USBUART_1_std.c ****     *  revision 2.0 chapter 9.6.7
  41:.\Generated_Source\PSoC5/USBUART_1_std.c ****     *  Offset|Size|Value|Description
  42:.\Generated_Source\PSoC5/USBUART_1_std.c ****     *  ------|----|------|---------------------------------
  43:.\Generated_Source\PSoC5/USBUART_1_std.c ****     *  0     |1   |N     |Size of this descriptor in bytes
  44:.\Generated_Source\PSoC5/USBUART_1_std.c ****     *  1     |1   |0x03  |STRING Descriptor Type
  45:.\Generated_Source\PSoC5/USBUART_1_std.c ****     *  2     |N-2 |Number|UNICODE encoded string
  46:.\Generated_Source\PSoC5/USBUART_1_std.c ****     *  
  47:.\Generated_Source\PSoC5/USBUART_1_std.c ****     * *For example:* uint8 snString[16]={0x0E,0x03,'F',0,'W',0,'S',0,'N',0,'0',0,'1',0};
  48:.\Generated_Source\PSoC5/USBUART_1_std.c ****     *
  49:.\Generated_Source\PSoC5/USBUART_1_std.c ****     * \reentrant
  50:.\Generated_Source\PSoC5/USBUART_1_std.c ****     *  No.
  51:.\Generated_Source\PSoC5/USBUART_1_std.c ****     *
  52:.\Generated_Source\PSoC5/USBUART_1_std.c ****     ***************************************************************************/
  53:.\Generated_Source\PSoC5/USBUART_1_std.c ****     void  USBUART_1_SerialNumString(uint8 snString[]) 
  54:.\Generated_Source\PSoC5/USBUART_1_std.c ****     {
  55:.\Generated_Source\PSoC5/USBUART_1_std.c ****         USBUART_1_snStringConfirm = USBUART_1_FALSE;
  56:.\Generated_Source\PSoC5/USBUART_1_std.c ****         
  57:.\Generated_Source\PSoC5/USBUART_1_std.c ****         if (snString != NULL)
  58:.\Generated_Source\PSoC5/USBUART_1_std.c ****         {
  59:.\Generated_Source\PSoC5/USBUART_1_std.c ****             /* Check descriptor validation */
  60:.\Generated_Source\PSoC5/USBUART_1_std.c ****             if ((snString[0u] > 1u) && (snString[1u] == USBUART_1_DESCR_STRING))
  61:.\Generated_Source\PSoC5/USBUART_1_std.c ****             {
  62:.\Generated_Source\PSoC5/USBUART_1_std.c ****                 USBUART_1_fwSerialNumberStringDescriptor = snString;
  63:.\Generated_Source\PSoC5/USBUART_1_std.c ****                 USBUART_1_snStringConfirm = USBUART_1_TRUE;
  64:.\Generated_Source\PSoC5/USBUART_1_std.c ****             }
  65:.\Generated_Source\PSoC5/USBUART_1_std.c ****         }
  66:.\Generated_Source\PSoC5/USBUART_1_std.c ****     }
  67:.\Generated_Source\PSoC5/USBUART_1_std.c **** #endif  /* USBUART_1_ENABLE_FWSN_STRING */
  68:.\Generated_Source\PSoC5/USBUART_1_std.c **** 
  69:.\Generated_Source\PSoC5/USBUART_1_std.c **** 
  70:.\Generated_Source\PSoC5/USBUART_1_std.c **** /*******************************************************************************
  71:.\Generated_Source\PSoC5/USBUART_1_std.c **** * Function Name: USBUART_1_HandleStandardRqst
  72:.\Generated_Source\PSoC5/USBUART_1_std.c **** ****************************************************************************//**
  73:.\Generated_Source\PSoC5/USBUART_1_std.c **** *
  74:.\Generated_Source\PSoC5/USBUART_1_std.c **** *  This Routine dispatches standard requests
  75:.\Generated_Source\PSoC5/USBUART_1_std.c **** *
  76:.\Generated_Source\PSoC5/USBUART_1_std.c **** *
  77:.\Generated_Source\PSoC5/USBUART_1_std.c **** * \return
  78:.\Generated_Source\PSoC5/USBUART_1_std.c **** *  TRUE if request handled.
  79:.\Generated_Source\PSoC5/USBUART_1_std.c **** *
  80:.\Generated_Source\PSoC5/USBUART_1_std.c **** * \reentrant
  81:.\Generated_Source\PSoC5/USBUART_1_std.c **** *  No.
  82:.\Generated_Source\PSoC5/USBUART_1_std.c **** *
  83:.\Generated_Source\PSoC5/USBUART_1_std.c **** *******************************************************************************/
  84:.\Generated_Source\PSoC5/USBUART_1_std.c **** uint8 USBUART_1_HandleStandardRqst(void) 
  85:.\Generated_Source\PSoC5/USBUART_1_std.c **** {
  86:.\Generated_Source\PSoC5/USBUART_1_std.c ****     uint8 requestHandled = USBUART_1_FALSE;
  87:.\Generated_Source\PSoC5/USBUART_1_std.c ****     uint8 interfaceNumber;
  88:.\Generated_Source\PSoC5/USBUART_1_std.c ****     uint8 configurationN;
ARM GAS  C:\Users\miyag\AppData\Local\Temp\ccphtVl4.s 			page 3


  89:.\Generated_Source\PSoC5/USBUART_1_std.c ****     uint8 bmRequestType = USBUART_1_bmRequestTypeReg;
  90:.\Generated_Source\PSoC5/USBUART_1_std.c **** 
  91:.\Generated_Source\PSoC5/USBUART_1_std.c **** #if defined(USBUART_1_ENABLE_STRINGS)
  92:.\Generated_Source\PSoC5/USBUART_1_std.c ****     volatile uint8 *pStr = 0u;
  93:.\Generated_Source\PSoC5/USBUART_1_std.c ****     #if defined(USBUART_1_ENABLE_DESCRIPTOR_STRINGS)
  94:.\Generated_Source\PSoC5/USBUART_1_std.c ****         uint8 nStr;
  95:.\Generated_Source\PSoC5/USBUART_1_std.c ****         uint8 descrLength;
  96:.\Generated_Source\PSoC5/USBUART_1_std.c ****     #endif /* (USBUART_1_ENABLE_DESCRIPTOR_STRINGS) */
  97:.\Generated_Source\PSoC5/USBUART_1_std.c **** #endif /* (USBUART_1_ENABLE_STRINGS) */
  98:.\Generated_Source\PSoC5/USBUART_1_std.c ****     
  99:.\Generated_Source\PSoC5/USBUART_1_std.c ****     static volatile uint8 USBUART_1_tBuffer[USBUART_1_STATUS_LENGTH_MAX];
 100:.\Generated_Source\PSoC5/USBUART_1_std.c ****     const T_USBUART_1_LUT CYCODE *pTmp;
 101:.\Generated_Source\PSoC5/USBUART_1_std.c **** 
 102:.\Generated_Source\PSoC5/USBUART_1_std.c ****     USBUART_1_currentTD.count = 0u;
 103:.\Generated_Source\PSoC5/USBUART_1_std.c **** 
 104:.\Generated_Source\PSoC5/USBUART_1_std.c ****     if (USBUART_1_RQST_DIR_D2H == (bmRequestType & USBUART_1_RQST_DIR_MASK))
 105:.\Generated_Source\PSoC5/USBUART_1_std.c ****     {
 106:.\Generated_Source\PSoC5/USBUART_1_std.c ****         /* Control Read */
 107:.\Generated_Source\PSoC5/USBUART_1_std.c ****         switch (USBUART_1_bRequestReg)
 108:.\Generated_Source\PSoC5/USBUART_1_std.c ****         {
 109:.\Generated_Source\PSoC5/USBUART_1_std.c ****             case USBUART_1_GET_DESCRIPTOR:
 110:.\Generated_Source\PSoC5/USBUART_1_std.c ****                 if (USBUART_1_DESCR_DEVICE ==USBUART_1_wValueHiReg)
 111:.\Generated_Source\PSoC5/USBUART_1_std.c ****                 {
 112:.\Generated_Source\PSoC5/USBUART_1_std.c ****                     pTmp = USBUART_1_GetDeviceTablePtr();
 113:.\Generated_Source\PSoC5/USBUART_1_std.c ****                     USBUART_1_currentTD.pData = (volatile uint8 *)pTmp->p_list;
 114:.\Generated_Source\PSoC5/USBUART_1_std.c ****                     USBUART_1_currentTD.count = USBUART_1_DEVICE_DESCR_LENGTH;
 115:.\Generated_Source\PSoC5/USBUART_1_std.c ****                     
 116:.\Generated_Source\PSoC5/USBUART_1_std.c ****                     requestHandled  = USBUART_1_InitControlRead();
 117:.\Generated_Source\PSoC5/USBUART_1_std.c ****                 }
 118:.\Generated_Source\PSoC5/USBUART_1_std.c ****                 else if (USBUART_1_DESCR_CONFIG == USBUART_1_wValueHiReg)
 119:.\Generated_Source\PSoC5/USBUART_1_std.c ****                 {
 120:.\Generated_Source\PSoC5/USBUART_1_std.c ****                     pTmp = USBUART_1_GetConfigTablePtr((uint8) USBUART_1_wValueLoReg);
 121:.\Generated_Source\PSoC5/USBUART_1_std.c ****                     
 122:.\Generated_Source\PSoC5/USBUART_1_std.c ****                     /* Verify that requested descriptor exists */
 123:.\Generated_Source\PSoC5/USBUART_1_std.c ****                     if (pTmp != NULL)
 124:.\Generated_Source\PSoC5/USBUART_1_std.c ****                     {
 125:.\Generated_Source\PSoC5/USBUART_1_std.c ****                         USBUART_1_currentTD.pData = (volatile uint8 *)pTmp->p_list;
 126:.\Generated_Source\PSoC5/USBUART_1_std.c ****                         USBUART_1_currentTD.count = (uint16)((uint16)(USBUART_1_currentTD.pData)[US
 127:.\Generated_Source\PSoC5/USBUART_1_std.c ****                                                                             (USBUART_1_currentTD.pD
 128:.\Generated_Source\PSoC5/USBUART_1_std.c ****                         requestHandled  = USBUART_1_InitControlRead();
 129:.\Generated_Source\PSoC5/USBUART_1_std.c ****                     }
 130:.\Generated_Source\PSoC5/USBUART_1_std.c ****                 }
 131:.\Generated_Source\PSoC5/USBUART_1_std.c ****                 
 132:.\Generated_Source\PSoC5/USBUART_1_std.c ****             #if(USBUART_1_BOS_ENABLE)
 133:.\Generated_Source\PSoC5/USBUART_1_std.c ****                 else if (USBUART_1_DESCR_BOS == USBUART_1_wValueHiReg)
 134:.\Generated_Source\PSoC5/USBUART_1_std.c ****                 {
 135:.\Generated_Source\PSoC5/USBUART_1_std.c ****                     pTmp = USBUART_1_GetBOSPtr();
 136:.\Generated_Source\PSoC5/USBUART_1_std.c ****                     
 137:.\Generated_Source\PSoC5/USBUART_1_std.c ****                     /* Verify that requested descriptor exists */
 138:.\Generated_Source\PSoC5/USBUART_1_std.c ****                     if (pTmp != NULL)
 139:.\Generated_Source\PSoC5/USBUART_1_std.c ****                     {
 140:.\Generated_Source\PSoC5/USBUART_1_std.c ****                         USBUART_1_currentTD.pData = (volatile uint8 *)pTmp;
 141:.\Generated_Source\PSoC5/USBUART_1_std.c ****                         USBUART_1_currentTD.count = ((uint16)((uint16)(USBUART_1_currentTD.pData)[U
 142:.\Generated_Source\PSoC5/USBUART_1_std.c ****                                                                              (USBUART_1_currentTD.p
 143:.\Generated_Source\PSoC5/USBUART_1_std.c ****                         requestHandled  = USBUART_1_InitControlRead();
 144:.\Generated_Source\PSoC5/USBUART_1_std.c ****                     }
 145:.\Generated_Source\PSoC5/USBUART_1_std.c ****                 }
ARM GAS  C:\Users\miyag\AppData\Local\Temp\ccphtVl4.s 			page 4


 146:.\Generated_Source\PSoC5/USBUART_1_std.c ****             #endif /*(USBUART_1_BOS_ENABLE)*/
 147:.\Generated_Source\PSoC5/USBUART_1_std.c ****             
 148:.\Generated_Source\PSoC5/USBUART_1_std.c ****             #if defined(USBUART_1_ENABLE_STRINGS)
 149:.\Generated_Source\PSoC5/USBUART_1_std.c ****                 else if (USBUART_1_DESCR_STRING == USBUART_1_wValueHiReg)
 150:.\Generated_Source\PSoC5/USBUART_1_std.c ****                 {
 151:.\Generated_Source\PSoC5/USBUART_1_std.c ****                 /* Descriptor Strings */
 152:.\Generated_Source\PSoC5/USBUART_1_std.c ****                 #if defined(USBUART_1_ENABLE_DESCRIPTOR_STRINGS)
 153:.\Generated_Source\PSoC5/USBUART_1_std.c ****                     nStr = 0u;
 154:.\Generated_Source\PSoC5/USBUART_1_std.c ****                     pStr = (volatile uint8 *) &USBUART_1_STRING_DESCRIPTORS[0u];
 155:.\Generated_Source\PSoC5/USBUART_1_std.c ****                     
 156:.\Generated_Source\PSoC5/USBUART_1_std.c ****                     while ((USBUART_1_wValueLoReg > nStr) && (*pStr != 0u))
 157:.\Generated_Source\PSoC5/USBUART_1_std.c ****                     {
 158:.\Generated_Source\PSoC5/USBUART_1_std.c ****                         /* Read descriptor length from 1st byte */
 159:.\Generated_Source\PSoC5/USBUART_1_std.c ****                         descrLength = *pStr;
 160:.\Generated_Source\PSoC5/USBUART_1_std.c ****                         /* Move to next string descriptor */
 161:.\Generated_Source\PSoC5/USBUART_1_std.c ****                         pStr = &pStr[descrLength];
 162:.\Generated_Source\PSoC5/USBUART_1_std.c ****                         nStr++;
 163:.\Generated_Source\PSoC5/USBUART_1_std.c ****                     }
 164:.\Generated_Source\PSoC5/USBUART_1_std.c ****                 #endif /* (USBUART_1_ENABLE_DESCRIPTOR_STRINGS) */
 165:.\Generated_Source\PSoC5/USBUART_1_std.c ****                 
 166:.\Generated_Source\PSoC5/USBUART_1_std.c ****                 /* Microsoft OS String */
 167:.\Generated_Source\PSoC5/USBUART_1_std.c ****                 #if defined(USBUART_1_ENABLE_MSOS_STRING)
 168:.\Generated_Source\PSoC5/USBUART_1_std.c ****                     if (USBUART_1_STRING_MSOS == USBUART_1_wValueLoReg)
 169:.\Generated_Source\PSoC5/USBUART_1_std.c ****                     {
 170:.\Generated_Source\PSoC5/USBUART_1_std.c ****                         pStr = (volatile uint8 *)& USBUART_1_MSOS_DESCRIPTOR[0u];
 171:.\Generated_Source\PSoC5/USBUART_1_std.c ****                     }
 172:.\Generated_Source\PSoC5/USBUART_1_std.c ****                 #endif /* (USBUART_1_ENABLE_MSOS_STRING) */
 173:.\Generated_Source\PSoC5/USBUART_1_std.c ****                 
 174:.\Generated_Source\PSoC5/USBUART_1_std.c ****                 /* SN string */
 175:.\Generated_Source\PSoC5/USBUART_1_std.c ****                 #if defined(USBUART_1_ENABLE_SN_STRING)
 176:.\Generated_Source\PSoC5/USBUART_1_std.c ****                     if ((USBUART_1_wValueLoReg != 0u) && 
 177:.\Generated_Source\PSoC5/USBUART_1_std.c ****                         (USBUART_1_wValueLoReg == USBUART_1_DEVICE0_DESCR[USBUART_1_DEVICE_DESCR_SN
 178:.\Generated_Source\PSoC5/USBUART_1_std.c ****                     {
 179:.\Generated_Source\PSoC5/USBUART_1_std.c ****                     #if defined(USBUART_1_ENABLE_IDSN_STRING)
 180:.\Generated_Source\PSoC5/USBUART_1_std.c ****                         /* Read DIE ID and generate string descriptor in RAM */
 181:.\Generated_Source\PSoC5/USBUART_1_std.c ****                         USBUART_1_ReadDieID(USBUART_1_idSerialNumberStringDescriptor);
 182:.\Generated_Source\PSoC5/USBUART_1_std.c ****                         pStr = USBUART_1_idSerialNumberStringDescriptor;
 183:.\Generated_Source\PSoC5/USBUART_1_std.c ****                     #elif defined(USBUART_1_ENABLE_FWSN_STRING)
 184:.\Generated_Source\PSoC5/USBUART_1_std.c ****                         
 185:.\Generated_Source\PSoC5/USBUART_1_std.c ****                         if(USBUART_1_snStringConfirm != USBUART_1_FALSE)
 186:.\Generated_Source\PSoC5/USBUART_1_std.c ****                         {
 187:.\Generated_Source\PSoC5/USBUART_1_std.c ****                             pStr = USBUART_1_fwSerialNumberStringDescriptor;
 188:.\Generated_Source\PSoC5/USBUART_1_std.c ****                         }
 189:.\Generated_Source\PSoC5/USBUART_1_std.c ****                         else
 190:.\Generated_Source\PSoC5/USBUART_1_std.c ****                         {
 191:.\Generated_Source\PSoC5/USBUART_1_std.c ****                             pStr = (volatile uint8 *)&USBUART_1_SN_STRING_DESCRIPTOR[0u];
 192:.\Generated_Source\PSoC5/USBUART_1_std.c ****                         }
 193:.\Generated_Source\PSoC5/USBUART_1_std.c ****                     #else
 194:.\Generated_Source\PSoC5/USBUART_1_std.c ****                         pStr = (volatile uint8 *)&USBUART_1_SN_STRING_DESCRIPTOR[0u];
 195:.\Generated_Source\PSoC5/USBUART_1_std.c ****                     #endif  /* (USBUART_1_ENABLE_IDSN_STRING) */
 196:.\Generated_Source\PSoC5/USBUART_1_std.c ****                     }
 197:.\Generated_Source\PSoC5/USBUART_1_std.c ****                 #endif /* (USBUART_1_ENABLE_SN_STRING) */
 198:.\Generated_Source\PSoC5/USBUART_1_std.c ****                 
 199:.\Generated_Source\PSoC5/USBUART_1_std.c ****                     if (*pStr != 0u)
 200:.\Generated_Source\PSoC5/USBUART_1_std.c ****                     {
 201:.\Generated_Source\PSoC5/USBUART_1_std.c ****                         USBUART_1_currentTD.count = *pStr;
 202:.\Generated_Source\PSoC5/USBUART_1_std.c ****                         USBUART_1_currentTD.pData = pStr;
ARM GAS  C:\Users\miyag\AppData\Local\Temp\ccphtVl4.s 			page 5


 203:.\Generated_Source\PSoC5/USBUART_1_std.c ****                         requestHandled  = USBUART_1_InitControlRead();
 204:.\Generated_Source\PSoC5/USBUART_1_std.c ****                     }
 205:.\Generated_Source\PSoC5/USBUART_1_std.c ****                 }
 206:.\Generated_Source\PSoC5/USBUART_1_std.c ****             #endif /*  USBUART_1_ENABLE_STRINGS */
 207:.\Generated_Source\PSoC5/USBUART_1_std.c ****                 else
 208:.\Generated_Source\PSoC5/USBUART_1_std.c ****                 {
 209:.\Generated_Source\PSoC5/USBUART_1_std.c ****                     requestHandled = USBUART_1_DispatchClassRqst();
 210:.\Generated_Source\PSoC5/USBUART_1_std.c ****                 }
 211:.\Generated_Source\PSoC5/USBUART_1_std.c ****                 break;
 212:.\Generated_Source\PSoC5/USBUART_1_std.c ****                 
 213:.\Generated_Source\PSoC5/USBUART_1_std.c ****             case USBUART_1_GET_STATUS:
 214:.\Generated_Source\PSoC5/USBUART_1_std.c ****                 switch (bmRequestType & USBUART_1_RQST_RCPT_MASK)
 215:.\Generated_Source\PSoC5/USBUART_1_std.c ****                 {
 216:.\Generated_Source\PSoC5/USBUART_1_std.c ****                     case USBUART_1_RQST_RCPT_EP:
 217:.\Generated_Source\PSoC5/USBUART_1_std.c ****                         USBUART_1_currentTD.count = USBUART_1_EP_STATUS_LENGTH;
 218:.\Generated_Source\PSoC5/USBUART_1_std.c ****                         USBUART_1_tBuffer[0u]     = USBUART_1_EP[USBUART_1_wIndexLoReg & USBUART_1_
 219:.\Generated_Source\PSoC5/USBUART_1_std.c ****                         USBUART_1_tBuffer[1u]     = 0u;
 220:.\Generated_Source\PSoC5/USBUART_1_std.c ****                         USBUART_1_currentTD.pData = &USBUART_1_tBuffer[0u];
 221:.\Generated_Source\PSoC5/USBUART_1_std.c ****                         
 222:.\Generated_Source\PSoC5/USBUART_1_std.c ****                         requestHandled  = USBUART_1_InitControlRead();
 223:.\Generated_Source\PSoC5/USBUART_1_std.c ****                         break;
 224:.\Generated_Source\PSoC5/USBUART_1_std.c ****                     case USBUART_1_RQST_RCPT_DEV:
 225:.\Generated_Source\PSoC5/USBUART_1_std.c ****                         USBUART_1_currentTD.count = USBUART_1_DEVICE_STATUS_LENGTH;
 226:.\Generated_Source\PSoC5/USBUART_1_std.c ****                         USBUART_1_tBuffer[0u]     = USBUART_1_deviceStatus;
 227:.\Generated_Source\PSoC5/USBUART_1_std.c ****                         USBUART_1_tBuffer[1u]     = 0u;
 228:.\Generated_Source\PSoC5/USBUART_1_std.c ****                         USBUART_1_currentTD.pData = &USBUART_1_tBuffer[0u];
 229:.\Generated_Source\PSoC5/USBUART_1_std.c ****                         
 230:.\Generated_Source\PSoC5/USBUART_1_std.c ****                         requestHandled  = USBUART_1_InitControlRead();
 231:.\Generated_Source\PSoC5/USBUART_1_std.c ****                         break;
 232:.\Generated_Source\PSoC5/USBUART_1_std.c ****                     default:    /* requestHandled is initialized as FALSE by default */
 233:.\Generated_Source\PSoC5/USBUART_1_std.c ****                         break;
 234:.\Generated_Source\PSoC5/USBUART_1_std.c ****                 }
 235:.\Generated_Source\PSoC5/USBUART_1_std.c ****                 break;
 236:.\Generated_Source\PSoC5/USBUART_1_std.c ****                 
 237:.\Generated_Source\PSoC5/USBUART_1_std.c ****             case USBUART_1_GET_CONFIGURATION:
 238:.\Generated_Source\PSoC5/USBUART_1_std.c ****                 USBUART_1_currentTD.count = 1u;
 239:.\Generated_Source\PSoC5/USBUART_1_std.c ****                 USBUART_1_currentTD.pData = (volatile uint8 *) &USBUART_1_configuration;
 240:.\Generated_Source\PSoC5/USBUART_1_std.c ****                 requestHandled  = USBUART_1_InitControlRead();
 241:.\Generated_Source\PSoC5/USBUART_1_std.c ****                 break;
 242:.\Generated_Source\PSoC5/USBUART_1_std.c ****                 
 243:.\Generated_Source\PSoC5/USBUART_1_std.c ****             case USBUART_1_GET_INTERFACE:
 244:.\Generated_Source\PSoC5/USBUART_1_std.c ****                 USBUART_1_currentTD.count = 1u;
 245:.\Generated_Source\PSoC5/USBUART_1_std.c ****                 USBUART_1_currentTD.pData = (volatile uint8 *) &USBUART_1_interfaceSetting[USBUART_
 246:.\Generated_Source\PSoC5/USBUART_1_std.c ****                 requestHandled  = USBUART_1_InitControlRead();
 247:.\Generated_Source\PSoC5/USBUART_1_std.c ****                 break;
 248:.\Generated_Source\PSoC5/USBUART_1_std.c ****                 
 249:.\Generated_Source\PSoC5/USBUART_1_std.c ****             default: /* requestHandled is initialized as FALSE by default */
 250:.\Generated_Source\PSoC5/USBUART_1_std.c ****                 break;
 251:.\Generated_Source\PSoC5/USBUART_1_std.c ****         }
 252:.\Generated_Source\PSoC5/USBUART_1_std.c ****     }
 253:.\Generated_Source\PSoC5/USBUART_1_std.c ****     else
 254:.\Generated_Source\PSoC5/USBUART_1_std.c ****     {
 255:.\Generated_Source\PSoC5/USBUART_1_std.c ****         /* Control Write */
 256:.\Generated_Source\PSoC5/USBUART_1_std.c ****         switch (USBUART_1_bRequestReg)
 257:.\Generated_Source\PSoC5/USBUART_1_std.c ****         {
 258:.\Generated_Source\PSoC5/USBUART_1_std.c ****             case USBUART_1_SET_ADDRESS:
 259:.\Generated_Source\PSoC5/USBUART_1_std.c ****                 /* Store address to be set in USBUART_1_NoDataControlStatusStage(). */
ARM GAS  C:\Users\miyag\AppData\Local\Temp\ccphtVl4.s 			page 6


 260:.\Generated_Source\PSoC5/USBUART_1_std.c ****                 USBUART_1_deviceAddress = (uint8) USBUART_1_wValueLoReg;
 261:.\Generated_Source\PSoC5/USBUART_1_std.c ****                 requestHandled = USBUART_1_InitNoDataControlTransfer();
 262:.\Generated_Source\PSoC5/USBUART_1_std.c ****                 break;
 263:.\Generated_Source\PSoC5/USBUART_1_std.c ****                 
 264:.\Generated_Source\PSoC5/USBUART_1_std.c ****             case USBUART_1_SET_CONFIGURATION:
 265:.\Generated_Source\PSoC5/USBUART_1_std.c ****                 configurationN = USBUART_1_wValueLoReg;
 266:.\Generated_Source\PSoC5/USBUART_1_std.c ****                 
 267:.\Generated_Source\PSoC5/USBUART_1_std.c ****                 /* Verify that configuration descriptor exists */
 268:.\Generated_Source\PSoC5/USBUART_1_std.c ****                 if(configurationN > 0u)
 269:.\Generated_Source\PSoC5/USBUART_1_std.c ****                 {
 270:.\Generated_Source\PSoC5/USBUART_1_std.c ****                     pTmp = USBUART_1_GetConfigTablePtr((uint8) configurationN - 1u);
 271:.\Generated_Source\PSoC5/USBUART_1_std.c ****                 }
 272:.\Generated_Source\PSoC5/USBUART_1_std.c ****                 
 273:.\Generated_Source\PSoC5/USBUART_1_std.c ****                 /* Responds with a Request Error when configuration number is invalid */
 274:.\Generated_Source\PSoC5/USBUART_1_std.c ****                 if (((configurationN > 0u) && (pTmp != NULL)) || (configurationN == 0u))
 275:.\Generated_Source\PSoC5/USBUART_1_std.c ****                 {
 276:.\Generated_Source\PSoC5/USBUART_1_std.c ****                     /* Set new configuration if it has been changed */
 277:.\Generated_Source\PSoC5/USBUART_1_std.c ****                     if(configurationN != USBUART_1_configuration)
 278:.\Generated_Source\PSoC5/USBUART_1_std.c ****                     {
 279:.\Generated_Source\PSoC5/USBUART_1_std.c ****                         USBUART_1_configuration = (uint8) configurationN;
 280:.\Generated_Source\PSoC5/USBUART_1_std.c ****                         USBUART_1_configurationChanged = USBUART_1_TRUE;
 281:.\Generated_Source\PSoC5/USBUART_1_std.c ****                         USBUART_1_Config(USBUART_1_TRUE);
 282:.\Generated_Source\PSoC5/USBUART_1_std.c ****                     }
 283:.\Generated_Source\PSoC5/USBUART_1_std.c ****                     requestHandled = USBUART_1_InitNoDataControlTransfer();
 284:.\Generated_Source\PSoC5/USBUART_1_std.c ****                 }
 285:.\Generated_Source\PSoC5/USBUART_1_std.c ****                 break;
 286:.\Generated_Source\PSoC5/USBUART_1_std.c ****                 
 287:.\Generated_Source\PSoC5/USBUART_1_std.c ****             case USBUART_1_SET_INTERFACE:
 288:.\Generated_Source\PSoC5/USBUART_1_std.c ****                 if (0u != USBUART_1_ValidateAlternateSetting())
 289:.\Generated_Source\PSoC5/USBUART_1_std.c ****                 {
 290:.\Generated_Source\PSoC5/USBUART_1_std.c ****                     /* Get interface number from the request. */
 291:.\Generated_Source\PSoC5/USBUART_1_std.c ****                     interfaceNumber = USBUART_1_wIndexLoReg;
 292:.\Generated_Source\PSoC5/USBUART_1_std.c ****                     USBUART_1_interfaceNumber = (uint8) USBUART_1_wIndexLoReg;
 293:.\Generated_Source\PSoC5/USBUART_1_std.c ****                      
 294:.\Generated_Source\PSoC5/USBUART_1_std.c ****                     /* Check if alternate settings is changed for interface. */
 295:.\Generated_Source\PSoC5/USBUART_1_std.c ****                     if (USBUART_1_interfaceSettingLast[interfaceNumber] != USBUART_1_interfaceSetti
 296:.\Generated_Source\PSoC5/USBUART_1_std.c ****                     {
 297:.\Generated_Source\PSoC5/USBUART_1_std.c ****                         USBUART_1_configurationChanged = USBUART_1_TRUE;
 298:.\Generated_Source\PSoC5/USBUART_1_std.c ****                     
 299:.\Generated_Source\PSoC5/USBUART_1_std.c ****                         /* Change alternate setting for the endpoints. */
 300:.\Generated_Source\PSoC5/USBUART_1_std.c ****                     #if (USBUART_1_EP_MANAGEMENT_MANUAL && USBUART_1_EP_ALLOC_DYNAMIC)
 301:.\Generated_Source\PSoC5/USBUART_1_std.c ****                         USBUART_1_Config(USBUART_1_FALSE);
 302:.\Generated_Source\PSoC5/USBUART_1_std.c ****                     #else
 303:.\Generated_Source\PSoC5/USBUART_1_std.c ****                         USBUART_1_ConfigAltChanged();
 304:.\Generated_Source\PSoC5/USBUART_1_std.c ****                     #endif /* (USBUART_1_EP_MANAGEMENT_MANUAL && USBUART_1_EP_ALLOC_DYNAMIC) */
 305:.\Generated_Source\PSoC5/USBUART_1_std.c ****                     }
 306:.\Generated_Source\PSoC5/USBUART_1_std.c ****                     
 307:.\Generated_Source\PSoC5/USBUART_1_std.c ****                     requestHandled = USBUART_1_InitNoDataControlTransfer();
 308:.\Generated_Source\PSoC5/USBUART_1_std.c ****                 }
 309:.\Generated_Source\PSoC5/USBUART_1_std.c ****                 break;
 310:.\Generated_Source\PSoC5/USBUART_1_std.c ****                 
 311:.\Generated_Source\PSoC5/USBUART_1_std.c ****             case USBUART_1_CLEAR_FEATURE:
 312:.\Generated_Source\PSoC5/USBUART_1_std.c ****                 switch (bmRequestType & USBUART_1_RQST_RCPT_MASK)
 313:.\Generated_Source\PSoC5/USBUART_1_std.c ****                 {
 314:.\Generated_Source\PSoC5/USBUART_1_std.c ****                     case USBUART_1_RQST_RCPT_EP:
 315:.\Generated_Source\PSoC5/USBUART_1_std.c ****                         if (USBUART_1_wValueLoReg == USBUART_1_ENDPOINT_HALT)
 316:.\Generated_Source\PSoC5/USBUART_1_std.c ****                         {
ARM GAS  C:\Users\miyag\AppData\Local\Temp\ccphtVl4.s 			page 7


 317:.\Generated_Source\PSoC5/USBUART_1_std.c ****                             requestHandled = USBUART_1_ClearEndpointHalt();
 318:.\Generated_Source\PSoC5/USBUART_1_std.c ****                         }
 319:.\Generated_Source\PSoC5/USBUART_1_std.c ****                         break;
 320:.\Generated_Source\PSoC5/USBUART_1_std.c ****                     case USBUART_1_RQST_RCPT_DEV:
 321:.\Generated_Source\PSoC5/USBUART_1_std.c ****                         /* Clear device REMOTE_WAKEUP */
 322:.\Generated_Source\PSoC5/USBUART_1_std.c ****                         if (USBUART_1_wValueLoReg == USBUART_1_DEVICE_REMOTE_WAKEUP)
 323:.\Generated_Source\PSoC5/USBUART_1_std.c ****                         {
 324:.\Generated_Source\PSoC5/USBUART_1_std.c ****                             USBUART_1_deviceStatus &= (uint8)~USBUART_1_DEVICE_STATUS_REMOTE_WAKEUP
 325:.\Generated_Source\PSoC5/USBUART_1_std.c ****                             requestHandled = USBUART_1_InitNoDataControlTransfer();
 326:.\Generated_Source\PSoC5/USBUART_1_std.c ****                         }
 327:.\Generated_Source\PSoC5/USBUART_1_std.c ****                         break;
 328:.\Generated_Source\PSoC5/USBUART_1_std.c ****                     case USBUART_1_RQST_RCPT_IFC:
 329:.\Generated_Source\PSoC5/USBUART_1_std.c ****                         /* Validate interfaceNumber */
 330:.\Generated_Source\PSoC5/USBUART_1_std.c ****                         if (USBUART_1_wIndexLoReg < USBUART_1_MAX_INTERFACES_NUMBER)
 331:.\Generated_Source\PSoC5/USBUART_1_std.c ****                         {
 332:.\Generated_Source\PSoC5/USBUART_1_std.c ****                             USBUART_1_interfaceStatus[USBUART_1_wIndexLoReg] &= (uint8) ~USBUART_1_
 333:.\Generated_Source\PSoC5/USBUART_1_std.c ****                             requestHandled = USBUART_1_InitNoDataControlTransfer();
 334:.\Generated_Source\PSoC5/USBUART_1_std.c ****                         }
 335:.\Generated_Source\PSoC5/USBUART_1_std.c ****                         break;
 336:.\Generated_Source\PSoC5/USBUART_1_std.c ****                     default:    /* requestHandled is initialized as FALSE by default */
 337:.\Generated_Source\PSoC5/USBUART_1_std.c ****                         break;
 338:.\Generated_Source\PSoC5/USBUART_1_std.c ****                 }
 339:.\Generated_Source\PSoC5/USBUART_1_std.c ****                 break;
 340:.\Generated_Source\PSoC5/USBUART_1_std.c ****                 
 341:.\Generated_Source\PSoC5/USBUART_1_std.c ****             case USBUART_1_SET_FEATURE:
 342:.\Generated_Source\PSoC5/USBUART_1_std.c ****                 switch (bmRequestType & USBUART_1_RQST_RCPT_MASK)
 343:.\Generated_Source\PSoC5/USBUART_1_std.c ****                 {
 344:.\Generated_Source\PSoC5/USBUART_1_std.c ****                     case USBUART_1_RQST_RCPT_EP:
 345:.\Generated_Source\PSoC5/USBUART_1_std.c ****                         if (USBUART_1_wValueLoReg == USBUART_1_ENDPOINT_HALT)
 346:.\Generated_Source\PSoC5/USBUART_1_std.c ****                         {
 347:.\Generated_Source\PSoC5/USBUART_1_std.c ****                             requestHandled = USBUART_1_SetEndpointHalt();
 348:.\Generated_Source\PSoC5/USBUART_1_std.c ****                         }
 349:.\Generated_Source\PSoC5/USBUART_1_std.c ****                         break;
 350:.\Generated_Source\PSoC5/USBUART_1_std.c ****                         
 351:.\Generated_Source\PSoC5/USBUART_1_std.c ****                     case USBUART_1_RQST_RCPT_DEV:
 352:.\Generated_Source\PSoC5/USBUART_1_std.c ****                         /* Set device REMOTE_WAKEUP */
 353:.\Generated_Source\PSoC5/USBUART_1_std.c ****                         if (USBUART_1_wValueLoReg == USBUART_1_DEVICE_REMOTE_WAKEUP)
 354:.\Generated_Source\PSoC5/USBUART_1_std.c ****                         {
 355:.\Generated_Source\PSoC5/USBUART_1_std.c ****                             USBUART_1_deviceStatus |= USBUART_1_DEVICE_STATUS_REMOTE_WAKEUP;
 356:.\Generated_Source\PSoC5/USBUART_1_std.c ****                             requestHandled = USBUART_1_InitNoDataControlTransfer();
 357:.\Generated_Source\PSoC5/USBUART_1_std.c ****                         }
 358:.\Generated_Source\PSoC5/USBUART_1_std.c ****                         break;
 359:.\Generated_Source\PSoC5/USBUART_1_std.c ****                         
 360:.\Generated_Source\PSoC5/USBUART_1_std.c ****                     case USBUART_1_RQST_RCPT_IFC:
 361:.\Generated_Source\PSoC5/USBUART_1_std.c ****                         /* Validate interfaceNumber */
 362:.\Generated_Source\PSoC5/USBUART_1_std.c ****                         if (USBUART_1_wIndexLoReg < USBUART_1_MAX_INTERFACES_NUMBER)
 363:.\Generated_Source\PSoC5/USBUART_1_std.c ****                         {
 364:.\Generated_Source\PSoC5/USBUART_1_std.c ****                             USBUART_1_interfaceStatus[USBUART_1_wIndexLoReg] &= (uint8) ~USBUART_1_
 365:.\Generated_Source\PSoC5/USBUART_1_std.c ****                             requestHandled = USBUART_1_InitNoDataControlTransfer();
 366:.\Generated_Source\PSoC5/USBUART_1_std.c ****                         }
 367:.\Generated_Source\PSoC5/USBUART_1_std.c ****                         break;
 368:.\Generated_Source\PSoC5/USBUART_1_std.c ****                     
 369:.\Generated_Source\PSoC5/USBUART_1_std.c ****                     default:    /* requestHandled is initialized as FALSE by default */
 370:.\Generated_Source\PSoC5/USBUART_1_std.c ****                         break;
 371:.\Generated_Source\PSoC5/USBUART_1_std.c ****                 }
 372:.\Generated_Source\PSoC5/USBUART_1_std.c ****                 break;
 373:.\Generated_Source\PSoC5/USBUART_1_std.c ****                 
ARM GAS  C:\Users\miyag\AppData\Local\Temp\ccphtVl4.s 			page 8


 374:.\Generated_Source\PSoC5/USBUART_1_std.c ****             default:    /* requestHandled is initialized as FALSE by default */
 375:.\Generated_Source\PSoC5/USBUART_1_std.c ****                 break;
 376:.\Generated_Source\PSoC5/USBUART_1_std.c ****         }
 377:.\Generated_Source\PSoC5/USBUART_1_std.c ****     }
 378:.\Generated_Source\PSoC5/USBUART_1_std.c ****     
 379:.\Generated_Source\PSoC5/USBUART_1_std.c ****     return (requestHandled);
 380:.\Generated_Source\PSoC5/USBUART_1_std.c **** }
 381:.\Generated_Source\PSoC5/USBUART_1_std.c **** 
 382:.\Generated_Source\PSoC5/USBUART_1_std.c **** 
 383:.\Generated_Source\PSoC5/USBUART_1_std.c **** #if defined(USBUART_1_ENABLE_IDSN_STRING)
 384:.\Generated_Source\PSoC5/USBUART_1_std.c ****     /***************************************************************************
 385:.\Generated_Source\PSoC5/USBUART_1_std.c ****     * Function Name: USBUART_1_ReadDieID
 386:.\Generated_Source\PSoC5/USBUART_1_std.c ****     ************************************************************************//**
 387:.\Generated_Source\PSoC5/USBUART_1_std.c ****     *
 388:.\Generated_Source\PSoC5/USBUART_1_std.c ****     *  This routine read Die ID and generate Serial Number string descriptor.
 389:.\Generated_Source\PSoC5/USBUART_1_std.c ****     *
 390:.\Generated_Source\PSoC5/USBUART_1_std.c ****     *  \param descr:  pointer on string descriptor. This string size has to be equal or
 391:.\Generated_Source\PSoC5/USBUART_1_std.c ****     *          greater than USBUART_1_IDSN_DESCR_LENGTH.
 392:.\Generated_Source\PSoC5/USBUART_1_std.c ****     *
 393:.\Generated_Source\PSoC5/USBUART_1_std.c ****     *
 394:.\Generated_Source\PSoC5/USBUART_1_std.c ****     * \reentrant
 395:.\Generated_Source\PSoC5/USBUART_1_std.c ****     *  No.
 396:.\Generated_Source\PSoC5/USBUART_1_std.c ****     *
 397:.\Generated_Source\PSoC5/USBUART_1_std.c ****     ***************************************************************************/
 398:.\Generated_Source\PSoC5/USBUART_1_std.c ****     void USBUART_1_ReadDieID(uint8 descr[]) 
 399:.\Generated_Source\PSoC5/USBUART_1_std.c ****     {
  27              		.loc 1 399 0
  28              		.cfi_startproc
  29              		@ args = 0, pretend = 0, frame = 32
  30              		@ frame_needed = 0, uses_anonymous_args = 0
  31              	.LVL0:
  32 0000 70B5     		push	{r4, r5, r6, lr}
  33              		.cfi_def_cfa_offset 16
  34              		.cfi_offset 4, -16
  35              		.cfi_offset 5, -12
  36              		.cfi_offset 6, -8
  37              		.cfi_offset 14, -4
  38 0002 0446     		mov	r4, r0
 400:.\Generated_Source\PSoC5/USBUART_1_std.c ****         const char8 CYCODE hex[] = "0123456789ABCDEF";
  39              		.loc 1 400 0
  40 0004 194B     		ldr	r3, .L9
 399:.\Generated_Source\PSoC5/USBUART_1_std.c ****         const char8 CYCODE hex[] = "0123456789ABCDEF";
  41              		.loc 1 399 0
  42 0006 88B0     		sub	sp, sp, #32
  43              		.cfi_def_cfa_offset 48
  44              		.loc 1 400 0
  45 0008 03AA     		add	r2, sp, #12
  46 000a 03F11006 		add	r6, r3, #16
  47              	.LVL1:
  48              	.L2:
  49 000e 1546     		mov	r5, r2
  50 0010 1868     		ldr	r0, [r3]	@ unaligned
  51 0012 5968     		ldr	r1, [r3, #4]	@ unaligned
  52 0014 0833     		adds	r3, r3, #8
  53 0016 03C5     		stmia	r5!, {r0, r1}
  54 0018 B342     		cmp	r3, r6
  55 001a 2A46     		mov	r2, r5
ARM GAS  C:\Users\miyag\AppData\Local\Temp\ccphtVl4.s 			page 9


  56 001c F7D1     		bne	.L2
  57 001e 1B78     		ldrb	r3, [r3]	@ zero_extendqisi2
  58 0020 2B70     		strb	r3, [r5]
  59              	.LVL2:
 401:.\Generated_Source\PSoC5/USBUART_1_std.c ****         uint8 i;
 402:.\Generated_Source\PSoC5/USBUART_1_std.c ****         uint8 j = 0u;
 403:.\Generated_Source\PSoC5/USBUART_1_std.c ****         uint8 uniqueId[8u];
 404:.\Generated_Source\PSoC5/USBUART_1_std.c **** 
 405:.\Generated_Source\PSoC5/USBUART_1_std.c ****         if (NULL != descr)
  60              		.loc 1 405 0
  61 0022 04B3     		cbz	r4, .L1
 406:.\Generated_Source\PSoC5/USBUART_1_std.c ****         {
 407:.\Generated_Source\PSoC5/USBUART_1_std.c ****             /* Initialize descriptor header. */
 408:.\Generated_Source\PSoC5/USBUART_1_std.c ****             descr[0u] = USBUART_1_IDSN_DESCR_LENGTH;
  62              		.loc 1 408 0
  63 0024 2223     		movs	r3, #34
  64 0026 2370     		strb	r3, [r4]
 409:.\Generated_Source\PSoC5/USBUART_1_std.c ****             descr[1u] = USBUART_1_DESCR_STRING;
 410:.\Generated_Source\PSoC5/USBUART_1_std.c ****             
 411:.\Generated_Source\PSoC5/USBUART_1_std.c ****             /* Unique ID size is 8 bytes. */
 412:.\Generated_Source\PSoC5/USBUART_1_std.c ****             CyGetUniqueId((uint32 *) uniqueId);
  65              		.loc 1 412 0
  66 0028 01AD     		add	r5, sp, #4
 409:.\Generated_Source\PSoC5/USBUART_1_std.c ****             descr[1u] = USBUART_1_DESCR_STRING;
  67              		.loc 1 409 0
  68 002a 0323     		movs	r3, #3
  69              		.loc 1 412 0
  70 002c 2846     		mov	r0, r5
 409:.\Generated_Source\PSoC5/USBUART_1_std.c ****             descr[1u] = USBUART_1_DESCR_STRING;
  71              		.loc 1 409 0
  72 002e 6370     		strb	r3, [r4, #1]
  73              		.loc 1 412 0
  74 0030 FFF7FEFF 		bl	CyGetUniqueId
  75              	.LVL3:
  76 0034 2046     		mov	r0, r4
  77 0036 0022     		movs	r2, #0
  78              	.LVL4:
  79              	.L4:
 413:.\Generated_Source\PSoC5/USBUART_1_std.c **** 
 414:.\Generated_Source\PSoC5/USBUART_1_std.c ****             /* Fill descriptor with unique device ID. */
 415:.\Generated_Source\PSoC5/USBUART_1_std.c ****             for (i = 2u; i < USBUART_1_IDSN_DESCR_LENGTH; i += 4u)
 416:.\Generated_Source\PSoC5/USBUART_1_std.c ****             {
 417:.\Generated_Source\PSoC5/USBUART_1_std.c ****                 descr[i]      = (uint8) hex[(uniqueId[j] >> 4u)];
  80              		.loc 1 417 0 discriminator 3
  81 0038 AB5C     		ldrb	r3, [r5, r2]	@ zero_extendqisi2
  82 003a 08A9     		add	r1, sp, #32
  83 003c 01EB1311 		add	r1, r1, r3, lsr #4
 418:.\Generated_Source\PSoC5/USBUART_1_std.c ****                 descr[i + 1u] = 0u;
 419:.\Generated_Source\PSoC5/USBUART_1_std.c ****                 descr[i + 2u] = (uint8) hex[(uniqueId[j] & 0x0Fu)];
  84              		.loc 1 419 0 discriminator 3
  85 0040 08AC     		add	r4, sp, #32
  86 0042 03F00F03 		and	r3, r3, #15
 417:.\Generated_Source\PSoC5/USBUART_1_std.c ****                 descr[i + 1u] = 0u;
  87              		.loc 1 417 0 discriminator 3
  88 0046 11F8141C 		ldrb	r1, [r1, #-20]	@ zero_extendqisi2
  89              		.loc 1 419 0 discriminator 3
  90 004a 2344     		add	r3, r3, r4
ARM GAS  C:\Users\miyag\AppData\Local\Temp\ccphtVl4.s 			page 10


  91 004c 13F8143C 		ldrb	r3, [r3, #-20]	@ zero_extendqisi2
  92 0050 0132     		adds	r2, r2, #1
  93              	.LVL5:
 417:.\Generated_Source\PSoC5/USBUART_1_std.c ****                 descr[i + 1u] = 0u;
  94              		.loc 1 417 0 discriminator 3
  95 0052 8170     		strb	r1, [r0, #2]
 415:.\Generated_Source\PSoC5/USBUART_1_std.c ****             {
  96              		.loc 1 415 0 discriminator 3
  97 0054 082A     		cmp	r2, #8
 418:.\Generated_Source\PSoC5/USBUART_1_std.c ****                 descr[i + 1u] = 0u;
  98              		.loc 1 418 0 discriminator 3
  99 0056 4FF00001 		mov	r1, #0
 100 005a C170     		strb	r1, [r0, #3]
 101              		.loc 1 419 0 discriminator 3
 102 005c 0371     		strb	r3, [r0, #4]
 420:.\Generated_Source\PSoC5/USBUART_1_std.c ****                 descr[i + 3u] = 0u;
 103              		.loc 1 420 0 discriminator 3
 104 005e 4171     		strb	r1, [r0, #5]
 105              	.LVL6:
 106 0060 00F10400 		add	r0, r0, #4
 107              	.LVL7:
 415:.\Generated_Source\PSoC5/USBUART_1_std.c ****             {
 108              		.loc 1 415 0 discriminator 3
 109 0064 E8D1     		bne	.L4
 110              	.L1:
 421:.\Generated_Source\PSoC5/USBUART_1_std.c ****                 ++j;
 422:.\Generated_Source\PSoC5/USBUART_1_std.c ****             }
 423:.\Generated_Source\PSoC5/USBUART_1_std.c ****         }
 424:.\Generated_Source\PSoC5/USBUART_1_std.c ****     }
 111              		.loc 1 424 0
 112 0066 08B0     		add	sp, sp, #32
 113              		.cfi_def_cfa_offset 16
 114              		@ sp needed
 115 0068 70BD     		pop	{r4, r5, r6, pc}
 116              	.L10:
 117 006a 00BF     		.align	2
 118              	.L9:
 119 006c 00000000 		.word	.LC0
 120              		.cfi_endproc
 121              	.LFE1:
 122              		.size	USBUART_1_ReadDieID, .-USBUART_1_ReadDieID
 123              		.section	.text.USBUART_1_ConfigReg,"ax",%progbits
 124              		.align	1
 125              		.global	USBUART_1_ConfigReg
 126              		.thumb
 127              		.thumb_func
 128              		.type	USBUART_1_ConfigReg, %function
 129              	USBUART_1_ConfigReg:
 130              	.LFB2:
 425:.\Generated_Source\PSoC5/USBUART_1_std.c **** #endif /* (USBUART_1_ENABLE_IDSN_STRING) */
 426:.\Generated_Source\PSoC5/USBUART_1_std.c **** 
 427:.\Generated_Source\PSoC5/USBUART_1_std.c **** 
 428:.\Generated_Source\PSoC5/USBUART_1_std.c **** /*******************************************************************************
 429:.\Generated_Source\PSoC5/USBUART_1_std.c **** * Function Name: USBUART_1_ConfigReg
 430:.\Generated_Source\PSoC5/USBUART_1_std.c **** ****************************************************************************//**
 431:.\Generated_Source\PSoC5/USBUART_1_std.c **** *
 432:.\Generated_Source\PSoC5/USBUART_1_std.c **** *  This routine configures hardware registers from the variables.
ARM GAS  C:\Users\miyag\AppData\Local\Temp\ccphtVl4.s 			page 11


 433:.\Generated_Source\PSoC5/USBUART_1_std.c **** *  It is called from USBUART_1_Config() function and from RestoreConfig
 434:.\Generated_Source\PSoC5/USBUART_1_std.c **** *  after Wakeup.
 435:.\Generated_Source\PSoC5/USBUART_1_std.c **** *
 436:.\Generated_Source\PSoC5/USBUART_1_std.c **** *******************************************************************************/
 437:.\Generated_Source\PSoC5/USBUART_1_std.c **** void USBUART_1_ConfigReg(void) 
 438:.\Generated_Source\PSoC5/USBUART_1_std.c **** {
 131              		.loc 1 438 0
 132              		.cfi_startproc
 133              		@ args = 0, pretend = 0, frame = 0
 134              		@ frame_needed = 0, uses_anonymous_args = 0
 135              	.LVL8:
 136 0000 F0B5     		push	{r4, r5, r6, r7, lr}
 137              		.cfi_def_cfa_offset 20
 138              		.cfi_offset 4, -20
 139              		.cfi_offset 5, -16
 140              		.cfi_offset 6, -12
 141              		.cfi_offset 7, -8
 142              		.cfi_offset 14, -4
 143              		.loc 1 438 0
 144 0002 0122     		movs	r2, #1
 145              	.LVL9:
 146              	.L15:
 439:.\Generated_Source\PSoC5/USBUART_1_std.c ****     uint8 ep;
 440:.\Generated_Source\PSoC5/USBUART_1_std.c **** 
 441:.\Generated_Source\PSoC5/USBUART_1_std.c **** #if (USBUART_1_EP_MANAGEMENT_DMA_AUTO)
 442:.\Generated_Source\PSoC5/USBUART_1_std.c ****     uint8 epType = 0u;
 443:.\Generated_Source\PSoC5/USBUART_1_std.c **** #endif /* (USBUART_1_EP_MANAGEMENT_DMA_AUTO) */
 444:.\Generated_Source\PSoC5/USBUART_1_std.c **** 
 445:.\Generated_Source\PSoC5/USBUART_1_std.c ****     /* Go thought all endpoints and set hardware configuration */
 446:.\Generated_Source\PSoC5/USBUART_1_std.c ****     for (ep = USBUART_1_EP1; ep < USBUART_1_MAX_EP; ++ep)
 447:.\Generated_Source\PSoC5/USBUART_1_std.c ****     {
 448:.\Generated_Source\PSoC5/USBUART_1_std.c ****         USBUART_1_ARB_EP_BASE.arbEp[ep].epCfg = USBUART_1_ARB_EPX_CFG_DEFAULT;
 449:.\Generated_Source\PSoC5/USBUART_1_std.c ****         
 450:.\Generated_Source\PSoC5/USBUART_1_std.c ****     #if (USBUART_1_EP_MANAGEMENT_DMA)
 451:.\Generated_Source\PSoC5/USBUART_1_std.c ****         /* Enable arbiter endpoint interrupt sources */
 452:.\Generated_Source\PSoC5/USBUART_1_std.c ****         USBUART_1_ARB_EP_BASE.arbEp[ep].epIntEn = USBUART_1_ARB_EPX_INT_MASK;
 453:.\Generated_Source\PSoC5/USBUART_1_std.c ****     #endif /* (USBUART_1_EP_MANAGEMENT_DMA) */
 454:.\Generated_Source\PSoC5/USBUART_1_std.c ****     
 455:.\Generated_Source\PSoC5/USBUART_1_std.c ****         if (USBUART_1_EP[ep].epMode != USBUART_1_MODE_DISABLE)
 147              		.loc 1 455 0
 148 0004 1649     		ldr	r1, .L18
 448:.\Generated_Source\PSoC5/USBUART_1_std.c ****         
 149              		.loc 1 448 0
 150 0006 0C25     		movs	r5, #12
 151 0008 164B     		ldr	r3, .L18+4
 152              		.loc 1 455 0
 153 000a 05FB0216 		mla	r6, r5, r2, r1
 154 000e 1401     		lsls	r4, r2, #4
 155 0010 2344     		add	r3, r3, r4
 448:.\Generated_Source\PSoC5/USBUART_1_std.c ****         
 156              		.loc 1 448 0
 157 0012 1D70     		strb	r5, [r3]
 158 0014 1448     		ldr	r0, .L18+8
 159              		.loc 1 455 0
 160 0016 7779     		ldrb	r7, [r6, #5]	@ zero_extendqisi2
 161 0018 2044     		add	r0, r0, r4
 162 001a 37B1     		cbz	r7, .L12
ARM GAS  C:\Users\miyag\AppData\Local\Temp\ccphtVl4.s 			page 12


 456:.\Generated_Source\PSoC5/USBUART_1_std.c ****         {
 457:.\Generated_Source\PSoC5/USBUART_1_std.c ****             if (0u != (USBUART_1_EP[ep].addr & USBUART_1_DIR_IN))
 163              		.loc 1 457 0
 164 001c 3479     		ldrb	r4, [r6, #4]	@ zero_extendqisi2
 165 001e 2406     		lsls	r4, r4, #24
 166 0020 01D5     		bpl	.L13
 458:.\Generated_Source\PSoC5/USBUART_1_std.c ****             {
 459:.\Generated_Source\PSoC5/USBUART_1_std.c ****                 USBUART_1_SIE_EP_BASE.sieEp[ep].epCr0 = USBUART_1_MODE_NAK_IN;
 167              		.loc 1 459 0
 168 0022 8570     		strb	r5, [r0, #2]
 169 0024 03E0     		b	.L14
 170              	.L13:
 460:.\Generated_Source\PSoC5/USBUART_1_std.c ****                 
 461:.\Generated_Source\PSoC5/USBUART_1_std.c ****             #if (USBUART_1_EP_MANAGEMENT_DMA_AUTO && CY_PSOC4)
 462:.\Generated_Source\PSoC5/USBUART_1_std.c ****                 /* Clear DMA_TERMIN for IN endpoint. */
 463:.\Generated_Source\PSoC5/USBUART_1_std.c ****                 USBUART_1_ARB_EP_BASE.arbEp[ep].epIntEn &= (uint32) ~USBUART_1_ARB_EPX_INT_DMA_TERM
 464:.\Generated_Source\PSoC5/USBUART_1_std.c ****             #endif /* (USBUART_1_EP_MANAGEMENT_DMA_AUTO && CY_PSOC4) */
 465:.\Generated_Source\PSoC5/USBUART_1_std.c ****             }
 466:.\Generated_Source\PSoC5/USBUART_1_std.c ****             else
 467:.\Generated_Source\PSoC5/USBUART_1_std.c ****             {
 468:.\Generated_Source\PSoC5/USBUART_1_std.c ****                 USBUART_1_SIE_EP_BASE.sieEp[ep].epCr0 = USBUART_1_MODE_NAK_OUT;
 171              		.loc 1 468 0
 172 0026 0824     		movs	r4, #8
 173 0028 00E0     		b	.L17
 174              	.L12:
 469:.\Generated_Source\PSoC5/USBUART_1_std.c **** 
 470:.\Generated_Source\PSoC5/USBUART_1_std.c ****             #if (USBUART_1_EP_MANAGEMENT_DMA_AUTO)
 471:.\Generated_Source\PSoC5/USBUART_1_std.c ****                 /* (CY_PSOC4): DMA_TERMIN for OUT endpoint is set above. */
 472:.\Generated_Source\PSoC5/USBUART_1_std.c ****                 
 473:.\Generated_Source\PSoC5/USBUART_1_std.c ****                 /* Prepare endpoint type mask. */
 474:.\Generated_Source\PSoC5/USBUART_1_std.c ****                 epType |= (uint8) (0x01u << (ep - USBUART_1_EP1));
 475:.\Generated_Source\PSoC5/USBUART_1_std.c ****             #endif /* (USBUART_1_EP_MANAGEMENT_DMA_AUTO) */
 476:.\Generated_Source\PSoC5/USBUART_1_std.c ****             }
 477:.\Generated_Source\PSoC5/USBUART_1_std.c ****         }
 478:.\Generated_Source\PSoC5/USBUART_1_std.c ****         else
 479:.\Generated_Source\PSoC5/USBUART_1_std.c ****         {
 480:.\Generated_Source\PSoC5/USBUART_1_std.c ****             USBUART_1_SIE_EP_BASE.sieEp[ep].epCr0 = USBUART_1_MODE_STALL_DATA_EP;
 175              		.loc 1 480 0
 176 002a 8024     		movs	r4, #128
 177              	.L17:
 178 002c 8470     		strb	r4, [r0, #2]
 179              	.L14:
 481:.\Generated_Source\PSoC5/USBUART_1_std.c ****         }
 482:.\Generated_Source\PSoC5/USBUART_1_std.c ****         
 483:.\Generated_Source\PSoC5/USBUART_1_std.c ****     #if (!USBUART_1_EP_MANAGEMENT_DMA_AUTO)
 484:.\Generated_Source\PSoC5/USBUART_1_std.c ****         #if (CY_PSOC4)
 485:.\Generated_Source\PSoC5/USBUART_1_std.c ****             USBUART_1_ARB_EP16_BASE.arbEp[ep].rwRa16  = (uint32) USBUART_1_EP[ep].buffOffset;
 486:.\Generated_Source\PSoC5/USBUART_1_std.c ****             USBUART_1_ARB_EP16_BASE.arbEp[ep].rwWa16  = (uint32) USBUART_1_EP[ep].buffOffset;
 487:.\Generated_Source\PSoC5/USBUART_1_std.c ****         #else
 488:.\Generated_Source\PSoC5/USBUART_1_std.c ****             USBUART_1_ARB_EP_BASE.arbEp[ep].rwRa    = LO8(USBUART_1_EP[ep].buffOffset);
 180              		.loc 1 488 0 discriminator 2
 181 002e 0C20     		movs	r0, #12
 182 0030 00FB0211 		mla	r1, r0, r2, r1
 183 0034 C888     		ldrh	r0, [r1, #6]
 184 0036 0132     		adds	r2, r2, #1
 185              	.LVL10:
 186 0038 C0B2     		uxtb	r0, r0
ARM GAS  C:\Users\miyag\AppData\Local\Temp\ccphtVl4.s 			page 13


 187 003a 9871     		strb	r0, [r3, #6]
 489:.\Generated_Source\PSoC5/USBUART_1_std.c ****             USBUART_1_ARB_EP_BASE.arbEp[ep].rwRaMsb = HI8(USBUART_1_EP[ep].buffOffset);
 188              		.loc 1 489 0 discriminator 2
 189 003c C888     		ldrh	r0, [r1, #6]
 446:.\Generated_Source\PSoC5/USBUART_1_std.c ****     {
 190              		.loc 1 446 0 discriminator 2
 191 003e 092A     		cmp	r2, #9
 192              		.loc 1 489 0 discriminator 2
 193 0040 C0F30720 		ubfx	r0, r0, #8, #8
 194 0044 D871     		strb	r0, [r3, #7]
 490:.\Generated_Source\PSoC5/USBUART_1_std.c ****             USBUART_1_ARB_EP_BASE.arbEp[ep].rwWa    = LO8(USBUART_1_EP[ep].buffOffset);
 195              		.loc 1 490 0 discriminator 2
 196 0046 C888     		ldrh	r0, [r1, #6]
 197 0048 C0B2     		uxtb	r0, r0
 198 004a 1871     		strb	r0, [r3, #4]
 491:.\Generated_Source\PSoC5/USBUART_1_std.c ****             USBUART_1_ARB_EP_BASE.arbEp[ep].rwWaMsb = HI8(USBUART_1_EP[ep].buffOffset);
 199              		.loc 1 491 0 discriminator 2
 200 004c C988     		ldrh	r1, [r1, #6]
 201 004e C1F30721 		ubfx	r1, r1, #8, #8
 202 0052 5971     		strb	r1, [r3, #5]
 446:.\Generated_Source\PSoC5/USBUART_1_std.c ****     {
 203              		.loc 1 446 0 discriminator 2
 204 0054 D6D1     		bne	.L15
 492:.\Generated_Source\PSoC5/USBUART_1_std.c ****         #endif /* (CY_PSOC4) */
 493:.\Generated_Source\PSoC5/USBUART_1_std.c ****     #endif /* (!USBUART_1_EP_MANAGEMENT_DMA_AUTO) */
 494:.\Generated_Source\PSoC5/USBUART_1_std.c ****     }
 495:.\Generated_Source\PSoC5/USBUART_1_std.c **** 
 496:.\Generated_Source\PSoC5/USBUART_1_std.c **** #if (USBUART_1_EP_MANAGEMENT_DMA_AUTO)
 497:.\Generated_Source\PSoC5/USBUART_1_std.c ****      /* BUF_SIZE depend on DMA_THRESS value:0x55-32 bytes  0x44-16 bytes 0x33-8 bytes 0x22-4 bytes 
 498:.\Generated_Source\PSoC5/USBUART_1_std.c ****     USBUART_1_BUF_SIZE_REG = USBUART_1_DMA_BUF_SIZE;
 499:.\Generated_Source\PSoC5/USBUART_1_std.c **** 
 500:.\Generated_Source\PSoC5/USBUART_1_std.c ****     /* Configure DMA burst threshold */
 501:.\Generated_Source\PSoC5/USBUART_1_std.c **** #if (CY_PSOC4)
 502:.\Generated_Source\PSoC5/USBUART_1_std.c ****     USBUART_1_DMA_THRES16_REG   = USBUART_1_DMA_BYTES_PER_BURST;
 503:.\Generated_Source\PSoC5/USBUART_1_std.c **** #else
 504:.\Generated_Source\PSoC5/USBUART_1_std.c ****     USBUART_1_DMA_THRES_REG     = USBUART_1_DMA_BYTES_PER_BURST;
 505:.\Generated_Source\PSoC5/USBUART_1_std.c ****     USBUART_1_DMA_THRES_MSB_REG = 0u;
 506:.\Generated_Source\PSoC5/USBUART_1_std.c **** #endif /* (CY_PSOC4) */
 507:.\Generated_Source\PSoC5/USBUART_1_std.c ****     USBUART_1_EP_ACTIVE_REG = USBUART_1_DEFAULT_ARB_INT_EN;
 508:.\Generated_Source\PSoC5/USBUART_1_std.c ****     USBUART_1_EP_TYPE_REG   = epType;
 509:.\Generated_Source\PSoC5/USBUART_1_std.c ****     
 510:.\Generated_Source\PSoC5/USBUART_1_std.c ****     /* Cfg_cmp bit set to 1 once configuration is complete. */
 511:.\Generated_Source\PSoC5/USBUART_1_std.c ****     /* Lock arbiter configtuation */
 512:.\Generated_Source\PSoC5/USBUART_1_std.c ****     USBUART_1_ARB_CFG_REG |= (uint8)  USBUART_1_ARB_CFG_CFG_CMP;
 513:.\Generated_Source\PSoC5/USBUART_1_std.c ****     /* Cfg_cmp bit set to 0 during configuration of PFSUSB Registers. */
 514:.\Generated_Source\PSoC5/USBUART_1_std.c ****     USBUART_1_ARB_CFG_REG &= (uint8) ~USBUART_1_ARB_CFG_CFG_CMP;
 515:.\Generated_Source\PSoC5/USBUART_1_std.c **** 
 516:.\Generated_Source\PSoC5/USBUART_1_std.c **** #endif /* (USBUART_1_EP_MANAGEMENT_DMA_AUTO) */
 517:.\Generated_Source\PSoC5/USBUART_1_std.c **** 
 518:.\Generated_Source\PSoC5/USBUART_1_std.c ****     /* Enable interrupt SIE interurpt source from EP0-EP1 */
 519:.\Generated_Source\PSoC5/USBUART_1_std.c ****     USBUART_1_SIE_EP_INT_EN_REG = (uint8) USBUART_1_DEFAULT_SIE_EP_INT_EN;
 205              		.loc 1 519 0
 206 0056 054B     		ldr	r3, .L18+12
 207 0058 FF22     		movs	r2, #255
 208 005a 1A70     		strb	r2, [r3]
 209 005c F0BD     		pop	{r4, r5, r6, r7, pc}
 210              	.L19:
ARM GAS  C:\Users\miyag\AppData\Local\Temp\ccphtVl4.s 			page 14


 211 005e 00BF     		.align	2
 212              	.L18:
 213 0060 00000000 		.word	USBUART_1_EP
 214 0064 70600040 		.word	1073766512
 215 0068 FC5F0040 		.word	1073766396
 216 006c 0A600040 		.word	1073766410
 217              		.cfi_endproc
 218              	.LFE2:
 219              		.size	USBUART_1_ConfigReg, .-USBUART_1_ConfigReg
 220              		.section	.text.USBUART_1_EpStateInit,"ax",%progbits
 221              		.align	1
 222              		.global	USBUART_1_EpStateInit
 223              		.thumb
 224              		.thumb_func
 225              		.type	USBUART_1_EpStateInit, %function
 226              	USBUART_1_EpStateInit:
 227              	.LFB3:
 520:.\Generated_Source\PSoC5/USBUART_1_std.c **** }
 521:.\Generated_Source\PSoC5/USBUART_1_std.c **** 
 522:.\Generated_Source\PSoC5/USBUART_1_std.c **** 
 523:.\Generated_Source\PSoC5/USBUART_1_std.c **** /*******************************************************************************
 524:.\Generated_Source\PSoC5/USBUART_1_std.c **** * Function Name: USBUART_1_EpStateInit
 525:.\Generated_Source\PSoC5/USBUART_1_std.c **** ****************************************************************************//**
 526:.\Generated_Source\PSoC5/USBUART_1_std.c **** *
 527:.\Generated_Source\PSoC5/USBUART_1_std.c **** *  This routine initialize state of Data end points based of its type: 
 528:.\Generated_Source\PSoC5/USBUART_1_std.c **** *   IN  - USBUART_1_IN_BUFFER_EMPTY (USBUART_1_EVENT_PENDING)
 529:.\Generated_Source\PSoC5/USBUART_1_std.c **** *   OUT - USBUART_1_OUT_BUFFER_EMPTY (USBUART_1_NO_EVENT_PENDING)
 530:.\Generated_Source\PSoC5/USBUART_1_std.c **** *
 531:.\Generated_Source\PSoC5/USBUART_1_std.c **** *******************************************************************************/
 532:.\Generated_Source\PSoC5/USBUART_1_std.c **** void USBUART_1_EpStateInit(void) 
 533:.\Generated_Source\PSoC5/USBUART_1_std.c **** {
 228              		.loc 1 533 0
 229              		.cfi_startproc
 230              		@ args = 0, pretend = 0, frame = 0
 231              		@ frame_needed = 0, uses_anonymous_args = 0
 232              		@ link register save eliminated.
 233              	.LVL11:
 234              		.loc 1 533 0
 235 0000 0122     		movs	r2, #1
 236              	.LVL12:
 237              	.L23:
 534:.\Generated_Source\PSoC5/USBUART_1_std.c ****     uint8 i;
 535:.\Generated_Source\PSoC5/USBUART_1_std.c **** 
 536:.\Generated_Source\PSoC5/USBUART_1_std.c ****     for (i = USBUART_1_EP1; i < USBUART_1_MAX_EP; i++)
 537:.\Generated_Source\PSoC5/USBUART_1_std.c ****     { 
 538:.\Generated_Source\PSoC5/USBUART_1_std.c ****         if (0u != (USBUART_1_EP[i].addr & USBUART_1_DIR_IN))
 238              		.loc 1 538 0
 239 0002 0749     		ldr	r1, .L26
 240 0004 0C23     		movs	r3, #12
 241 0006 03FB0213 		mla	r3, r3, r2, r1
 242 000a 1979     		ldrb	r1, [r3, #4]	@ zero_extendqisi2
 243 000c 0132     		adds	r2, r2, #1
 244              	.LVL13:
 245 000e 0906     		lsls	r1, r1, #24
 539:.\Generated_Source\PSoC5/USBUART_1_std.c ****         {
 540:.\Generated_Source\PSoC5/USBUART_1_std.c ****             /* IN Endpoint */
 541:.\Generated_Source\PSoC5/USBUART_1_std.c ****             USBUART_1_EP[i].apiEpState = USBUART_1_EVENT_PENDING;
ARM GAS  C:\Users\miyag\AppData\Local\Temp\ccphtVl4.s 			page 15


 246              		.loc 1 541 0
 247 0010 4CBF     		ite	mi
 248 0012 0121     		movmi	r1, #1
 542:.\Generated_Source\PSoC5/USBUART_1_std.c ****         }
 543:.\Generated_Source\PSoC5/USBUART_1_std.c ****         else
 544:.\Generated_Source\PSoC5/USBUART_1_std.c ****         {
 545:.\Generated_Source\PSoC5/USBUART_1_std.c ****             /* OUT Endpoint */
 546:.\Generated_Source\PSoC5/USBUART_1_std.c ****             USBUART_1_EP[i].apiEpState = USBUART_1_NO_EVENT_PENDING;
 249              		.loc 1 546 0
 250 0014 0021     		movpl	r1, #0
 536:.\Generated_Source\PSoC5/USBUART_1_std.c ****     { 
 251              		.loc 1 536 0
 252 0016 092A     		cmp	r2, #9
 253              		.loc 1 546 0
 254 0018 5970     		strb	r1, [r3, #1]
 536:.\Generated_Source\PSoC5/USBUART_1_std.c ****     { 
 255              		.loc 1 536 0
 256 001a F2D1     		bne	.L23
 547:.\Generated_Source\PSoC5/USBUART_1_std.c ****         }
 548:.\Generated_Source\PSoC5/USBUART_1_std.c ****     }
 549:.\Generated_Source\PSoC5/USBUART_1_std.c ****                     
 550:.\Generated_Source\PSoC5/USBUART_1_std.c **** }
 257              		.loc 1 550 0
 258 001c 7047     		bx	lr
 259              	.L27:
 260 001e 00BF     		.align	2
 261              	.L26:
 262 0020 00000000 		.word	USBUART_1_EP
 263              		.cfi_endproc
 264              	.LFE3:
 265              		.size	USBUART_1_EpStateInit, .-USBUART_1_EpStateInit
 266              		.section	.text.USBUART_1_GetConfigTablePtr,"ax",%progbits
 267              		.align	1
 268              		.global	USBUART_1_GetConfigTablePtr
 269              		.thumb
 270              		.thumb_func
 271              		.type	USBUART_1_GetConfigTablePtr, %function
 272              	USBUART_1_GetConfigTablePtr:
 273              	.LFB6:
 551:.\Generated_Source\PSoC5/USBUART_1_std.c **** 
 552:.\Generated_Source\PSoC5/USBUART_1_std.c **** 
 553:.\Generated_Source\PSoC5/USBUART_1_std.c **** /*******************************************************************************
 554:.\Generated_Source\PSoC5/USBUART_1_std.c **** * Function Name: USBUART_1_Config
 555:.\Generated_Source\PSoC5/USBUART_1_std.c **** ****************************************************************************//**
 556:.\Generated_Source\PSoC5/USBUART_1_std.c **** *
 557:.\Generated_Source\PSoC5/USBUART_1_std.c **** *  This routine configures endpoints for the entire configuration by scanning
 558:.\Generated_Source\PSoC5/USBUART_1_std.c **** *  the configuration descriptor.
 559:.\Generated_Source\PSoC5/USBUART_1_std.c **** *
 560:.\Generated_Source\PSoC5/USBUART_1_std.c **** *  \param clearAltSetting: It configures the bAlternateSetting 0 for each interface.
 561:.\Generated_Source\PSoC5/USBUART_1_std.c **** *
 562:.\Generated_Source\PSoC5/USBUART_1_std.c **** * USBUART_1_interfaceClass - Initialized class array for each interface.
 563:.\Generated_Source\PSoC5/USBUART_1_std.c **** *   It is used for handling Class specific requests depend on interface class.
 564:.\Generated_Source\PSoC5/USBUART_1_std.c **** *   Different classes in multiple Alternate settings does not supported.
 565:.\Generated_Source\PSoC5/USBUART_1_std.c **** *
 566:.\Generated_Source\PSoC5/USBUART_1_std.c **** * \reentrant
 567:.\Generated_Source\PSoC5/USBUART_1_std.c **** *  No.
 568:.\Generated_Source\PSoC5/USBUART_1_std.c **** *
ARM GAS  C:\Users\miyag\AppData\Local\Temp\ccphtVl4.s 			page 16


 569:.\Generated_Source\PSoC5/USBUART_1_std.c **** *******************************************************************************/
 570:.\Generated_Source\PSoC5/USBUART_1_std.c **** void USBUART_1_Config(uint8 clearAltSetting) 
 571:.\Generated_Source\PSoC5/USBUART_1_std.c **** {
 572:.\Generated_Source\PSoC5/USBUART_1_std.c ****     uint8 ep;
 573:.\Generated_Source\PSoC5/USBUART_1_std.c ****     uint8 curEp;
 574:.\Generated_Source\PSoC5/USBUART_1_std.c ****     uint8 i;
 575:.\Generated_Source\PSoC5/USBUART_1_std.c ****     uint8 epType;
 576:.\Generated_Source\PSoC5/USBUART_1_std.c ****     const uint8 *pDescr;
 577:.\Generated_Source\PSoC5/USBUART_1_std.c ****     
 578:.\Generated_Source\PSoC5/USBUART_1_std.c ****     #if (!USBUART_1_EP_MANAGEMENT_DMA_AUTO)
 579:.\Generated_Source\PSoC5/USBUART_1_std.c ****         uint16 buffCount = 0u;
 580:.\Generated_Source\PSoC5/USBUART_1_std.c ****     #endif /* (!USBUART_1_EP_MANAGEMENT_DMA_AUTO) */
 581:.\Generated_Source\PSoC5/USBUART_1_std.c **** 
 582:.\Generated_Source\PSoC5/USBUART_1_std.c ****     const T_USBUART_1_LUT CYCODE *pTmp;
 583:.\Generated_Source\PSoC5/USBUART_1_std.c ****     const T_USBUART_1_EP_SETTINGS_BLOCK CYCODE *pEP;
 584:.\Generated_Source\PSoC5/USBUART_1_std.c **** 
 585:.\Generated_Source\PSoC5/USBUART_1_std.c ****     /* Clear endpoints settings */
 586:.\Generated_Source\PSoC5/USBUART_1_std.c ****     for (ep = 0u; ep < USBUART_1_MAX_EP; ++ep)
 587:.\Generated_Source\PSoC5/USBUART_1_std.c ****     {
 588:.\Generated_Source\PSoC5/USBUART_1_std.c ****         USBUART_1_EP[ep].attrib     = 0u;
 589:.\Generated_Source\PSoC5/USBUART_1_std.c ****         USBUART_1_EP[ep].hwEpState  = 0u;
 590:.\Generated_Source\PSoC5/USBUART_1_std.c ****         USBUART_1_EP[ep].epToggle   = 0u;
 591:.\Generated_Source\PSoC5/USBUART_1_std.c ****         USBUART_1_EP[ep].bufferSize = 0u;
 592:.\Generated_Source\PSoC5/USBUART_1_std.c ****         USBUART_1_EP[ep].interface  = 0u;
 593:.\Generated_Source\PSoC5/USBUART_1_std.c ****         USBUART_1_EP[ep].apiEpState = USBUART_1_NO_EVENT_PENDING;
 594:.\Generated_Source\PSoC5/USBUART_1_std.c ****         USBUART_1_EP[ep].epMode     = USBUART_1_MODE_DISABLE;   
 595:.\Generated_Source\PSoC5/USBUART_1_std.c ****     }
 596:.\Generated_Source\PSoC5/USBUART_1_std.c **** 
 597:.\Generated_Source\PSoC5/USBUART_1_std.c ****     /* Clear Alternate settings for all interfaces. */
 598:.\Generated_Source\PSoC5/USBUART_1_std.c ****     if (0u != clearAltSetting)
 599:.\Generated_Source\PSoC5/USBUART_1_std.c ****     {
 600:.\Generated_Source\PSoC5/USBUART_1_std.c ****         for (i = 0u; i < USBUART_1_MAX_INTERFACES_NUMBER; ++i)
 601:.\Generated_Source\PSoC5/USBUART_1_std.c ****         {
 602:.\Generated_Source\PSoC5/USBUART_1_std.c ****             USBUART_1_interfaceSetting[i]     = 0u;
 603:.\Generated_Source\PSoC5/USBUART_1_std.c ****             USBUART_1_interfaceSettingLast[i] = 0u;
 604:.\Generated_Source\PSoC5/USBUART_1_std.c ****         }
 605:.\Generated_Source\PSoC5/USBUART_1_std.c ****     }
 606:.\Generated_Source\PSoC5/USBUART_1_std.c **** 
 607:.\Generated_Source\PSoC5/USBUART_1_std.c ****     /* Init Endpoints and Device Status if configured */
 608:.\Generated_Source\PSoC5/USBUART_1_std.c ****     if (USBUART_1_configuration > 0u)
 609:.\Generated_Source\PSoC5/USBUART_1_std.c ****     {
 610:.\Generated_Source\PSoC5/USBUART_1_std.c ****         #if defined(USBUART_1_ENABLE_CDC_CLASS)
 611:.\Generated_Source\PSoC5/USBUART_1_std.c ****             uint8 cdcComNums = 0u;
 612:.\Generated_Source\PSoC5/USBUART_1_std.c ****         #endif  /* (USBUART_1_ENABLE_CDC_CLASS) */  
 613:.\Generated_Source\PSoC5/USBUART_1_std.c **** 
 614:.\Generated_Source\PSoC5/USBUART_1_std.c ****         pTmp = USBUART_1_GetConfigTablePtr(USBUART_1_configuration - 1u);
 615:.\Generated_Source\PSoC5/USBUART_1_std.c ****         
 616:.\Generated_Source\PSoC5/USBUART_1_std.c ****         /* Set Power status for current configuration */
 617:.\Generated_Source\PSoC5/USBUART_1_std.c ****         pDescr = (const uint8 *)pTmp->p_list;
 618:.\Generated_Source\PSoC5/USBUART_1_std.c ****         if ((pDescr[USBUART_1_CONFIG_DESCR_ATTRIB] & USBUART_1_CONFIG_DESCR_ATTRIB_SELF_POWERED) !=
 619:.\Generated_Source\PSoC5/USBUART_1_std.c ****         {
 620:.\Generated_Source\PSoC5/USBUART_1_std.c ****             USBUART_1_deviceStatus |= (uint8)  USBUART_1_DEVICE_STATUS_SELF_POWERED;
 621:.\Generated_Source\PSoC5/USBUART_1_std.c ****         }
 622:.\Generated_Source\PSoC5/USBUART_1_std.c ****         else
 623:.\Generated_Source\PSoC5/USBUART_1_std.c ****         {
 624:.\Generated_Source\PSoC5/USBUART_1_std.c ****             USBUART_1_deviceStatus &= (uint8) ~USBUART_1_DEVICE_STATUS_SELF_POWERED;
 625:.\Generated_Source\PSoC5/USBUART_1_std.c ****         }
ARM GAS  C:\Users\miyag\AppData\Local\Temp\ccphtVl4.s 			page 17


 626:.\Generated_Source\PSoC5/USBUART_1_std.c ****         
 627:.\Generated_Source\PSoC5/USBUART_1_std.c ****         /* Move to next element */
 628:.\Generated_Source\PSoC5/USBUART_1_std.c ****         pTmp = &pTmp[1u];
 629:.\Generated_Source\PSoC5/USBUART_1_std.c ****         ep = pTmp->c;  /* For this table, c is the number of endpoints configurations  */
 630:.\Generated_Source\PSoC5/USBUART_1_std.c **** 
 631:.\Generated_Source\PSoC5/USBUART_1_std.c ****         #if (USBUART_1_EP_MANAGEMENT_MANUAL && USBUART_1_EP_ALLOC_DYNAMIC)
 632:.\Generated_Source\PSoC5/USBUART_1_std.c ****             /* Configure for dynamic EP memory allocation */
 633:.\Generated_Source\PSoC5/USBUART_1_std.c ****             /* p_list points the endpoint setting table. */
 634:.\Generated_Source\PSoC5/USBUART_1_std.c ****             pEP = (T_USBUART_1_EP_SETTINGS_BLOCK *) pTmp->p_list;
 635:.\Generated_Source\PSoC5/USBUART_1_std.c ****             
 636:.\Generated_Source\PSoC5/USBUART_1_std.c ****             for (i = 0u; i < ep; i++)
 637:.\Generated_Source\PSoC5/USBUART_1_std.c ****             {     
 638:.\Generated_Source\PSoC5/USBUART_1_std.c ****                 /* Compare current Alternate setting with EP Alt */
 639:.\Generated_Source\PSoC5/USBUART_1_std.c ****                 if (USBUART_1_interfaceSetting[pEP->interface] == pEP->altSetting)
 640:.\Generated_Source\PSoC5/USBUART_1_std.c ****                 {                                                          
 641:.\Generated_Source\PSoC5/USBUART_1_std.c ****                     curEp  = pEP->addr & USBUART_1_DIR_UNUSED;
 642:.\Generated_Source\PSoC5/USBUART_1_std.c ****                     epType = pEP->attributes & USBUART_1_EP_TYPE_MASK;
 643:.\Generated_Source\PSoC5/USBUART_1_std.c ****                     
 644:.\Generated_Source\PSoC5/USBUART_1_std.c ****                     USBUART_1_EP[curEp].addr       = pEP->addr;
 645:.\Generated_Source\PSoC5/USBUART_1_std.c ****                     USBUART_1_EP[curEp].attrib     = pEP->attributes;
 646:.\Generated_Source\PSoC5/USBUART_1_std.c ****                     USBUART_1_EP[curEp].bufferSize = pEP->bufferSize;
 647:.\Generated_Source\PSoC5/USBUART_1_std.c **** 
 648:.\Generated_Source\PSoC5/USBUART_1_std.c ****                     if (0u != (pEP->addr & USBUART_1_DIR_IN))
 649:.\Generated_Source\PSoC5/USBUART_1_std.c ****                     {
 650:.\Generated_Source\PSoC5/USBUART_1_std.c ****                         /* IN Endpoint */
 651:.\Generated_Source\PSoC5/USBUART_1_std.c ****                         USBUART_1_EP[curEp].epMode     = USBUART_1_GET_ACTIVE_IN_EP_CR0_MODE(epType
 652:.\Generated_Source\PSoC5/USBUART_1_std.c ****                         USBUART_1_EP[curEp].apiEpState = USBUART_1_EVENT_PENDING;
 653:.\Generated_Source\PSoC5/USBUART_1_std.c ****                     
 654:.\Generated_Source\PSoC5/USBUART_1_std.c ****                     #if (defined(USBUART_1_ENABLE_MIDI_STREAMING) && (USBUART_1_MIDI_IN_BUFF_SIZE >
 655:.\Generated_Source\PSoC5/USBUART_1_std.c ****                         if ((pEP->bMisc == USBUART_1_CLASS_AUDIO) && (epType == USBUART_1_EP_TYPE_B
 656:.\Generated_Source\PSoC5/USBUART_1_std.c ****                         {
 657:.\Generated_Source\PSoC5/USBUART_1_std.c ****                             USBUART_1_midi_in_ep = curEp;
 658:.\Generated_Source\PSoC5/USBUART_1_std.c ****                         }
 659:.\Generated_Source\PSoC5/USBUART_1_std.c ****                     #endif  /* (USBUART_1_ENABLE_MIDI_STREAMING) */
 660:.\Generated_Source\PSoC5/USBUART_1_std.c ****                     }
 661:.\Generated_Source\PSoC5/USBUART_1_std.c ****                     else
 662:.\Generated_Source\PSoC5/USBUART_1_std.c ****                     {
 663:.\Generated_Source\PSoC5/USBUART_1_std.c ****                         /* OUT Endpoint */
 664:.\Generated_Source\PSoC5/USBUART_1_std.c ****                         USBUART_1_EP[curEp].epMode     = USBUART_1_GET_ACTIVE_OUT_EP_CR0_MODE(epTyp
 665:.\Generated_Source\PSoC5/USBUART_1_std.c ****                         USBUART_1_EP[curEp].apiEpState = USBUART_1_NO_EVENT_PENDING;
 666:.\Generated_Source\PSoC5/USBUART_1_std.c ****                         
 667:.\Generated_Source\PSoC5/USBUART_1_std.c ****                     #if (defined(USBUART_1_ENABLE_MIDI_STREAMING) && (USBUART_1_MIDI_OUT_BUFF_SIZE 
 668:.\Generated_Source\PSoC5/USBUART_1_std.c ****                         if ((pEP->bMisc == USBUART_1_CLASS_AUDIO) && (epType == USBUART_1_EP_TYPE_B
 669:.\Generated_Source\PSoC5/USBUART_1_std.c ****                         {
 670:.\Generated_Source\PSoC5/USBUART_1_std.c ****                             USBUART_1_midi_out_ep = curEp;
 671:.\Generated_Source\PSoC5/USBUART_1_std.c ****                         }
 672:.\Generated_Source\PSoC5/USBUART_1_std.c ****                     #endif  /* (USBUART_1_ENABLE_MIDI_STREAMING) */
 673:.\Generated_Source\PSoC5/USBUART_1_std.c ****                     }
 674:.\Generated_Source\PSoC5/USBUART_1_std.c **** 
 675:.\Generated_Source\PSoC5/USBUART_1_std.c ****                 #if(defined (USBUART_1_ENABLE_CDC_CLASS))
 676:.\Generated_Source\PSoC5/USBUART_1_std.c ****                     if((pEP->bMisc == USBUART_1_CLASS_CDC_DATA) ||(pEP->bMisc == USBUART_1_CLASS_CD
 677:.\Generated_Source\PSoC5/USBUART_1_std.c ****                     {
 678:.\Generated_Source\PSoC5/USBUART_1_std.c ****                         cdcComNums = USBUART_1_Cdc_EpInit(pEP, curEp, cdcComNums);
 679:.\Generated_Source\PSoC5/USBUART_1_std.c ****                     }
 680:.\Generated_Source\PSoC5/USBUART_1_std.c ****                 #endif  /* (USBUART_1_ENABLE_CDC_CLASS) */
 681:.\Generated_Source\PSoC5/USBUART_1_std.c ****                 }
 682:.\Generated_Source\PSoC5/USBUART_1_std.c ****                 
ARM GAS  C:\Users\miyag\AppData\Local\Temp\ccphtVl4.s 			page 18


 683:.\Generated_Source\PSoC5/USBUART_1_std.c ****                 pEP = &pEP[1u];
 684:.\Generated_Source\PSoC5/USBUART_1_std.c ****             }
 685:.\Generated_Source\PSoC5/USBUART_1_std.c ****             
 686:.\Generated_Source\PSoC5/USBUART_1_std.c ****         #else
 687:.\Generated_Source\PSoC5/USBUART_1_std.c ****             for (i = USBUART_1_EP1; i < USBUART_1_MAX_EP; ++i)
 688:.\Generated_Source\PSoC5/USBUART_1_std.c ****             {
 689:.\Generated_Source\PSoC5/USBUART_1_std.c ****                 /* p_list points the endpoint setting table. */
 690:.\Generated_Source\PSoC5/USBUART_1_std.c ****                 pEP = (const T_USBUART_1_EP_SETTINGS_BLOCK CYCODE *) pTmp->p_list;
 691:.\Generated_Source\PSoC5/USBUART_1_std.c ****                 /* Find max length for each EP and select it (length could be different in differen
 692:.\Generated_Source\PSoC5/USBUART_1_std.c ****                 /* but other settings should be correct with regards to Interface alt Setting */
 693:.\Generated_Source\PSoC5/USBUART_1_std.c ****                 
 694:.\Generated_Source\PSoC5/USBUART_1_std.c ****                 for (curEp = 0u; curEp < ep; ++curEp)
 695:.\Generated_Source\PSoC5/USBUART_1_std.c ****                 {
 696:.\Generated_Source\PSoC5/USBUART_1_std.c ****                     if (i == (pEP->addr & USBUART_1_DIR_UNUSED))
 697:.\Generated_Source\PSoC5/USBUART_1_std.c ****                     {
 698:.\Generated_Source\PSoC5/USBUART_1_std.c ****                         /* Compare endpoint buffers size with current size to find greater. */
 699:.\Generated_Source\PSoC5/USBUART_1_std.c ****                         if (USBUART_1_EP[i].bufferSize < pEP->bufferSize)
 700:.\Generated_Source\PSoC5/USBUART_1_std.c ****                         {
 701:.\Generated_Source\PSoC5/USBUART_1_std.c ****                             USBUART_1_EP[i].bufferSize = pEP->bufferSize;
 702:.\Generated_Source\PSoC5/USBUART_1_std.c ****                         }
 703:.\Generated_Source\PSoC5/USBUART_1_std.c ****                         
 704:.\Generated_Source\PSoC5/USBUART_1_std.c ****                         /* Compare current Alternate setting with EP Alt */
 705:.\Generated_Source\PSoC5/USBUART_1_std.c ****                         if (USBUART_1_interfaceSetting[pEP->interface] == pEP->altSetting)
 706:.\Generated_Source\PSoC5/USBUART_1_std.c ****                         {                            
 707:.\Generated_Source\PSoC5/USBUART_1_std.c ****                             USBUART_1_EP[i].addr = pEP->addr;
 708:.\Generated_Source\PSoC5/USBUART_1_std.c ****                             USBUART_1_EP[i].attrib = pEP->attributes;
 709:.\Generated_Source\PSoC5/USBUART_1_std.c ****                             
 710:.\Generated_Source\PSoC5/USBUART_1_std.c ****                             epType = pEP->attributes & USBUART_1_EP_TYPE_MASK;
 711:.\Generated_Source\PSoC5/USBUART_1_std.c ****                             
 712:.\Generated_Source\PSoC5/USBUART_1_std.c ****                             if (0u != (pEP->addr & USBUART_1_DIR_IN))
 713:.\Generated_Source\PSoC5/USBUART_1_std.c ****                             {
 714:.\Generated_Source\PSoC5/USBUART_1_std.c ****                                 /* IN Endpoint */
 715:.\Generated_Source\PSoC5/USBUART_1_std.c ****                                 USBUART_1_EP[i].epMode     = USBUART_1_GET_ACTIVE_IN_EP_CR0_MODE(ep
 716:.\Generated_Source\PSoC5/USBUART_1_std.c ****                                 USBUART_1_EP[i].apiEpState = USBUART_1_EVENT_PENDING;
 717:.\Generated_Source\PSoC5/USBUART_1_std.c ****                                 
 718:.\Generated_Source\PSoC5/USBUART_1_std.c ****                             #if (defined(USBUART_1_ENABLE_MIDI_STREAMING) && (USBUART_1_MIDI_IN_BUF
 719:.\Generated_Source\PSoC5/USBUART_1_std.c ****                                 if ((pEP->bMisc == USBUART_1_CLASS_AUDIO) && (epType == USBUART_1_E
 720:.\Generated_Source\PSoC5/USBUART_1_std.c ****                                 {
 721:.\Generated_Source\PSoC5/USBUART_1_std.c ****                                     USBUART_1_midi_in_ep = i;
 722:.\Generated_Source\PSoC5/USBUART_1_std.c ****                                 }
 723:.\Generated_Source\PSoC5/USBUART_1_std.c ****                             #endif  /* (USBUART_1_ENABLE_MIDI_STREAMING) */
 724:.\Generated_Source\PSoC5/USBUART_1_std.c ****                             }
 725:.\Generated_Source\PSoC5/USBUART_1_std.c ****                             else
 726:.\Generated_Source\PSoC5/USBUART_1_std.c ****                             {
 727:.\Generated_Source\PSoC5/USBUART_1_std.c ****                                 /* OUT Endpoint */
 728:.\Generated_Source\PSoC5/USBUART_1_std.c ****                                 USBUART_1_EP[i].epMode     = USBUART_1_GET_ACTIVE_OUT_EP_CR0_MODE(e
 729:.\Generated_Source\PSoC5/USBUART_1_std.c ****                                 USBUART_1_EP[i].apiEpState = USBUART_1_NO_EVENT_PENDING;
 730:.\Generated_Source\PSoC5/USBUART_1_std.c ****                                 
 731:.\Generated_Source\PSoC5/USBUART_1_std.c ****                             #if (defined(USBUART_1_ENABLE_MIDI_STREAMING) && (USBUART_1_MIDI_OUT_BU
 732:.\Generated_Source\PSoC5/USBUART_1_std.c ****                                 if ((pEP->bMisc == USBUART_1_CLASS_AUDIO) && (epType == USBUART_1_E
 733:.\Generated_Source\PSoC5/USBUART_1_std.c ****                                 {
 734:.\Generated_Source\PSoC5/USBUART_1_std.c ****                                     USBUART_1_midi_out_ep = i;
 735:.\Generated_Source\PSoC5/USBUART_1_std.c ****                                 }
 736:.\Generated_Source\PSoC5/USBUART_1_std.c ****                             #endif  /* (USBUART_1_ENABLE_MIDI_STREAMING) */
 737:.\Generated_Source\PSoC5/USBUART_1_std.c ****                             }
 738:.\Generated_Source\PSoC5/USBUART_1_std.c **** 
 739:.\Generated_Source\PSoC5/USBUART_1_std.c ****                         #if (defined(USBUART_1_ENABLE_CDC_CLASS))
ARM GAS  C:\Users\miyag\AppData\Local\Temp\ccphtVl4.s 			page 19


 740:.\Generated_Source\PSoC5/USBUART_1_std.c ****                             if((pEP->bMisc == USBUART_1_CLASS_CDC_DATA) ||(pEP->bMisc == USBUART_1_
 741:.\Generated_Source\PSoC5/USBUART_1_std.c ****                             {
 742:.\Generated_Source\PSoC5/USBUART_1_std.c ****                                 cdcComNums = USBUART_1_Cdc_EpInit(pEP, i, cdcComNums);
 743:.\Generated_Source\PSoC5/USBUART_1_std.c ****                             }
 744:.\Generated_Source\PSoC5/USBUART_1_std.c ****                         #endif  /* (USBUART_1_ENABLE_CDC_CLASS) */
 745:.\Generated_Source\PSoC5/USBUART_1_std.c **** 
 746:.\Generated_Source\PSoC5/USBUART_1_std.c ****                             #if (USBUART_1_EP_MANAGEMENT_DMA_AUTO)
 747:.\Generated_Source\PSoC5/USBUART_1_std.c ****                                 break;  /* Use first EP setting in Auto memory management */
 748:.\Generated_Source\PSoC5/USBUART_1_std.c ****                             #endif /* (USBUART_1_EP_MANAGEMENT_DMA_AUTO) */
 749:.\Generated_Source\PSoC5/USBUART_1_std.c ****                         }
 750:.\Generated_Source\PSoC5/USBUART_1_std.c ****                     }
 751:.\Generated_Source\PSoC5/USBUART_1_std.c ****                     
 752:.\Generated_Source\PSoC5/USBUART_1_std.c ****                     pEP = &pEP[1u];
 753:.\Generated_Source\PSoC5/USBUART_1_std.c ****                 }
 754:.\Generated_Source\PSoC5/USBUART_1_std.c ****             }
 755:.\Generated_Source\PSoC5/USBUART_1_std.c ****         #endif /*  (USBUART_1_EP_MANAGEMENT_MANUAL && USBUART_1_EP_ALLOC_DYNAMIC) */
 756:.\Generated_Source\PSoC5/USBUART_1_std.c **** 
 757:.\Generated_Source\PSoC5/USBUART_1_std.c ****         /* Init class array for each interface and interface number for each EP.
 758:.\Generated_Source\PSoC5/USBUART_1_std.c ****         *  It is used for handling Class specific requests directed to either an
 759:.\Generated_Source\PSoC5/USBUART_1_std.c ****         *  interface or the endpoint.
 760:.\Generated_Source\PSoC5/USBUART_1_std.c ****         */
 761:.\Generated_Source\PSoC5/USBUART_1_std.c ****         /* p_list points the endpoint setting table. */
 762:.\Generated_Source\PSoC5/USBUART_1_std.c ****         pEP = (const T_USBUART_1_EP_SETTINGS_BLOCK CYCODE *) pTmp->p_list;
 763:.\Generated_Source\PSoC5/USBUART_1_std.c ****         for (i = 0u; i < ep; i++)
 764:.\Generated_Source\PSoC5/USBUART_1_std.c ****         {
 765:.\Generated_Source\PSoC5/USBUART_1_std.c ****             /* Configure interface number for each EP */
 766:.\Generated_Source\PSoC5/USBUART_1_std.c ****             USBUART_1_EP[pEP->addr & USBUART_1_DIR_UNUSED].interface = pEP->interface;
 767:.\Generated_Source\PSoC5/USBUART_1_std.c ****             pEP = &pEP[1u];
 768:.\Generated_Source\PSoC5/USBUART_1_std.c ****         }
 769:.\Generated_Source\PSoC5/USBUART_1_std.c ****         
 770:.\Generated_Source\PSoC5/USBUART_1_std.c ****         /* Init pointer on interface class table */
 771:.\Generated_Source\PSoC5/USBUART_1_std.c ****         USBUART_1_interfaceClass = USBUART_1_GetInterfaceClassTablePtr();
 772:.\Generated_Source\PSoC5/USBUART_1_std.c ****         
 773:.\Generated_Source\PSoC5/USBUART_1_std.c ****     /* Set the endpoint buffer addresses */
 774:.\Generated_Source\PSoC5/USBUART_1_std.c ****     #if (!USBUART_1_EP_MANAGEMENT_DMA_AUTO)
 775:.\Generated_Source\PSoC5/USBUART_1_std.c ****         buffCount = 0u;
 776:.\Generated_Source\PSoC5/USBUART_1_std.c ****         for (ep = USBUART_1_EP1; ep < USBUART_1_MAX_EP; ++ep)
 777:.\Generated_Source\PSoC5/USBUART_1_std.c ****         {
 778:.\Generated_Source\PSoC5/USBUART_1_std.c ****             USBUART_1_EP[ep].buffOffset = buffCount;        
 779:.\Generated_Source\PSoC5/USBUART_1_std.c ****             buffCount += USBUART_1_EP[ep].bufferSize;
 780:.\Generated_Source\PSoC5/USBUART_1_std.c ****             
 781:.\Generated_Source\PSoC5/USBUART_1_std.c ****         #if (USBUART_1_GEN_16BITS_EP_ACCESS)
 782:.\Generated_Source\PSoC5/USBUART_1_std.c ****             /* Align EP buffers to be event size to access 16-bits DR register. */
 783:.\Generated_Source\PSoC5/USBUART_1_std.c ****             buffCount += (0u != (buffCount & 0x01u)) ? 1u : 0u;
 784:.\Generated_Source\PSoC5/USBUART_1_std.c ****         #endif /* (USBUART_1_GEN_16BITS_EP_ACCESS) */            
 785:.\Generated_Source\PSoC5/USBUART_1_std.c ****         }
 786:.\Generated_Source\PSoC5/USBUART_1_std.c ****     #endif /* (!USBUART_1_EP_MANAGEMENT_DMA_AUTO) */
 787:.\Generated_Source\PSoC5/USBUART_1_std.c **** 
 788:.\Generated_Source\PSoC5/USBUART_1_std.c ****         /* Configure hardware registers */
 789:.\Generated_Source\PSoC5/USBUART_1_std.c ****         USBUART_1_ConfigReg();
 790:.\Generated_Source\PSoC5/USBUART_1_std.c ****     }
 791:.\Generated_Source\PSoC5/USBUART_1_std.c **** }
 792:.\Generated_Source\PSoC5/USBUART_1_std.c **** 
 793:.\Generated_Source\PSoC5/USBUART_1_std.c **** 
 794:.\Generated_Source\PSoC5/USBUART_1_std.c **** /*******************************************************************************
 795:.\Generated_Source\PSoC5/USBUART_1_std.c **** * Function Name: USBUART_1_ConfigAltChanged
 796:.\Generated_Source\PSoC5/USBUART_1_std.c **** ****************************************************************************//**
ARM GAS  C:\Users\miyag\AppData\Local\Temp\ccphtVl4.s 			page 20


 797:.\Generated_Source\PSoC5/USBUART_1_std.c **** *
 798:.\Generated_Source\PSoC5/USBUART_1_std.c **** *  This routine update configuration for the required endpoints only.
 799:.\Generated_Source\PSoC5/USBUART_1_std.c **** *  It is called after SET_INTERFACE request when Static memory allocation used.
 800:.\Generated_Source\PSoC5/USBUART_1_std.c **** *
 801:.\Generated_Source\PSoC5/USBUART_1_std.c **** * \reentrant
 802:.\Generated_Source\PSoC5/USBUART_1_std.c **** *  No.
 803:.\Generated_Source\PSoC5/USBUART_1_std.c **** *
 804:.\Generated_Source\PSoC5/USBUART_1_std.c **** *******************************************************************************/
 805:.\Generated_Source\PSoC5/USBUART_1_std.c **** void USBUART_1_ConfigAltChanged(void) 
 806:.\Generated_Source\PSoC5/USBUART_1_std.c **** {
 807:.\Generated_Source\PSoC5/USBUART_1_std.c ****     uint8 ep;
 808:.\Generated_Source\PSoC5/USBUART_1_std.c ****     uint8 curEp;
 809:.\Generated_Source\PSoC5/USBUART_1_std.c ****     uint8 epType;
 810:.\Generated_Source\PSoC5/USBUART_1_std.c ****     uint8 i;
 811:.\Generated_Source\PSoC5/USBUART_1_std.c ****     uint8 interfaceNum;
 812:.\Generated_Source\PSoC5/USBUART_1_std.c **** 
 813:.\Generated_Source\PSoC5/USBUART_1_std.c ****     const T_USBUART_1_LUT CYCODE *pTmp;
 814:.\Generated_Source\PSoC5/USBUART_1_std.c ****     const T_USBUART_1_EP_SETTINGS_BLOCK CYCODE *pEP;
 815:.\Generated_Source\PSoC5/USBUART_1_std.c **** 
 816:.\Generated_Source\PSoC5/USBUART_1_std.c ****     /* Init Endpoints and Device Status if configured */
 817:.\Generated_Source\PSoC5/USBUART_1_std.c ****     if (USBUART_1_configuration > 0u)
 818:.\Generated_Source\PSoC5/USBUART_1_std.c ****     {
 819:.\Generated_Source\PSoC5/USBUART_1_std.c ****         /* Get number of endpoints configurations (ep). */
 820:.\Generated_Source\PSoC5/USBUART_1_std.c ****         pTmp = USBUART_1_GetConfigTablePtr(USBUART_1_configuration - 1u);
 821:.\Generated_Source\PSoC5/USBUART_1_std.c ****         pTmp = &pTmp[1u];
 822:.\Generated_Source\PSoC5/USBUART_1_std.c ****         ep = pTmp->c;
 823:.\Generated_Source\PSoC5/USBUART_1_std.c **** 
 824:.\Generated_Source\PSoC5/USBUART_1_std.c ****         /* Get pointer to endpoints setting table (pEP). */
 825:.\Generated_Source\PSoC5/USBUART_1_std.c ****         pEP = (const T_USBUART_1_EP_SETTINGS_BLOCK CYCODE *) pTmp->p_list;
 826:.\Generated_Source\PSoC5/USBUART_1_std.c ****         
 827:.\Generated_Source\PSoC5/USBUART_1_std.c ****         /* Look through all possible endpoint configurations. Find endpoints 
 828:.\Generated_Source\PSoC5/USBUART_1_std.c ****         * which belong to current interface and alternate settings for 
 829:.\Generated_Source\PSoC5/USBUART_1_std.c ****         * re-configuration.
 830:.\Generated_Source\PSoC5/USBUART_1_std.c ****         */
 831:.\Generated_Source\PSoC5/USBUART_1_std.c ****         interfaceNum = USBUART_1_interfaceNumber;
 832:.\Generated_Source\PSoC5/USBUART_1_std.c ****         for (i = 0u; i < ep; i++)
 833:.\Generated_Source\PSoC5/USBUART_1_std.c ****         {
 834:.\Generated_Source\PSoC5/USBUART_1_std.c ****             /* Find endpoints which belong to current interface and alternate settings. */
 835:.\Generated_Source\PSoC5/USBUART_1_std.c ****             if ((interfaceNum == pEP->interface) && 
 836:.\Generated_Source\PSoC5/USBUART_1_std.c ****                 (USBUART_1_interfaceSetting[interfaceNum] == pEP->altSetting))
 837:.\Generated_Source\PSoC5/USBUART_1_std.c ****             {
 838:.\Generated_Source\PSoC5/USBUART_1_std.c ****                 curEp  = ((uint8) pEP->addr & USBUART_1_DIR_UNUSED);
 839:.\Generated_Source\PSoC5/USBUART_1_std.c ****                 epType = ((uint8) pEP->attributes & USBUART_1_EP_TYPE_MASK);
 840:.\Generated_Source\PSoC5/USBUART_1_std.c ****                 
 841:.\Generated_Source\PSoC5/USBUART_1_std.c ****                 /* Change the SIE mode for the selected EP to NAK ALL */
 842:.\Generated_Source\PSoC5/USBUART_1_std.c ****                 USBUART_1_EP[curEp].epToggle   = 0u;
 843:.\Generated_Source\PSoC5/USBUART_1_std.c ****                 USBUART_1_EP[curEp].addr       = pEP->addr;
 844:.\Generated_Source\PSoC5/USBUART_1_std.c ****                 USBUART_1_EP[curEp].attrib     = pEP->attributes;
 845:.\Generated_Source\PSoC5/USBUART_1_std.c ****                 USBUART_1_EP[curEp].bufferSize = pEP->bufferSize;
 846:.\Generated_Source\PSoC5/USBUART_1_std.c **** 
 847:.\Generated_Source\PSoC5/USBUART_1_std.c ****                 if (0u != (pEP->addr & USBUART_1_DIR_IN))
 848:.\Generated_Source\PSoC5/USBUART_1_std.c ****                 {
 849:.\Generated_Source\PSoC5/USBUART_1_std.c ****                     /* IN Endpoint */
 850:.\Generated_Source\PSoC5/USBUART_1_std.c ****                     USBUART_1_EP[curEp].epMode     = USBUART_1_GET_ACTIVE_IN_EP_CR0_MODE(epType);
 851:.\Generated_Source\PSoC5/USBUART_1_std.c ****                     USBUART_1_EP[curEp].apiEpState = USBUART_1_EVENT_PENDING;
 852:.\Generated_Source\PSoC5/USBUART_1_std.c ****                 }
 853:.\Generated_Source\PSoC5/USBUART_1_std.c ****                 else
ARM GAS  C:\Users\miyag\AppData\Local\Temp\ccphtVl4.s 			page 21


 854:.\Generated_Source\PSoC5/USBUART_1_std.c ****                 {
 855:.\Generated_Source\PSoC5/USBUART_1_std.c ****                     /* OUT Endpoint */
 856:.\Generated_Source\PSoC5/USBUART_1_std.c ****                     USBUART_1_EP[curEp].epMode     = USBUART_1_GET_ACTIVE_OUT_EP_CR0_MODE(epType);
 857:.\Generated_Source\PSoC5/USBUART_1_std.c ****                     USBUART_1_EP[curEp].apiEpState = USBUART_1_NO_EVENT_PENDING;
 858:.\Generated_Source\PSoC5/USBUART_1_std.c ****                 }
 859:.\Generated_Source\PSoC5/USBUART_1_std.c ****                 
 860:.\Generated_Source\PSoC5/USBUART_1_std.c ****                 /* Make SIE to NAK any endpoint requests */
 861:.\Generated_Source\PSoC5/USBUART_1_std.c ****                 USBUART_1_SIE_EP_BASE.sieEp[curEp].epCr0 = USBUART_1_MODE_NAK_IN_OUT;
 862:.\Generated_Source\PSoC5/USBUART_1_std.c **** 
 863:.\Generated_Source\PSoC5/USBUART_1_std.c ****             #if (USBUART_1_EP_MANAGEMENT_DMA_AUTO)
 864:.\Generated_Source\PSoC5/USBUART_1_std.c ****                 /* Clear IN data ready. */
 865:.\Generated_Source\PSoC5/USBUART_1_std.c ****                 USBUART_1_ARB_EP_BASE.arbEp[curEp].epCfg &= (uint8) ~USBUART_1_ARB_EPX_CFG_IN_DATA_
 866:.\Generated_Source\PSoC5/USBUART_1_std.c **** 
 867:.\Generated_Source\PSoC5/USBUART_1_std.c ****                 /* Select endpoint number of reconfiguration */
 868:.\Generated_Source\PSoC5/USBUART_1_std.c ****                 USBUART_1_DYN_RECONFIG_REG = (uint8) ((curEp - 1u) << USBUART_1_DYN_RECONFIG_EP_SHI
 869:.\Generated_Source\PSoC5/USBUART_1_std.c ****                 
 870:.\Generated_Source\PSoC5/USBUART_1_std.c ****                 /* Request for dynamic re-configuration of endpoint. */
 871:.\Generated_Source\PSoC5/USBUART_1_std.c ****                 USBUART_1_DYN_RECONFIG_REG |= USBUART_1_DYN_RECONFIG_ENABLE;
 872:.\Generated_Source\PSoC5/USBUART_1_std.c ****                 
 873:.\Generated_Source\PSoC5/USBUART_1_std.c ****                 /* Wait until block is ready for re-configuration */
 874:.\Generated_Source\PSoC5/USBUART_1_std.c ****                 while (0u == (USBUART_1_DYN_RECONFIG_REG & USBUART_1_DYN_RECONFIG_RDY_STS))
 875:.\Generated_Source\PSoC5/USBUART_1_std.c ****                 {
 876:.\Generated_Source\PSoC5/USBUART_1_std.c ****                 }
 877:.\Generated_Source\PSoC5/USBUART_1_std.c ****                 
 878:.\Generated_Source\PSoC5/USBUART_1_std.c ****                 /* Once DYN_RECONFIG_RDY_STS bit is set, FW can change the EP configuration. */
 879:.\Generated_Source\PSoC5/USBUART_1_std.c ****                 /* Change EP Type with new direction */
 880:.\Generated_Source\PSoC5/USBUART_1_std.c ****                 if (0u != (pEP->addr & USBUART_1_DIR_IN))
 881:.\Generated_Source\PSoC5/USBUART_1_std.c ****                 {
 882:.\Generated_Source\PSoC5/USBUART_1_std.c ****                     /* Set endpoint type: 0 - IN and 1 - OUT. */
 883:.\Generated_Source\PSoC5/USBUART_1_std.c ****                     USBUART_1_EP_TYPE_REG &= (uint8) ~(uint8)((uint8) 0x01u << (curEp - 1u));
 884:.\Generated_Source\PSoC5/USBUART_1_std.c ****                     
 885:.\Generated_Source\PSoC5/USBUART_1_std.c ****                 #if (CY_PSOC4)
 886:.\Generated_Source\PSoC5/USBUART_1_std.c ****                     /* Clear DMA_TERMIN for IN endpoint */
 887:.\Generated_Source\PSoC5/USBUART_1_std.c ****                     USBUART_1_ARB_EP_BASE.arbEp[curEp].epIntEn &= (uint32) ~USBUART_1_ARB_EPX_INT_D
 888:.\Generated_Source\PSoC5/USBUART_1_std.c ****                 #endif /* (CY_PSOC4) */
 889:.\Generated_Source\PSoC5/USBUART_1_std.c ****                 }
 890:.\Generated_Source\PSoC5/USBUART_1_std.c ****                 else
 891:.\Generated_Source\PSoC5/USBUART_1_std.c ****                 {
 892:.\Generated_Source\PSoC5/USBUART_1_std.c ****                     /* Set endpoint type: 0 - IN and 1- OUT. */
 893:.\Generated_Source\PSoC5/USBUART_1_std.c ****                     USBUART_1_EP_TYPE_REG |= (uint8) ((uint8) 0x01u << (curEp - 1u));
 894:.\Generated_Source\PSoC5/USBUART_1_std.c ****                     
 895:.\Generated_Source\PSoC5/USBUART_1_std.c ****                 #if (CY_PSOC4)
 896:.\Generated_Source\PSoC5/USBUART_1_std.c ****                     /* Set DMA_TERMIN for OUT endpoint */
 897:.\Generated_Source\PSoC5/USBUART_1_std.c ****                     USBUART_1_ARB_EP_BASE.arbEp[curEp].epIntEn |= (uint32) USBUART_1_ARB_EPX_INT_DM
 898:.\Generated_Source\PSoC5/USBUART_1_std.c ****                 #endif /* (CY_PSOC4) */
 899:.\Generated_Source\PSoC5/USBUART_1_std.c ****                 }
 900:.\Generated_Source\PSoC5/USBUART_1_std.c ****                 
 901:.\Generated_Source\PSoC5/USBUART_1_std.c ****                 /* Complete dynamic re-configuration: all endpoint related status and signals 
 902:.\Generated_Source\PSoC5/USBUART_1_std.c ****                 * are set into the default state.
 903:.\Generated_Source\PSoC5/USBUART_1_std.c ****                 */
 904:.\Generated_Source\PSoC5/USBUART_1_std.c ****                 USBUART_1_DYN_RECONFIG_REG &= (uint8) ~USBUART_1_DYN_RECONFIG_ENABLE;
 905:.\Generated_Source\PSoC5/USBUART_1_std.c **** 
 906:.\Generated_Source\PSoC5/USBUART_1_std.c ****             #else
 907:.\Generated_Source\PSoC5/USBUART_1_std.c ****                 USBUART_1_SIE_EP_BASE.sieEp[curEp].epCnt0 = HI8(USBUART_1_EP[curEp].bufferSize);
 908:.\Generated_Source\PSoC5/USBUART_1_std.c ****                 USBUART_1_SIE_EP_BASE.sieEp[curEp].epCnt1 = LO8(USBUART_1_EP[curEp].bufferSize);
 909:.\Generated_Source\PSoC5/USBUART_1_std.c ****                 
 910:.\Generated_Source\PSoC5/USBUART_1_std.c ****                 #if (CY_PSOC4)
ARM GAS  C:\Users\miyag\AppData\Local\Temp\ccphtVl4.s 			page 22


 911:.\Generated_Source\PSoC5/USBUART_1_std.c ****                     USBUART_1_ARB_EP16_BASE.arbEp[curEp].rwRa16  = (uint32) USBUART_1_EP[curEp].buf
 912:.\Generated_Source\PSoC5/USBUART_1_std.c ****                     USBUART_1_ARB_EP16_BASE.arbEp[curEp].rwWa16  = (uint32) USBUART_1_EP[curEp].buf
 913:.\Generated_Source\PSoC5/USBUART_1_std.c ****                 #else
 914:.\Generated_Source\PSoC5/USBUART_1_std.c ****                     USBUART_1_ARB_EP_BASE.arbEp[curEp].rwRa    = LO8(USBUART_1_EP[curEp].buffOffset
 915:.\Generated_Source\PSoC5/USBUART_1_std.c ****                     USBUART_1_ARB_EP_BASE.arbEp[curEp].rwRaMsb = HI8(USBUART_1_EP[curEp].buffOffset
 916:.\Generated_Source\PSoC5/USBUART_1_std.c ****                     USBUART_1_ARB_EP_BASE.arbEp[curEp].rwWa    = LO8(USBUART_1_EP[curEp].buffOffset
 917:.\Generated_Source\PSoC5/USBUART_1_std.c ****                     USBUART_1_ARB_EP_BASE.arbEp[curEp].rwWaMsb = HI8(USBUART_1_EP[curEp].buffOffset
 918:.\Generated_Source\PSoC5/USBUART_1_std.c ****                 #endif /* (CY_PSOC4) */                
 919:.\Generated_Source\PSoC5/USBUART_1_std.c ****             #endif /* (USBUART_1_EP_MANAGEMENT_DMA_AUTO) */
 920:.\Generated_Source\PSoC5/USBUART_1_std.c ****             }
 921:.\Generated_Source\PSoC5/USBUART_1_std.c ****             
 922:.\Generated_Source\PSoC5/USBUART_1_std.c ****             pEP = &pEP[1u]; /* Get next EP element */
 923:.\Generated_Source\PSoC5/USBUART_1_std.c ****         }
 924:.\Generated_Source\PSoC5/USBUART_1_std.c ****         
 925:.\Generated_Source\PSoC5/USBUART_1_std.c ****         /* The main loop has to re-enable DMA and OUT endpoint */
 926:.\Generated_Source\PSoC5/USBUART_1_std.c ****     }
 927:.\Generated_Source\PSoC5/USBUART_1_std.c **** }
 928:.\Generated_Source\PSoC5/USBUART_1_std.c **** 
 929:.\Generated_Source\PSoC5/USBUART_1_std.c **** 
 930:.\Generated_Source\PSoC5/USBUART_1_std.c **** /*******************************************************************************
 931:.\Generated_Source\PSoC5/USBUART_1_std.c **** * Function Name: USBUART_1_GetConfigTablePtr
 932:.\Generated_Source\PSoC5/USBUART_1_std.c **** ****************************************************************************//**
 933:.\Generated_Source\PSoC5/USBUART_1_std.c **** *
 934:.\Generated_Source\PSoC5/USBUART_1_std.c **** *  This routine returns a pointer a configuration table entry
 935:.\Generated_Source\PSoC5/USBUART_1_std.c **** *
 936:.\Generated_Source\PSoC5/USBUART_1_std.c **** *  \param confIndex:  Configuration Index
 937:.\Generated_Source\PSoC5/USBUART_1_std.c **** *
 938:.\Generated_Source\PSoC5/USBUART_1_std.c **** * \return
 939:.\Generated_Source\PSoC5/USBUART_1_std.c **** *  Device Descriptor pointer or NULL when descriptor does not exist.
 940:.\Generated_Source\PSoC5/USBUART_1_std.c **** *
 941:.\Generated_Source\PSoC5/USBUART_1_std.c **** *******************************************************************************/
 942:.\Generated_Source\PSoC5/USBUART_1_std.c **** const T_USBUART_1_LUT CYCODE *USBUART_1_GetConfigTablePtr(uint8 confIndex)
 943:.\Generated_Source\PSoC5/USBUART_1_std.c ****                                                         
 944:.\Generated_Source\PSoC5/USBUART_1_std.c **** {
 274              		.loc 1 944 0
 275              		.cfi_startproc
 276              		@ args = 0, pretend = 0, frame = 0
 277              		@ frame_needed = 0, uses_anonymous_args = 0
 278              		@ link register save eliminated.
 279              	.LVL14:
 945:.\Generated_Source\PSoC5/USBUART_1_std.c ****     /* Device Table */
 946:.\Generated_Source\PSoC5/USBUART_1_std.c ****     const T_USBUART_1_LUT CYCODE *pTmp;
 947:.\Generated_Source\PSoC5/USBUART_1_std.c **** 
 948:.\Generated_Source\PSoC5/USBUART_1_std.c ****     pTmp = (const T_USBUART_1_LUT CYCODE *) USBUART_1_TABLE[USBUART_1_device].p_list;
 280              		.loc 1 948 0
 281 0000 064B     		ldr	r3, .L31
 282 0002 074A     		ldr	r2, .L31+4
 283 0004 1B78     		ldrb	r3, [r3]	@ zero_extendqisi2
 284 0006 02EBC302 		add	r2, r2, r3, lsl #3
 285 000a 5368     		ldr	r3, [r2, #4]
 286              	.LVL15:
 949:.\Generated_Source\PSoC5/USBUART_1_std.c **** 
 950:.\Generated_Source\PSoC5/USBUART_1_std.c ****     /* The first entry points to the Device Descriptor,
 951:.\Generated_Source\PSoC5/USBUART_1_std.c ****     *  the second entry point to the BOS Descriptor
 952:.\Generated_Source\PSoC5/USBUART_1_std.c ****     *  the rest configuration entries.
 953:.\Generated_Source\PSoC5/USBUART_1_std.c ****     *  Set pointer to the first Configuration Descriptor
 954:.\Generated_Source\PSoC5/USBUART_1_std.c ****     */
ARM GAS  C:\Users\miyag\AppData\Local\Temp\ccphtVl4.s 			page 23


 955:.\Generated_Source\PSoC5/USBUART_1_std.c ****     pTmp = &pTmp[2u];
 956:.\Generated_Source\PSoC5/USBUART_1_std.c ****     /* For this table, c is the number of configuration descriptors  */
 957:.\Generated_Source\PSoC5/USBUART_1_std.c ****     if(confIndex >= pTmp->c)   /* Verify that required configuration descriptor exists */
 287              		.loc 1 957 0
 288 000c 1A7C     		ldrb	r2, [r3, #16]	@ zero_extendqisi2
 289 000e 8242     		cmp	r2, r0
 290 0010 86BF     		itte	hi
 291 0012 03EBC003 		addhi	r3, r3, r0, lsl #3
 292              	.LVL16:
 958:.\Generated_Source\PSoC5/USBUART_1_std.c ****     {
 959:.\Generated_Source\PSoC5/USBUART_1_std.c ****         pTmp = (const T_USBUART_1_LUT CYCODE *) NULL;
 960:.\Generated_Source\PSoC5/USBUART_1_std.c ****     }
 961:.\Generated_Source\PSoC5/USBUART_1_std.c ****     else
 962:.\Generated_Source\PSoC5/USBUART_1_std.c ****     {
 963:.\Generated_Source\PSoC5/USBUART_1_std.c ****         pTmp = (const T_USBUART_1_LUT CYCODE *) pTmp[confIndex].p_list;
 293              		.loc 1 963 0
 294 0016 5869     		ldrhi	r0, [r3, #20]
 295              	.LVL17:
 959:.\Generated_Source\PSoC5/USBUART_1_std.c ****     }
 296              		.loc 1 959 0
 297 0018 0020     		movls	r0, #0
 298              	.LVL18:
 964:.\Generated_Source\PSoC5/USBUART_1_std.c ****     }
 965:.\Generated_Source\PSoC5/USBUART_1_std.c **** 
 966:.\Generated_Source\PSoC5/USBUART_1_std.c ****     return (pTmp);
 967:.\Generated_Source\PSoC5/USBUART_1_std.c **** }
 299              		.loc 1 967 0
 300 001a 7047     		bx	lr
 301              	.L32:
 302              		.align	2
 303              	.L31:
 304 001c 00000000 		.word	USBUART_1_device
 305 0020 00000000 		.word	USBUART_1_TABLE
 306              		.cfi_endproc
 307              	.LFE6:
 308              		.size	USBUART_1_GetConfigTablePtr, .-USBUART_1_GetConfigTablePtr
 309              		.section	.text.USBUART_1_ConfigAltChanged,"ax",%progbits
 310              		.align	1
 311              		.global	USBUART_1_ConfigAltChanged
 312              		.thumb
 313              		.thumb_func
 314              		.type	USBUART_1_ConfigAltChanged, %function
 315              	USBUART_1_ConfigAltChanged:
 316              	.LFB5:
 806:.\Generated_Source\PSoC5/USBUART_1_std.c ****     uint8 ep;
 317              		.loc 1 806 0
 318              		.cfi_startproc
 319              		@ args = 0, pretend = 0, frame = 0
 320              		@ frame_needed = 0, uses_anonymous_args = 0
 321 0000 F8B5     		push	{r3, r4, r5, r6, r7, lr}
 322              		.cfi_def_cfa_offset 24
 323              		.cfi_offset 3, -24
 324              		.cfi_offset 4, -20
 325              		.cfi_offset 5, -16
 326              		.cfi_offset 6, -12
 327              		.cfi_offset 7, -8
 328              		.cfi_offset 14, -4
ARM GAS  C:\Users\miyag\AppData\Local\Temp\ccphtVl4.s 			page 24


 817:.\Generated_Source\PSoC5/USBUART_1_std.c ****     {
 329              		.loc 1 817 0
 330 0002 334B     		ldr	r3, .L45
 331 0004 1A78     		ldrb	r2, [r3]	@ zero_extendqisi2
 332 0006 002A     		cmp	r2, #0
 333 0008 61D0     		beq	.L33
 334              	.LBB7:
 335              	.LBB8:
 820:.\Generated_Source\PSoC5/USBUART_1_std.c ****         pTmp = &pTmp[1u];
 336              		.loc 1 820 0
 337 000a 1878     		ldrb	r0, [r3]	@ zero_extendqisi2
 338 000c 0138     		subs	r0, r0, #1
 339 000e C0B2     		uxtb	r0, r0
 340 0010 FFF7FEFF 		bl	USBUART_1_GetConfigTablePtr
 341              	.LVL19:
 831:.\Generated_Source\PSoC5/USBUART_1_std.c ****         for (i = 0u; i < ep; i++)
 342              		.loc 1 831 0
 343 0014 2F4A     		ldr	r2, .L45+4
 825:.\Generated_Source\PSoC5/USBUART_1_std.c ****         
 344              		.loc 1 825 0
 345 0016 C368     		ldr	r3, [r0, #12]
 346              	.LVL20:
 831:.\Generated_Source\PSoC5/USBUART_1_std.c ****         for (i = 0u; i < ep; i++)
 347              		.loc 1 831 0
 348 0018 1478     		ldrb	r4, [r2]	@ zero_extendqisi2
 349 001a 067A     		ldrb	r6, [r0, #8]	@ zero_extendqisi2
 350 001c E4B2     		uxtb	r4, r4
 351              	.LVL21:
 352 001e 03EBC606 		add	r6, r3, r6, lsl #3
 353              	.LVL22:
 354              	.L35:
 832:.\Generated_Source\PSoC5/USBUART_1_std.c ****         {
 355              		.loc 1 832 0
 356 0022 B342     		cmp	r3, r6
 357 0024 53D0     		beq	.L33
 835:.\Generated_Source\PSoC5/USBUART_1_std.c ****                 (USBUART_1_interfaceSetting[interfaceNum] == pEP->altSetting))
 358              		.loc 1 835 0
 359 0026 1A78     		ldrb	r2, [r3]	@ zero_extendqisi2
 360 0028 A242     		cmp	r2, r4
 361 002a 4ED1     		bne	.L36
 836:.\Generated_Source\PSoC5/USBUART_1_std.c ****             {
 362              		.loc 1 836 0
 363 002c 2A4A     		ldr	r2, .L45+8
 835:.\Generated_Source\PSoC5/USBUART_1_std.c ****                 (USBUART_1_interfaceSetting[interfaceNum] == pEP->altSetting))
 364              		.loc 1 835 0
 365 002e 5978     		ldrb	r1, [r3, #1]	@ zero_extendqisi2
 836:.\Generated_Source\PSoC5/USBUART_1_std.c ****             {
 366              		.loc 1 836 0
 367 0030 125D     		ldrb	r2, [r2, r4]	@ zero_extendqisi2
 835:.\Generated_Source\PSoC5/USBUART_1_std.c ****                 (USBUART_1_interfaceSetting[interfaceNum] == pEP->altSetting))
 368              		.loc 1 835 0
 369 0032 9142     		cmp	r1, r2
 370 0034 49D1     		bne	.L36
 838:.\Generated_Source\PSoC5/USBUART_1_std.c ****                 epType = ((uint8) pEP->attributes & USBUART_1_EP_TYPE_MASK);
 371              		.loc 1 838 0
 372 0036 9A78     		ldrb	r2, [r3, #2]	@ zero_extendqisi2
 842:.\Generated_Source\PSoC5/USBUART_1_std.c ****                 USBUART_1_EP[curEp].addr       = pEP->addr;
ARM GAS  C:\Users\miyag\AppData\Local\Temp\ccphtVl4.s 			page 25


 373              		.loc 1 842 0
 374 0038 0C25     		movs	r5, #12
 838:.\Generated_Source\PSoC5/USBUART_1_std.c ****                 epType = ((uint8) pEP->attributes & USBUART_1_EP_TYPE_MASK);
 375              		.loc 1 838 0
 376 003a 02F07F07 		and	r7, r2, #127
 377              	.LVL23:
 842:.\Generated_Source\PSoC5/USBUART_1_std.c ****                 USBUART_1_EP[curEp].addr       = pEP->addr;
 378              		.loc 1 842 0
 379 003e 7D43     		muls	r5, r7, r5
 380 0040 264A     		ldr	r2, .L45+12
 381 0042 4FF0000E 		mov	lr, #0
 382 0046 5119     		adds	r1, r2, r5
 839:.\Generated_Source\PSoC5/USBUART_1_std.c ****                 
 383              		.loc 1 839 0
 384 0048 D878     		ldrb	r0, [r3, #3]	@ zero_extendqisi2
 842:.\Generated_Source\PSoC5/USBUART_1_std.c ****                 USBUART_1_EP[curEp].addr       = pEP->addr;
 385              		.loc 1 842 0
 386 004a 81F803E0 		strb	lr, [r1, #3]
 843:.\Generated_Source\PSoC5/USBUART_1_std.c ****                 USBUART_1_EP[curEp].attrib     = pEP->attributes;
 387              		.loc 1 843 0
 388 004e 93F802C0 		ldrb	ip, [r3, #2]	@ zero_extendqisi2
 839:.\Generated_Source\PSoC5/USBUART_1_std.c ****                 
 389              		.loc 1 839 0
 390 0052 00F00300 		and	r0, r0, #3
 391              	.LVL24:
 843:.\Generated_Source\PSoC5/USBUART_1_std.c ****                 USBUART_1_EP[curEp].attrib     = pEP->attributes;
 392              		.loc 1 843 0
 393 0056 81F804C0 		strb	ip, [r1, #4]
 844:.\Generated_Source\PSoC5/USBUART_1_std.c ****                 USBUART_1_EP[curEp].bufferSize = pEP->bufferSize;
 394              		.loc 1 844 0
 395 005a 93F803C0 		ldrb	ip, [r3, #3]	@ zero_extendqisi2
 396 005e 02F805C0 		strb	ip, [r2, r5]
 845:.\Generated_Source\PSoC5/USBUART_1_std.c **** 
 397              		.loc 1 845 0
 398 0062 9D88     		ldrh	r5, [r3, #4]
 399 0064 0D81     		strh	r5, [r1, #8]	@ movhi
 847:.\Generated_Source\PSoC5/USBUART_1_std.c ****                 {
 400              		.loc 1 847 0
 401 0066 93F90250 		ldrsb	r5, [r3, #2]
 402 006a 7545     		cmp	r5, lr
 403 006c 07DA     		bge	.L37
 850:.\Generated_Source\PSoC5/USBUART_1_std.c ****                     USBUART_1_EP[curEp].apiEpState = USBUART_1_EVENT_PENDING;
 404              		.loc 1 850 0
 405 006e 0128     		cmp	r0, #1
 406 0070 0CBF     		ite	eq
 407 0072 0720     		moveq	r0, #7
 408              	.LVL25:
 409 0074 0D20     		movne	r0, #13
 410 0076 4871     		strb	r0, [r1, #5]
 851:.\Generated_Source\PSoC5/USBUART_1_std.c ****                 }
 411              		.loc 1 851 0
 412 0078 0120     		movs	r0, #1
 413 007a 4870     		strb	r0, [r1, #1]
 414 007c 06E0     		b	.L39
 415              	.LVL26:
 416              	.L37:
 856:.\Generated_Source\PSoC5/USBUART_1_std.c ****                     USBUART_1_EP[curEp].apiEpState = USBUART_1_NO_EVENT_PENDING;
ARM GAS  C:\Users\miyag\AppData\Local\Temp\ccphtVl4.s 			page 26


 417              		.loc 1 856 0
 418 007e 0128     		cmp	r0, #1
 419 0080 0CBF     		ite	eq
 420 0082 0520     		moveq	r0, #5
 421              	.LVL27:
 422 0084 0920     		movne	r0, #9
 423 0086 4871     		strb	r0, [r1, #5]
 857:.\Generated_Source\PSoC5/USBUART_1_std.c ****                 }
 424              		.loc 1 857 0
 425 0088 81F801E0 		strb	lr, [r1, #1]
 426              	.L39:
 427 008c 1449     		ldr	r1, .L45+16
 428 008e 3D01     		lsls	r5, r7, #4
 429 0090 2944     		add	r1, r1, r5
 861:.\Generated_Source\PSoC5/USBUART_1_std.c **** 
 430              		.loc 1 861 0
 431 0092 0120     		movs	r0, #1
 432 0094 8870     		strb	r0, [r1, #2]
 907:.\Generated_Source\PSoC5/USBUART_1_std.c ****                 USBUART_1_SIE_EP_BASE.sieEp[curEp].epCnt1 = LO8(USBUART_1_EP[curEp].bufferSize);
 433              		.loc 1 907 0
 434 0096 0C20     		movs	r0, #12
 435 0098 00FB0722 		mla	r2, r0, r7, r2
 436 009c 1089     		ldrh	r0, [r2, #8]
 437 009e C0F30720 		ubfx	r0, r0, #8, #8
 438 00a2 0870     		strb	r0, [r1]
 908:.\Generated_Source\PSoC5/USBUART_1_std.c ****                 
 439              		.loc 1 908 0
 440 00a4 1089     		ldrh	r0, [r2, #8]
 441 00a6 C0B2     		uxtb	r0, r0
 442 00a8 4870     		strb	r0, [r1, #1]
 914:.\Generated_Source\PSoC5/USBUART_1_std.c ****                     USBUART_1_ARB_EP_BASE.arbEp[curEp].rwRaMsb = HI8(USBUART_1_EP[curEp].buffOffset
 443              		.loc 1 914 0
 444 00aa D088     		ldrh	r0, [r2, #6]
 445 00ac 0D49     		ldr	r1, .L45+20
 446 00ae C0B2     		uxtb	r0, r0
 447 00b0 2944     		add	r1, r1, r5
 448 00b2 8871     		strb	r0, [r1, #6]
 915:.\Generated_Source\PSoC5/USBUART_1_std.c ****                     USBUART_1_ARB_EP_BASE.arbEp[curEp].rwWa    = LO8(USBUART_1_EP[curEp].buffOffset
 449              		.loc 1 915 0
 450 00b4 D088     		ldrh	r0, [r2, #6]
 451 00b6 C0F30720 		ubfx	r0, r0, #8, #8
 452 00ba C871     		strb	r0, [r1, #7]
 916:.\Generated_Source\PSoC5/USBUART_1_std.c ****                     USBUART_1_ARB_EP_BASE.arbEp[curEp].rwWaMsb = HI8(USBUART_1_EP[curEp].buffOffset
 453              		.loc 1 916 0
 454 00bc D088     		ldrh	r0, [r2, #6]
 455 00be C0B2     		uxtb	r0, r0
 456 00c0 0871     		strb	r0, [r1, #4]
 917:.\Generated_Source\PSoC5/USBUART_1_std.c ****                 #endif /* (CY_PSOC4) */                
 457              		.loc 1 917 0
 458 00c2 D288     		ldrh	r2, [r2, #6]
 459 00c4 C2F30722 		ubfx	r2, r2, #8, #8
 460 00c8 4A71     		strb	r2, [r1, #5]
 461              	.LVL28:
 462              	.L36:
 922:.\Generated_Source\PSoC5/USBUART_1_std.c ****         }
 463              		.loc 1 922 0
 464 00ca 0833     		adds	r3, r3, #8
ARM GAS  C:\Users\miyag\AppData\Local\Temp\ccphtVl4.s 			page 27


 465              	.LVL29:
 466 00cc A9E7     		b	.L35
 467              	.LVL30:
 468              	.L33:
 469 00ce F8BD     		pop	{r3, r4, r5, r6, r7, pc}
 470              	.L46:
 471              		.align	2
 472              	.L45:
 473 00d0 00000000 		.word	USBUART_1_configuration
 474 00d4 00000000 		.word	USBUART_1_interfaceNumber
 475 00d8 00000000 		.word	USBUART_1_interfaceSetting
 476 00dc 00000000 		.word	USBUART_1_EP
 477 00e0 FC5F0040 		.word	1073766396
 478 00e4 70600040 		.word	1073766512
 479              	.LBE8:
 480              	.LBE7:
 481              		.cfi_endproc
 482              	.LFE5:
 483              		.size	USBUART_1_ConfigAltChanged, .-USBUART_1_ConfigAltChanged
 484              		.section	.text.USBUART_1_GetDeviceTablePtr,"ax",%progbits
 485              		.align	1
 486              		.global	USBUART_1_GetDeviceTablePtr
 487              		.thumb
 488              		.thumb_func
 489              		.type	USBUART_1_GetDeviceTablePtr, %function
 490              	USBUART_1_GetDeviceTablePtr:
 491              	.LFB7:
 968:.\Generated_Source\PSoC5/USBUART_1_std.c **** 
 969:.\Generated_Source\PSoC5/USBUART_1_std.c **** 
 970:.\Generated_Source\PSoC5/USBUART_1_std.c **** #if (USBUART_1_BOS_ENABLE)
 971:.\Generated_Source\PSoC5/USBUART_1_std.c ****     /*******************************************************************************
 972:.\Generated_Source\PSoC5/USBUART_1_std.c ****     * Function Name: USBUART_1_GetBOSPtr
 973:.\Generated_Source\PSoC5/USBUART_1_std.c ****     ****************************************************************************//**
 974:.\Generated_Source\PSoC5/USBUART_1_std.c ****     *
 975:.\Generated_Source\PSoC5/USBUART_1_std.c ****     *  This routine returns a pointer a BOS table entry
 976:.\Generated_Source\PSoC5/USBUART_1_std.c ****     *
 977:.\Generated_Source\PSoC5/USBUART_1_std.c ****     *  
 978:.\Generated_Source\PSoC5/USBUART_1_std.c ****     *
 979:.\Generated_Source\PSoC5/USBUART_1_std.c ****     * \return
 980:.\Generated_Source\PSoC5/USBUART_1_std.c ****     *  BOS Descriptor pointer or NULL when descriptor does not exist.
 981:.\Generated_Source\PSoC5/USBUART_1_std.c ****     *
 982:.\Generated_Source\PSoC5/USBUART_1_std.c ****     *******************************************************************************/
 983:.\Generated_Source\PSoC5/USBUART_1_std.c ****     const T_USBUART_1_LUT CYCODE *USBUART_1_GetBOSPtr(void)
 984:.\Generated_Source\PSoC5/USBUART_1_std.c ****                                                             
 985:.\Generated_Source\PSoC5/USBUART_1_std.c ****     {
 986:.\Generated_Source\PSoC5/USBUART_1_std.c ****         /* Device Table */
 987:.\Generated_Source\PSoC5/USBUART_1_std.c ****         const T_USBUART_1_LUT CYCODE *pTmp;
 988:.\Generated_Source\PSoC5/USBUART_1_std.c **** 
 989:.\Generated_Source\PSoC5/USBUART_1_std.c ****         pTmp = (const T_USBUART_1_LUT CYCODE *) USBUART_1_TABLE[USBUART_1_device].p_list;
 990:.\Generated_Source\PSoC5/USBUART_1_std.c **** 
 991:.\Generated_Source\PSoC5/USBUART_1_std.c ****         /* The first entry points to the Device Descriptor,
 992:.\Generated_Source\PSoC5/USBUART_1_std.c ****         *  the second entry points to the BOS Descriptor
 993:.\Generated_Source\PSoC5/USBUART_1_std.c ****         */
 994:.\Generated_Source\PSoC5/USBUART_1_std.c ****         pTmp = &pTmp[1u];
 995:.\Generated_Source\PSoC5/USBUART_1_std.c ****         pTmp = (const T_USBUART_1_LUT CYCODE *) pTmp->p_list;
 996:.\Generated_Source\PSoC5/USBUART_1_std.c ****         return (pTmp);
 997:.\Generated_Source\PSoC5/USBUART_1_std.c ****     }
ARM GAS  C:\Users\miyag\AppData\Local\Temp\ccphtVl4.s 			page 28


 998:.\Generated_Source\PSoC5/USBUART_1_std.c **** #endif /* (USBUART_1_BOS_ENABLE) */
 999:.\Generated_Source\PSoC5/USBUART_1_std.c **** 
1000:.\Generated_Source\PSoC5/USBUART_1_std.c **** 
1001:.\Generated_Source\PSoC5/USBUART_1_std.c **** /*******************************************************************************
1002:.\Generated_Source\PSoC5/USBUART_1_std.c **** * Function Name: USBUART_1_GetDeviceTablePtr
1003:.\Generated_Source\PSoC5/USBUART_1_std.c **** ****************************************************************************//**
1004:.\Generated_Source\PSoC5/USBUART_1_std.c **** *
1005:.\Generated_Source\PSoC5/USBUART_1_std.c **** *  This routine returns a pointer to the Device table
1006:.\Generated_Source\PSoC5/USBUART_1_std.c **** *
1007:.\Generated_Source\PSoC5/USBUART_1_std.c **** * \return
1008:.\Generated_Source\PSoC5/USBUART_1_std.c **** *  Device Table pointer
1009:.\Generated_Source\PSoC5/USBUART_1_std.c **** *
1010:.\Generated_Source\PSoC5/USBUART_1_std.c **** *******************************************************************************/
1011:.\Generated_Source\PSoC5/USBUART_1_std.c **** const T_USBUART_1_LUT CYCODE *USBUART_1_GetDeviceTablePtr(void)
1012:.\Generated_Source\PSoC5/USBUART_1_std.c ****                                                             
1013:.\Generated_Source\PSoC5/USBUART_1_std.c **** {
 492              		.loc 1 1013 0
 493              		.cfi_startproc
 494              		@ args = 0, pretend = 0, frame = 0
 495              		@ frame_needed = 0, uses_anonymous_args = 0
 496              		@ link register save eliminated.
1014:.\Generated_Source\PSoC5/USBUART_1_std.c ****     /* Device Table */
1015:.\Generated_Source\PSoC5/USBUART_1_std.c ****     return( (const T_USBUART_1_LUT CYCODE *) USBUART_1_TABLE[USBUART_1_device].p_list );
 497              		.loc 1 1015 0
 498 0000 034B     		ldr	r3, .L48
 499 0002 1A78     		ldrb	r2, [r3]	@ zero_extendqisi2
 500 0004 034B     		ldr	r3, .L48+4
 501 0006 03EBC203 		add	r3, r3, r2, lsl #3
1016:.\Generated_Source\PSoC5/USBUART_1_std.c **** }
 502              		.loc 1 1016 0
 503 000a 5868     		ldr	r0, [r3, #4]
 504 000c 7047     		bx	lr
 505              	.L49:
 506 000e 00BF     		.align	2
 507              	.L48:
 508 0010 00000000 		.word	USBUART_1_device
 509 0014 00000000 		.word	USBUART_1_TABLE
 510              		.cfi_endproc
 511              	.LFE7:
 512              		.size	USBUART_1_GetDeviceTablePtr, .-USBUART_1_GetDeviceTablePtr
 513              		.section	.text.USBUART_1_GetInterfaceClassTablePtr,"ax",%progbits
 514              		.align	1
 515              		.global	USBUART_1_GetInterfaceClassTablePtr
 516              		.thumb
 517              		.thumb_func
 518              		.type	USBUART_1_GetInterfaceClassTablePtr, %function
 519              	USBUART_1_GetInterfaceClassTablePtr:
 520              	.LFB8:
1017:.\Generated_Source\PSoC5/USBUART_1_std.c **** 
1018:.\Generated_Source\PSoC5/USBUART_1_std.c **** 
1019:.\Generated_Source\PSoC5/USBUART_1_std.c **** /*******************************************************************************
1020:.\Generated_Source\PSoC5/USBUART_1_std.c **** * Function Name: USB_GetInterfaceClassTablePtr
1021:.\Generated_Source\PSoC5/USBUART_1_std.c **** ****************************************************************************//**
1022:.\Generated_Source\PSoC5/USBUART_1_std.c **** *
1023:.\Generated_Source\PSoC5/USBUART_1_std.c **** *  This routine returns Interface Class table pointer, which contains
1024:.\Generated_Source\PSoC5/USBUART_1_std.c **** *  the relation between interface number and interface class.
1025:.\Generated_Source\PSoC5/USBUART_1_std.c **** *
ARM GAS  C:\Users\miyag\AppData\Local\Temp\ccphtVl4.s 			page 29


1026:.\Generated_Source\PSoC5/USBUART_1_std.c **** * \return
1027:.\Generated_Source\PSoC5/USBUART_1_std.c **** *  Interface Class table pointer.
1028:.\Generated_Source\PSoC5/USBUART_1_std.c **** *
1029:.\Generated_Source\PSoC5/USBUART_1_std.c **** *******************************************************************************/
1030:.\Generated_Source\PSoC5/USBUART_1_std.c **** const uint8 CYCODE *USBUART_1_GetInterfaceClassTablePtr(void)
1031:.\Generated_Source\PSoC5/USBUART_1_std.c ****                                                         
1032:.\Generated_Source\PSoC5/USBUART_1_std.c **** {
 521              		.loc 1 1032 0
 522              		.cfi_startproc
 523              		@ args = 0, pretend = 0, frame = 0
 524              		@ frame_needed = 0, uses_anonymous_args = 0
 525 0000 08B5     		push	{r3, lr}
 526              		.cfi_def_cfa_offset 8
 527              		.cfi_offset 3, -8
 528              		.cfi_offset 14, -4
1033:.\Generated_Source\PSoC5/USBUART_1_std.c ****     const T_USBUART_1_LUT CYCODE *pTmp;
1034:.\Generated_Source\PSoC5/USBUART_1_std.c ****     const uint8 CYCODE *pInterfaceClass;
1035:.\Generated_Source\PSoC5/USBUART_1_std.c ****     uint8 currentInterfacesNum;
1036:.\Generated_Source\PSoC5/USBUART_1_std.c **** 
1037:.\Generated_Source\PSoC5/USBUART_1_std.c ****     pTmp = USBUART_1_GetConfigTablePtr(USBUART_1_configuration - 1u);
 529              		.loc 1 1037 0
 530 0002 064B     		ldr	r3, .L53
 531 0004 1878     		ldrb	r0, [r3]	@ zero_extendqisi2
 532 0006 0138     		subs	r0, r0, #1
 533 0008 C0B2     		uxtb	r0, r0
 534 000a FFF7FEFF 		bl	USBUART_1_GetConfigTablePtr
 535              	.LVL31:
1038:.\Generated_Source\PSoC5/USBUART_1_std.c ****     if (pTmp != NULL)
 536              		.loc 1 1038 0
 537 000e 20B1     		cbz	r0, .L51
 538              	.LVL32:
1039:.\Generated_Source\PSoC5/USBUART_1_std.c ****     {
1040:.\Generated_Source\PSoC5/USBUART_1_std.c ****         currentInterfacesNum  = ((const uint8 *) pTmp->p_list)[USBUART_1_CONFIG_DESCR_NUM_INTERFACE
 539              		.loc 1 1040 0
 540 0010 4368     		ldr	r3, [r0, #4]
1041:.\Generated_Source\PSoC5/USBUART_1_std.c ****         /* Third entry in the LUT starts the Interface Table pointers */
1042:.\Generated_Source\PSoC5/USBUART_1_std.c ****         /* The INTERFACE_CLASS table is located after all interfaces */
1043:.\Generated_Source\PSoC5/USBUART_1_std.c ****         pTmp = &pTmp[currentInterfacesNum + 2u];
 541              		.loc 1 1043 0
 542 0012 1B79     		ldrb	r3, [r3, #4]	@ zero_extendqisi2
 543              	.LVL33:
1044:.\Generated_Source\PSoC5/USBUART_1_std.c ****         pInterfaceClass = (const uint8 CYCODE *) pTmp->p_list;
 544              		.loc 1 1044 0
 545 0014 00EBC300 		add	r0, r0, r3, lsl #3
 546              	.LVL34:
 547 0018 4069     		ldr	r0, [r0, #20]
 548              	.LVL35:
 549              	.L51:
1045:.\Generated_Source\PSoC5/USBUART_1_std.c ****     }
1046:.\Generated_Source\PSoC5/USBUART_1_std.c ****     else
1047:.\Generated_Source\PSoC5/USBUART_1_std.c ****     {
1048:.\Generated_Source\PSoC5/USBUART_1_std.c ****         pInterfaceClass = (const uint8 CYCODE *) NULL;
1049:.\Generated_Source\PSoC5/USBUART_1_std.c ****     }
1050:.\Generated_Source\PSoC5/USBUART_1_std.c **** 
1051:.\Generated_Source\PSoC5/USBUART_1_std.c ****     return (pInterfaceClass);
1052:.\Generated_Source\PSoC5/USBUART_1_std.c **** }
 550              		.loc 1 1052 0
ARM GAS  C:\Users\miyag\AppData\Local\Temp\ccphtVl4.s 			page 30


 551 001a 08BD     		pop	{r3, pc}
 552              	.L54:
 553              		.align	2
 554              	.L53:
 555 001c 00000000 		.word	USBUART_1_configuration
 556              		.cfi_endproc
 557              	.LFE8:
 558              		.size	USBUART_1_GetInterfaceClassTablePtr, .-USBUART_1_GetInterfaceClassTablePtr
 559              		.section	.text.USBUART_1_Config,"ax",%progbits
 560              		.align	1
 561              		.global	USBUART_1_Config
 562              		.thumb
 563              		.thumb_func
 564              		.type	USBUART_1_Config, %function
 565              	USBUART_1_Config:
 566              	.LFB4:
 571:.\Generated_Source\PSoC5/USBUART_1_std.c ****     uint8 ep;
 567              		.loc 1 571 0
 568              		.cfi_startproc
 569              		@ args = 0, pretend = 0, frame = 0
 570              		@ frame_needed = 0, uses_anonymous_args = 0
 571              	.LVL36:
 572 0000 2DE9F047 		push	{r4, r5, r6, r7, r8, r9, r10, lr}
 573              		.cfi_def_cfa_offset 32
 574              		.cfi_offset 4, -32
 575              		.cfi_offset 5, -28
 576              		.cfi_offset 6, -24
 577              		.cfi_offset 7, -20
 578              		.cfi_offset 8, -16
 579              		.cfi_offset 9, -12
 580              		.cfi_offset 10, -8
 581              		.cfi_offset 14, -4
 571:.\Generated_Source\PSoC5/USBUART_1_std.c ****     uint8 ep;
 582              		.loc 1 571 0
 583 0004 0021     		movs	r1, #0
 584              	.LVL37:
 585              	.L56:
 588:.\Generated_Source\PSoC5/USBUART_1_std.c ****         USBUART_1_EP[ep].hwEpState  = 0u;
 586              		.loc 1 588 0 discriminator 3
 587 0006 0C24     		movs	r4, #12
 588 0008 4C43     		muls	r4, r1, r4
 589 000a 524D     		ldr	r5, .L85
 590 000c 0131     		adds	r1, r1, #1
 591              	.LVL38:
 592 000e 0023     		movs	r3, #0
 593 0010 2A19     		adds	r2, r5, r4
 586:.\Generated_Source\PSoC5/USBUART_1_std.c ****     {
 594              		.loc 1 586 0 discriminator 3
 595 0012 0929     		cmp	r1, #9
 588:.\Generated_Source\PSoC5/USBUART_1_std.c ****         USBUART_1_EP[ep].hwEpState  = 0u;
 596              		.loc 1 588 0 discriminator 3
 597 0014 2B55     		strb	r3, [r5, r4]
 589:.\Generated_Source\PSoC5/USBUART_1_std.c ****         USBUART_1_EP[ep].epToggle   = 0u;
 598              		.loc 1 589 0 discriminator 3
 599 0016 9370     		strb	r3, [r2, #2]
 590:.\Generated_Source\PSoC5/USBUART_1_std.c ****         USBUART_1_EP[ep].bufferSize = 0u;
 600              		.loc 1 590 0 discriminator 3
ARM GAS  C:\Users\miyag\AppData\Local\Temp\ccphtVl4.s 			page 31


 601 0018 D370     		strb	r3, [r2, #3]
 591:.\Generated_Source\PSoC5/USBUART_1_std.c ****         USBUART_1_EP[ep].interface  = 0u;
 602              		.loc 1 591 0 discriminator 3
 603 001a 1381     		strh	r3, [r2, #8]	@ movhi
 592:.\Generated_Source\PSoC5/USBUART_1_std.c ****         USBUART_1_EP[ep].apiEpState = USBUART_1_NO_EVENT_PENDING;
 604              		.loc 1 592 0 discriminator 3
 605 001c 9372     		strb	r3, [r2, #10]
 593:.\Generated_Source\PSoC5/USBUART_1_std.c ****         USBUART_1_EP[ep].epMode     = USBUART_1_MODE_DISABLE;   
 606              		.loc 1 593 0 discriminator 3
 607 001e 5370     		strb	r3, [r2, #1]
 594:.\Generated_Source\PSoC5/USBUART_1_std.c ****     }
 608              		.loc 1 594 0 discriminator 3
 609 0020 5371     		strb	r3, [r2, #5]
 586:.\Generated_Source\PSoC5/USBUART_1_std.c ****     {
 610              		.loc 1 586 0 discriminator 3
 611 0022 F0D1     		bne	.L56
 598:.\Generated_Source\PSoC5/USBUART_1_std.c ****     {
 612              		.loc 1 598 0
 613 0024 28B1     		cbz	r0, .L57
 614              	.LVL39:
 602:.\Generated_Source\PSoC5/USBUART_1_std.c ****             USBUART_1_interfaceSettingLast[i] = 0u;
 615              		.loc 1 602 0 discriminator 1
 616 0026 4C49     		ldr	r1, .L85+4
 603:.\Generated_Source\PSoC5/USBUART_1_std.c ****         }
 617              		.loc 1 603 0 discriminator 1
 618 0028 4C4A     		ldr	r2, .L85+8
 602:.\Generated_Source\PSoC5/USBUART_1_std.c ****             USBUART_1_interfaceSettingLast[i] = 0u;
 619              		.loc 1 602 0 discriminator 1
 620 002a 0B70     		strb	r3, [r1]
 603:.\Generated_Source\PSoC5/USBUART_1_std.c ****         }
 621              		.loc 1 603 0 discriminator 1
 622 002c 1370     		strb	r3, [r2]
 623              	.LVL40:
 602:.\Generated_Source\PSoC5/USBUART_1_std.c ****             USBUART_1_interfaceSettingLast[i] = 0u;
 624              		.loc 1 602 0 discriminator 1
 625 002e 4B70     		strb	r3, [r1, #1]
 603:.\Generated_Source\PSoC5/USBUART_1_std.c ****         }
 626              		.loc 1 603 0 discriminator 1
 627 0030 5370     		strb	r3, [r2, #1]
 628              	.LVL41:
 629              	.L57:
 608:.\Generated_Source\PSoC5/USBUART_1_std.c ****     {
 630              		.loc 1 608 0
 631 0032 4B4B     		ldr	r3, .L85+12
 632 0034 1A78     		ldrb	r2, [r3]	@ zero_extendqisi2
 633 0036 002A     		cmp	r2, #0
 634 0038 00F08980 		beq	.L55
 635              	.LVL42:
 636              	.LBB12:
 637              	.LBB13:
 638              	.LBB14:
 614:.\Generated_Source\PSoC5/USBUART_1_std.c ****         
 639              		.loc 1 614 0
 640 003c 1878     		ldrb	r0, [r3]	@ zero_extendqisi2
 641              	.LVL43:
 629:.\Generated_Source\PSoC5/USBUART_1_std.c **** 
 642              		.loc 1 629 0
ARM GAS  C:\Users\miyag\AppData\Local\Temp\ccphtVl4.s 			page 32


 643 003e 0127     		movs	r7, #1
 614:.\Generated_Source\PSoC5/USBUART_1_std.c ****         
 644              		.loc 1 614 0
 645 0040 0138     		subs	r0, r0, #1
 646 0042 C0B2     		uxtb	r0, r0
 647 0044 FFF7FEFF 		bl	USBUART_1_GetConfigTablePtr
 648              	.LVL44:
 649 0048 8046     		mov	r8, r0
 650              	.LVL45:
 618:.\Generated_Source\PSoC5/USBUART_1_std.c ****         {
 651              		.loc 1 618 0
 652 004a 4368     		ldr	r3, [r0, #4]
 653 004c 067A     		ldrb	r6, [r0, #8]	@ zero_extendqisi2
 654 004e DB79     		ldrb	r3, [r3, #7]	@ zero_extendqisi2
 655 0050 F600     		lsls	r6, r6, #3
 656 0052 13F0400F 		tst	r3, #64
 657 0056 434B     		ldr	r3, .L85+16
 620:.\Generated_Source\PSoC5/USBUART_1_std.c ****         }
 658              		.loc 1 620 0
 659 0058 1A78     		ldrb	r2, [r3]	@ zero_extendqisi2
 660 005a 14BF     		ite	ne
 661 005c 42F00102 		orrne	r2, r2, #1
 624:.\Generated_Source\PSoC5/USBUART_1_std.c ****         }
 662              		.loc 1 624 0
 663 0060 02F0FE02 		andeq	r2, r2, #254
 664 0064 1A70     		strb	r2, [r3]
 665              	.LVL46:
 611:.\Generated_Source\PSoC5/USBUART_1_std.c ****         #endif  /* (USBUART_1_ENABLE_CDC_CLASS) */  
 666              		.loc 1 611 0
 667 0066 0022     		movs	r2, #0
 668              	.LVL47:
 669              	.L69:
 690:.\Generated_Source\PSoC5/USBUART_1_std.c ****                 /* Find max length for each EP and select it (length could be different in differen
 670              		.loc 1 690 0
 671 0068 D8F80C40 		ldr	r4, [r8, #12]
 672 006c 5FFA87FA 		uxtb	r10, r7
 673              	.LVL48:
 674 0070 04EB0609 		add	r9, r4, r6
 675              	.LVL49:
 676              	.L61:
 694:.\Generated_Source\PSoC5/USBUART_1_std.c ****                 {
 677              		.loc 1 694 0
 678 0074 4C45     		cmp	r4, r9
 679 0076 3CD0     		beq	.L83
 696:.\Generated_Source\PSoC5/USBUART_1_std.c ****                     {
 680              		.loc 1 696 0
 681 0078 A078     		ldrb	r0, [r4, #2]	@ zero_extendqisi2
 682 007a 00F07F03 		and	r3, r0, #127
 683 007e 9F42     		cmp	r7, r3
 684 0080 35D1     		bne	.L62
 699:.\Generated_Source\PSoC5/USBUART_1_std.c ****                         {
 685              		.loc 1 699 0
 686 0082 0C23     		movs	r3, #12
 687 0084 03FB0753 		mla	r3, r3, r7, r5
 688 0088 1989     		ldrh	r1, [r3, #8]
 689 008a B4F804E0 		ldrh	lr, [r4, #4]
 690 008e 89B2     		uxth	r1, r1
ARM GAS  C:\Users\miyag\AppData\Local\Temp\ccphtVl4.s 			page 33


 691 0090 7145     		cmp	r1, lr
 701:.\Generated_Source\PSoC5/USBUART_1_std.c ****                         }
 692              		.loc 1 701 0
 693 0092 38BF     		it	cc
 694 0094 A3F808E0 		strhcc	lr, [r3, #8]	@ movhi
 705:.\Generated_Source\PSoC5/USBUART_1_std.c ****                         {                            
 695              		.loc 1 705 0
 696 0098 2F49     		ldr	r1, .L85+4
 697 009a 2378     		ldrb	r3, [r4]	@ zero_extendqisi2
 698 009c CB5C     		ldrb	r3, [r1, r3]	@ zero_extendqisi2
 699 009e 6178     		ldrb	r1, [r4, #1]	@ zero_extendqisi2
 700 00a0 9942     		cmp	r1, r3
 701 00a2 24D1     		bne	.L62
 707:.\Generated_Source\PSoC5/USBUART_1_std.c ****                             USBUART_1_EP[i].attrib = pEP->attributes;
 702              		.loc 1 707 0
 703 00a4 0C21     		movs	r1, #12
 704 00a6 7943     		muls	r1, r7, r1
 705 00a8 6B18     		adds	r3, r5, r1
 706 00aa 1871     		strb	r0, [r3, #4]
 708:.\Generated_Source\PSoC5/USBUART_1_std.c ****                             
 707              		.loc 1 708 0
 708 00ac E078     		ldrb	r0, [r4, #3]	@ zero_extendqisi2
 709 00ae 6854     		strb	r0, [r5, r1]
 712:.\Generated_Source\PSoC5/USBUART_1_std.c ****                             {
 710              		.loc 1 712 0
 711 00b0 94F90200 		ldrsb	r0, [r4, #2]
 710:.\Generated_Source\PSoC5/USBUART_1_std.c ****                             
 712              		.loc 1 710 0
 713 00b4 E178     		ldrb	r1, [r4, #3]	@ zero_extendqisi2
 712:.\Generated_Source\PSoC5/USBUART_1_std.c ****                             {
 714              		.loc 1 712 0
 715 00b6 0028     		cmp	r0, #0
 710:.\Generated_Source\PSoC5/USBUART_1_std.c ****                             
 716              		.loc 1 710 0
 717 00b8 01F00301 		and	r1, r1, #3
 718              	.LVL50:
 712:.\Generated_Source\PSoC5/USBUART_1_std.c ****                             {
 719              		.loc 1 712 0
 720 00bc 06DA     		bge	.L64
 715:.\Generated_Source\PSoC5/USBUART_1_std.c ****                                 USBUART_1_EP[i].apiEpState = USBUART_1_EVENT_PENDING;
 721              		.loc 1 715 0
 722 00be 0129     		cmp	r1, #1
 723 00c0 0CBF     		ite	eq
 724 00c2 0721     		moveq	r1, #7
 725              	.LVL51:
 726 00c4 0D21     		movne	r1, #13
 727 00c6 5971     		strb	r1, [r3, #5]
 728              	.LVL52:
 716:.\Generated_Source\PSoC5/USBUART_1_std.c ****                                 
 729              		.loc 1 716 0
 730 00c8 0121     		movs	r1, #1
 731 00ca 05E0     		b	.L82
 732              	.LVL53:
 733              	.L64:
 728:.\Generated_Source\PSoC5/USBUART_1_std.c ****                                 USBUART_1_EP[i].apiEpState = USBUART_1_NO_EVENT_PENDING;
 734              		.loc 1 728 0
 735 00cc 0129     		cmp	r1, #1
ARM GAS  C:\Users\miyag\AppData\Local\Temp\ccphtVl4.s 			page 34


 736 00ce 0CBF     		ite	eq
 737 00d0 0521     		moveq	r1, #5
 738              	.LVL54:
 739 00d2 0921     		movne	r1, #9
 740 00d4 5971     		strb	r1, [r3, #5]
 741              	.LVL55:
 729:.\Generated_Source\PSoC5/USBUART_1_std.c ****                                 
 742              		.loc 1 729 0
 743 00d6 0021     		movs	r1, #0
 744              	.L82:
 745 00d8 5970     		strb	r1, [r3, #1]
 740:.\Generated_Source\PSoC5/USBUART_1_std.c ****                             {
 746              		.loc 1 740 0
 747 00da A379     		ldrb	r3, [r4, #6]	@ zero_extendqisi2
 748 00dc 03F0F703 		and	r3, r3, #247
 749 00e0 022B     		cmp	r3, #2
 750 00e2 04D1     		bne	.L62
 742:.\Generated_Source\PSoC5/USBUART_1_std.c ****                             }
 751              		.loc 1 742 0
 752 00e4 2046     		mov	r0, r4
 753 00e6 5146     		mov	r1, r10
 754 00e8 FFF7FEFF 		bl	USBUART_1_Cdc_EpInit
 755              	.LVL56:
 756 00ec 0246     		mov	r2, r0
 757              	.LVL57:
 758              	.L62:
 752:.\Generated_Source\PSoC5/USBUART_1_std.c ****                 }
 759              		.loc 1 752 0
 760 00ee 0834     		adds	r4, r4, #8
 761              	.LVL58:
 762 00f0 C0E7     		b	.L61
 763              	.L83:
 764              	.LVL59:
 765 00f2 0137     		adds	r7, r7, #1
 766              	.LVL60:
 687:.\Generated_Source\PSoC5/USBUART_1_std.c ****             {
 767              		.loc 1 687 0
 768 00f4 092F     		cmp	r7, #9
 769 00f6 B7D1     		bne	.L69
 762:.\Generated_Source\PSoC5/USBUART_1_std.c ****         for (i = 0u; i < ep; i++)
 770              		.loc 1 762 0
 771 00f8 D8F80C30 		ldr	r3, [r8, #12]
 772              	.LVL61:
 773 00fc 0A36     		adds	r6, r6, #10
 774 00fe 9A1C     		adds	r2, r3, #2
 775              	.LVL62:
 776 0100 1E44     		add	r6, r6, r3
 777              	.LVL63:
 778              	.L70:
 779 0102 0832     		adds	r2, r2, #8
 780              	.LVL64:
 763:.\Generated_Source\PSoC5/USBUART_1_std.c ****         {
 781              		.loc 1 763 0
 782 0104 B242     		cmp	r2, r6
 783 0106 0AD0     		beq	.L84
 766:.\Generated_Source\PSoC5/USBUART_1_std.c ****             pEP = &pEP[1u];
 784              		.loc 1 766 0
ARM GAS  C:\Users\miyag\AppData\Local\Temp\ccphtVl4.s 			page 35


 785 0108 12F8083C 		ldrb	r3, [r2, #-8]	@ zero_extendqisi2
 786 010c 0C20     		movs	r0, #12
 787 010e 03F07F03 		and	r3, r3, #127
 788 0112 00FB0353 		mla	r3, r0, r3, r5
 789 0116 12F80A1C 		ldrb	r1, [r2, #-10]	@ zero_extendqisi2
 790 011a 9972     		strb	r1, [r3, #10]
 791              	.LVL65:
 792 011c F1E7     		b	.L70
 793              	.LVL66:
 794              	.L84:
 771:.\Generated_Source\PSoC5/USBUART_1_std.c ****         
 795              		.loc 1 771 0
 796 011e FFF7FEFF 		bl	USBUART_1_GetInterfaceClassTablePtr
 797              	.LVL67:
 798 0122 114B     		ldr	r3, .L85+20
 799 0124 0121     		movs	r1, #1
 800 0126 1860     		str	r0, [r3]
 801              	.LVL68:
 775:.\Generated_Source\PSoC5/USBUART_1_std.c ****         for (ep = USBUART_1_EP1; ep < USBUART_1_MAX_EP; ++ep)
 802              		.loc 1 775 0
 803 0128 0023     		movs	r3, #0
 804              	.LVL69:
 805              	.L72:
 778:.\Generated_Source\PSoC5/USBUART_1_std.c ****             buffCount += USBUART_1_EP[ep].bufferSize;
 806              		.loc 1 778 0
 807 012a 0C22     		movs	r2, #12
 808 012c 02FB0152 		mla	r2, r2, r1, r5
 809 0130 D380     		strh	r3, [r2, #6]	@ movhi
 779:.\Generated_Source\PSoC5/USBUART_1_std.c ****             
 810              		.loc 1 779 0
 811 0132 1289     		ldrh	r2, [r2, #8]
 812 0134 0131     		adds	r1, r1, #1
 813              	.LVL70:
 814 0136 1344     		add	r3, r3, r2
 815              	.LVL71:
 816 0138 9BB2     		uxth	r3, r3
 817              	.LVL72:
 783:.\Generated_Source\PSoC5/USBUART_1_std.c ****         #endif /* (USBUART_1_GEN_16BITS_EP_ACCESS) */            
 818              		.loc 1 783 0
 819 013a 03F00102 		and	r2, r3, #1
 820 013e 1344     		add	r3, r3, r2
 821              	.LVL73:
 776:.\Generated_Source\PSoC5/USBUART_1_std.c ****         {
 822              		.loc 1 776 0
 823 0140 0929     		cmp	r1, #9
 783:.\Generated_Source\PSoC5/USBUART_1_std.c ****         #endif /* (USBUART_1_GEN_16BITS_EP_ACCESS) */            
 824              		.loc 1 783 0
 825 0142 9BB2     		uxth	r3, r3
 826              	.LVL74:
 776:.\Generated_Source\PSoC5/USBUART_1_std.c ****         {
 827              		.loc 1 776 0
 828 0144 F1D1     		bne	.L72
 829              	.LBE14:
 830              	.LBE13:
 831              	.LBE12:
 791:.\Generated_Source\PSoC5/USBUART_1_std.c **** 
 832              		.loc 1 791 0
ARM GAS  C:\Users\miyag\AppData\Local\Temp\ccphtVl4.s 			page 36


 833 0146 BDE8F047 		pop	{r4, r5, r6, r7, r8, r9, r10, lr}
 834              		.cfi_remember_state
 835              		.cfi_restore 14
 836              		.cfi_restore 10
 837              		.cfi_restore 9
 838              		.cfi_restore 8
 839              		.cfi_restore 7
 840              		.cfi_restore 6
 841              		.cfi_restore 5
 842              		.cfi_restore 4
 843              		.cfi_def_cfa_offset 0
 844              	.LVL75:
 845              	.LBB17:
 846              	.LBB16:
 847              	.LBB15:
 789:.\Generated_Source\PSoC5/USBUART_1_std.c ****     }
 848              		.loc 1 789 0
 849 014a FFF7FEBF 		b	USBUART_1_ConfigReg
 850              	.LVL76:
 851              	.L55:
 852              		.cfi_restore_state
 853 014e BDE8F087 		pop	{r4, r5, r6, r7, r8, r9, r10, pc}
 854              	.L86:
 855 0152 00BF     		.align	2
 856              	.L85:
 857 0154 00000000 		.word	USBUART_1_EP
 858 0158 00000000 		.word	USBUART_1_interfaceSetting
 859 015c 00000000 		.word	USBUART_1_interfaceSettingLast
 860 0160 00000000 		.word	USBUART_1_configuration
 861 0164 00000000 		.word	USBUART_1_deviceStatus
 862 0168 00000000 		.word	USBUART_1_interfaceClass
 863              	.LBE15:
 864              	.LBE16:
 865              	.LBE17:
 866              		.cfi_endproc
 867              	.LFE4:
 868              		.size	USBUART_1_Config, .-USBUART_1_Config
 869              		.section	.text.USBUART_1_TerminateEP,"ax",%progbits
 870              		.align	1
 871              		.global	USBUART_1_TerminateEP
 872              		.thumb
 873              		.thumb_func
 874              		.type	USBUART_1_TerminateEP, %function
 875              	USBUART_1_TerminateEP:
 876              	.LFB9:
1053:.\Generated_Source\PSoC5/USBUART_1_std.c **** 
1054:.\Generated_Source\PSoC5/USBUART_1_std.c **** 
1055:.\Generated_Source\PSoC5/USBUART_1_std.c **** /*******************************************************************************
1056:.\Generated_Source\PSoC5/USBUART_1_std.c **** * Function Name: USBUART_1_TerminateEP
1057:.\Generated_Source\PSoC5/USBUART_1_std.c **** ****************************************************************************//**
1058:.\Generated_Source\PSoC5/USBUART_1_std.c **** *
1059:.\Generated_Source\PSoC5/USBUART_1_std.c **** *  This function terminates the specified USBFS endpoint.
1060:.\Generated_Source\PSoC5/USBUART_1_std.c **** *  This function should be used before endpoint reconfiguration.
1061:.\Generated_Source\PSoC5/USBUART_1_std.c **** *
1062:.\Generated_Source\PSoC5/USBUART_1_std.c **** *  \param ep Contains the data endpoint number.
1063:.\Generated_Source\PSoC5/USBUART_1_std.c **** *
1064:.\Generated_Source\PSoC5/USBUART_1_std.c **** *  \reentrant
ARM GAS  C:\Users\miyag\AppData\Local\Temp\ccphtVl4.s 			page 37


1065:.\Generated_Source\PSoC5/USBUART_1_std.c **** *  No.
1066:.\Generated_Source\PSoC5/USBUART_1_std.c **** *
1067:.\Generated_Source\PSoC5/USBUART_1_std.c **** * \sideeffect
1068:.\Generated_Source\PSoC5/USBUART_1_std.c **** * 
1069:.\Generated_Source\PSoC5/USBUART_1_std.c **** * The device responds with a NAK for any transactions on the selected endpoint.
1070:.\Generated_Source\PSoC5/USBUART_1_std.c **** *   
1071:.\Generated_Source\PSoC5/USBUART_1_std.c **** *******************************************************************************/
1072:.\Generated_Source\PSoC5/USBUART_1_std.c **** void USBUART_1_TerminateEP(uint8 epNumber) 
1073:.\Generated_Source\PSoC5/USBUART_1_std.c **** {
 877              		.loc 1 1073 0
 878              		.cfi_startproc
 879              		@ args = 0, pretend = 0, frame = 0
 880              		@ frame_needed = 0, uses_anonymous_args = 0
 881              		@ link register save eliminated.
 882              	.LVL77:
1074:.\Generated_Source\PSoC5/USBUART_1_std.c ****     /* Get endpoint number */
1075:.\Generated_Source\PSoC5/USBUART_1_std.c ****     epNumber &= USBUART_1_DIR_UNUSED;
 883              		.loc 1 1075 0
 884 0000 00F07F00 		and	r0, r0, #127
 885              	.LVL78:
1076:.\Generated_Source\PSoC5/USBUART_1_std.c **** 
1077:.\Generated_Source\PSoC5/USBUART_1_std.c ****     if ((epNumber > USBUART_1_EP0) && (epNumber < USBUART_1_MAX_EP))
 886              		.loc 1 1077 0
 887 0004 431E     		subs	r3, r0, #1
 888 0006 072B     		cmp	r3, #7
 889 0008 15D8     		bhi	.L87
1078:.\Generated_Source\PSoC5/USBUART_1_std.c ****     {
1079:.\Generated_Source\PSoC5/USBUART_1_std.c ****         /* Set the endpoint Halt */
1080:.\Generated_Source\PSoC5/USBUART_1_std.c ****         USBUART_1_EP[epNumber].hwEpState |= USBUART_1_ENDPOINT_STATUS_HALT;
 890              		.loc 1 1080 0
 891 000a 0B4B     		ldr	r3, .L90
 892 000c 0C21     		movs	r1, #12
 893 000e 01FB0033 		mla	r3, r1, r0, r3
 894 0012 9A78     		ldrb	r2, [r3, #2]	@ zero_extendqisi2
 895 0014 0001     		lsls	r0, r0, #4
 896              	.LVL79:
 897 0016 42F00102 		orr	r2, r2, #1
 898 001a 9A70     		strb	r2, [r3, #2]
1081:.\Generated_Source\PSoC5/USBUART_1_std.c **** 
1082:.\Generated_Source\PSoC5/USBUART_1_std.c ****         /* Clear the data toggle */
1083:.\Generated_Source\PSoC5/USBUART_1_std.c ****         USBUART_1_EP[epNumber].epToggle = 0u;
 899              		.loc 1 1083 0
 900 001c 0022     		movs	r2, #0
 901 001e DA70     		strb	r2, [r3, #3]
1084:.\Generated_Source\PSoC5/USBUART_1_std.c ****         USBUART_1_EP[epNumber].apiEpState = USBUART_1_NO_EVENT_ALLOWED;
 902              		.loc 1 1084 0
 903 0020 0222     		movs	r2, #2
 904 0022 5A70     		strb	r2, [r3, #1]
1085:.\Generated_Source\PSoC5/USBUART_1_std.c **** 
1086:.\Generated_Source\PSoC5/USBUART_1_std.c ****         if ((USBUART_1_EP[epNumber].addr & USBUART_1_DIR_IN) != 0u)
 905              		.loc 1 1086 0
 906 0024 1B79     		ldrb	r3, [r3, #4]	@ zero_extendqisi2
 907 0026 13F0800F 		tst	r3, #128
1087:.\Generated_Source\PSoC5/USBUART_1_std.c ****         {   
1088:.\Generated_Source\PSoC5/USBUART_1_std.c ****             /* IN Endpoint */
1089:.\Generated_Source\PSoC5/USBUART_1_std.c ****             USBUART_1_SIE_EP_BASE.sieEp[epNumber].epCr0 = USBUART_1_MODE_NAK_IN;
 908              		.loc 1 1089 0
ARM GAS  C:\Users\miyag\AppData\Local\Temp\ccphtVl4.s 			page 38


 909 002a 044B     		ldr	r3, .L90+4
1086:.\Generated_Source\PSoC5/USBUART_1_std.c ****         {   
 910              		.loc 1 1086 0
 911 002c 01D0     		beq	.L89
 912              		.loc 1 1089 0
 913 002e 1954     		strb	r1, [r3, r0]
 914 0030 7047     		bx	lr
 915              	.L89:
1090:.\Generated_Source\PSoC5/USBUART_1_std.c ****         }
1091:.\Generated_Source\PSoC5/USBUART_1_std.c ****         else
1092:.\Generated_Source\PSoC5/USBUART_1_std.c ****         {
1093:.\Generated_Source\PSoC5/USBUART_1_std.c ****             /* OUT Endpoint */
1094:.\Generated_Source\PSoC5/USBUART_1_std.c ****             USBUART_1_SIE_EP_BASE.sieEp[epNumber].epCr0 = USBUART_1_MODE_NAK_OUT;
 916              		.loc 1 1094 0
 917 0032 0822     		movs	r2, #8
 918 0034 1A54     		strb	r2, [r3, r0]
 919              	.L87:
 920 0036 7047     		bx	lr
 921              	.L91:
 922              		.align	2
 923              	.L90:
 924 0038 00000000 		.word	USBUART_1_EP
 925 003c FE5F0040 		.word	1073766398
 926              		.cfi_endproc
 927              	.LFE9:
 928              		.size	USBUART_1_TerminateEP, .-USBUART_1_TerminateEP
 929              		.section	.text.USBUART_1_SetEndpointHalt,"ax",%progbits
 930              		.align	1
 931              		.global	USBUART_1_SetEndpointHalt
 932              		.thumb
 933              		.thumb_func
 934              		.type	USBUART_1_SetEndpointHalt, %function
 935              	USBUART_1_SetEndpointHalt:
 936              	.LFB10:
1095:.\Generated_Source\PSoC5/USBUART_1_std.c ****         }
1096:.\Generated_Source\PSoC5/USBUART_1_std.c ****     }
1097:.\Generated_Source\PSoC5/USBUART_1_std.c **** }
1098:.\Generated_Source\PSoC5/USBUART_1_std.c **** 
1099:.\Generated_Source\PSoC5/USBUART_1_std.c **** 
1100:.\Generated_Source\PSoC5/USBUART_1_std.c **** /*******************************************************************************
1101:.\Generated_Source\PSoC5/USBUART_1_std.c **** * Function Name: USBUART_1_SetEndpointHalt
1102:.\Generated_Source\PSoC5/USBUART_1_std.c **** ****************************************************************************//**
1103:.\Generated_Source\PSoC5/USBUART_1_std.c **** *
1104:.\Generated_Source\PSoC5/USBUART_1_std.c **** *  This routine handles set endpoint halt.
1105:.\Generated_Source\PSoC5/USBUART_1_std.c **** *
1106:.\Generated_Source\PSoC5/USBUART_1_std.c **** * \return
1107:.\Generated_Source\PSoC5/USBUART_1_std.c **** *  requestHandled.
1108:.\Generated_Source\PSoC5/USBUART_1_std.c **** *
1109:.\Generated_Source\PSoC5/USBUART_1_std.c **** * \reentrant
1110:.\Generated_Source\PSoC5/USBUART_1_std.c **** *  No.
1111:.\Generated_Source\PSoC5/USBUART_1_std.c **** *
1112:.\Generated_Source\PSoC5/USBUART_1_std.c **** *******************************************************************************/
1113:.\Generated_Source\PSoC5/USBUART_1_std.c **** uint8 USBUART_1_SetEndpointHalt(void) 
1114:.\Generated_Source\PSoC5/USBUART_1_std.c **** {
 937              		.loc 1 1114 0
 938              		.cfi_startproc
 939              		@ args = 0, pretend = 0, frame = 0
ARM GAS  C:\Users\miyag\AppData\Local\Temp\ccphtVl4.s 			page 39


 940              		@ frame_needed = 0, uses_anonymous_args = 0
 941              		@ link register save eliminated.
 942              	.LVL80:
1115:.\Generated_Source\PSoC5/USBUART_1_std.c ****     uint8 requestHandled = USBUART_1_FALSE;
1116:.\Generated_Source\PSoC5/USBUART_1_std.c ****     uint8 ep;
1117:.\Generated_Source\PSoC5/USBUART_1_std.c ****     
1118:.\Generated_Source\PSoC5/USBUART_1_std.c ****     /* Set endpoint halt */
1119:.\Generated_Source\PSoC5/USBUART_1_std.c ****     ep = USBUART_1_wIndexLoReg & USBUART_1_DIR_UNUSED;
 943              		.loc 1 1119 0
 944 0000 114B     		ldr	r3, .L97
 945 0002 1B79     		ldrb	r3, [r3, #4]	@ zero_extendqisi2
 946 0004 03F07F03 		and	r3, r3, #127
 947              	.LVL81:
1120:.\Generated_Source\PSoC5/USBUART_1_std.c **** 
1121:.\Generated_Source\PSoC5/USBUART_1_std.c ****     if ((ep > USBUART_1_EP0) && (ep < USBUART_1_MAX_EP))
 948              		.loc 1 1121 0
 949 0008 5A1E     		subs	r2, r3, #1
 950 000a 072A     		cmp	r2, #7
 951 000c 19D8     		bhi	.L93
1122:.\Generated_Source\PSoC5/USBUART_1_std.c ****     {
1123:.\Generated_Source\PSoC5/USBUART_1_std.c ****         /* Set the endpoint Halt */
1124:.\Generated_Source\PSoC5/USBUART_1_std.c ****         USBUART_1_EP[ep].hwEpState |= (USBUART_1_ENDPOINT_STATUS_HALT);
 952              		.loc 1 1124 0
 953 000e 0F49     		ldr	r1, .L97+4
 954 0010 0C22     		movs	r2, #12
 955 0012 02FB0312 		mla	r2, r2, r3, r1
 956 0016 9178     		ldrb	r1, [r2, #2]	@ zero_extendqisi2
 957 0018 1B01     		lsls	r3, r3, #4
 958              	.LVL82:
 959 001a 41F00101 		orr	r1, r1, #1
 960 001e 9170     		strb	r1, [r2, #2]
1125:.\Generated_Source\PSoC5/USBUART_1_std.c **** 
1126:.\Generated_Source\PSoC5/USBUART_1_std.c ****         /* Clear the data toggle */
1127:.\Generated_Source\PSoC5/USBUART_1_std.c ****         USBUART_1_EP[ep].epToggle = 0u;
 961              		.loc 1 1127 0
 962 0020 0021     		movs	r1, #0
 963 0022 D170     		strb	r1, [r2, #3]
1128:.\Generated_Source\PSoC5/USBUART_1_std.c ****         USBUART_1_EP[ep].apiEpState |= USBUART_1_NO_EVENT_ALLOWED;
 964              		.loc 1 1128 0
 965 0024 5178     		ldrb	r1, [r2, #1]	@ zero_extendqisi2
 966 0026 41F00201 		orr	r1, r1, #2
 967 002a 5170     		strb	r1, [r2, #1]
1129:.\Generated_Source\PSoC5/USBUART_1_std.c **** 
1130:.\Generated_Source\PSoC5/USBUART_1_std.c ****         if ((USBUART_1_EP[ep].addr & USBUART_1_DIR_IN) != 0u)
 968              		.loc 1 1130 0
 969 002c 1279     		ldrb	r2, [r2, #4]	@ zero_extendqisi2
 970 002e 12F0800F 		tst	r2, #128
1131:.\Generated_Source\PSoC5/USBUART_1_std.c ****         {
1132:.\Generated_Source\PSoC5/USBUART_1_std.c ****             /* IN Endpoint */
1133:.\Generated_Source\PSoC5/USBUART_1_std.c ****             USBUART_1_SIE_EP_BASE.sieEp[ep].epCr0 = (USBUART_1_MODE_STALL_DATA_EP | 
 971              		.loc 1 1133 0
 972 0032 074A     		ldr	r2, .L97+8
 973 0034 1A44     		add	r2, r2, r3
 974 0036 14BF     		ite	ne
 975 0038 8D23     		movne	r3, #141
1134:.\Generated_Source\PSoC5/USBUART_1_std.c ****                                                             USBUART_1_MODE_ACK_IN);
1135:.\Generated_Source\PSoC5/USBUART_1_std.c ****         }
ARM GAS  C:\Users\miyag\AppData\Local\Temp\ccphtVl4.s 			page 40


1136:.\Generated_Source\PSoC5/USBUART_1_std.c ****         else
1137:.\Generated_Source\PSoC5/USBUART_1_std.c ****         {
1138:.\Generated_Source\PSoC5/USBUART_1_std.c ****             /* OUT Endpoint */
1139:.\Generated_Source\PSoC5/USBUART_1_std.c ****             USBUART_1_SIE_EP_BASE.sieEp[ep].epCr0 = (USBUART_1_MODE_STALL_DATA_EP | 
 976              		.loc 1 1139 0
 977 003a 8923     		moveq	r3, #137
 978 003c 9370     		strb	r3, [r2, #2]
1140:.\Generated_Source\PSoC5/USBUART_1_std.c ****                                                             USBUART_1_MODE_ACK_OUT);
1141:.\Generated_Source\PSoC5/USBUART_1_std.c ****         }
1142:.\Generated_Source\PSoC5/USBUART_1_std.c ****         requestHandled = USBUART_1_InitNoDataControlTransfer();
 979              		.loc 1 1142 0
 980 003e FFF7FEBF 		b	USBUART_1_InitNoDataControlTransfer
 981              	.LVL83:
 982              	.L93:
1143:.\Generated_Source\PSoC5/USBUART_1_std.c ****     }
1144:.\Generated_Source\PSoC5/USBUART_1_std.c **** 
1145:.\Generated_Source\PSoC5/USBUART_1_std.c ****     return (requestHandled);
1146:.\Generated_Source\PSoC5/USBUART_1_std.c **** }
 983              		.loc 1 1146 0
 984 0042 0020     		movs	r0, #0
 985 0044 7047     		bx	lr
 986              	.L98:
 987 0046 00BF     		.align	2
 988              	.L97:
 989 0048 00600040 		.word	1073766400
 990 004c 00000000 		.word	USBUART_1_EP
 991 0050 FC5F0040 		.word	1073766396
 992              		.cfi_endproc
 993              	.LFE10:
 994              		.size	USBUART_1_SetEndpointHalt, .-USBUART_1_SetEndpointHalt
 995              		.section	.text.USBUART_1_ClearEndpointHalt,"ax",%progbits
 996              		.align	1
 997              		.global	USBUART_1_ClearEndpointHalt
 998              		.thumb
 999              		.thumb_func
 1000              		.type	USBUART_1_ClearEndpointHalt, %function
 1001              	USBUART_1_ClearEndpointHalt:
 1002              	.LFB11:
1147:.\Generated_Source\PSoC5/USBUART_1_std.c **** 
1148:.\Generated_Source\PSoC5/USBUART_1_std.c **** 
1149:.\Generated_Source\PSoC5/USBUART_1_std.c **** /*******************************************************************************
1150:.\Generated_Source\PSoC5/USBUART_1_std.c **** * Function Name: USBUART_1_ClearEndpointHalt
1151:.\Generated_Source\PSoC5/USBUART_1_std.c **** ****************************************************************************//**
1152:.\Generated_Source\PSoC5/USBUART_1_std.c **** *
1153:.\Generated_Source\PSoC5/USBUART_1_std.c **** *  This routine handles clear endpoint halt.
1154:.\Generated_Source\PSoC5/USBUART_1_std.c **** *
1155:.\Generated_Source\PSoC5/USBUART_1_std.c **** * \return
1156:.\Generated_Source\PSoC5/USBUART_1_std.c **** *  requestHandled.
1157:.\Generated_Source\PSoC5/USBUART_1_std.c **** *
1158:.\Generated_Source\PSoC5/USBUART_1_std.c **** * \reentrant
1159:.\Generated_Source\PSoC5/USBUART_1_std.c **** *  No.
1160:.\Generated_Source\PSoC5/USBUART_1_std.c **** *
1161:.\Generated_Source\PSoC5/USBUART_1_std.c **** *******************************************************************************/
1162:.\Generated_Source\PSoC5/USBUART_1_std.c **** uint8 USBUART_1_ClearEndpointHalt(void) 
1163:.\Generated_Source\PSoC5/USBUART_1_std.c **** {
 1003              		.loc 1 1163 0
 1004              		.cfi_startproc
ARM GAS  C:\Users\miyag\AppData\Local\Temp\ccphtVl4.s 			page 41


 1005              		@ args = 0, pretend = 0, frame = 0
 1006              		@ frame_needed = 0, uses_anonymous_args = 0
 1007              	.LVL84:
 1008 0000 30B5     		push	{r4, r5, lr}
 1009              		.cfi_def_cfa_offset 12
 1010              		.cfi_offset 4, -12
 1011              		.cfi_offset 5, -8
 1012              		.cfi_offset 14, -4
1164:.\Generated_Source\PSoC5/USBUART_1_std.c ****     uint8 requestHandled = USBUART_1_FALSE;
1165:.\Generated_Source\PSoC5/USBUART_1_std.c ****     uint8 ep;
1166:.\Generated_Source\PSoC5/USBUART_1_std.c **** 
1167:.\Generated_Source\PSoC5/USBUART_1_std.c ****     /* Clear endpoint halt */
1168:.\Generated_Source\PSoC5/USBUART_1_std.c ****     ep = USBUART_1_wIndexLoReg & USBUART_1_DIR_UNUSED;
 1013              		.loc 1 1168 0
 1014 0002 184B     		ldr	r3, .L106
 1015 0004 1A79     		ldrb	r2, [r3, #4]	@ zero_extendqisi2
 1016 0006 02F07F02 		and	r2, r2, #127
 1017              	.LVL85:
1169:.\Generated_Source\PSoC5/USBUART_1_std.c **** 
1170:.\Generated_Source\PSoC5/USBUART_1_std.c ****     if ((ep > USBUART_1_EP0) && (ep < USBUART_1_MAX_EP))
 1018              		.loc 1 1170 0
 1019 000a 531E     		subs	r3, r2, #1
 1020 000c 072B     		cmp	r3, #7
 1021 000e 26D8     		bhi	.L100
1171:.\Generated_Source\PSoC5/USBUART_1_std.c ****     {
1172:.\Generated_Source\PSoC5/USBUART_1_std.c ****         /* Clear the endpoint Halt */
1173:.\Generated_Source\PSoC5/USBUART_1_std.c ****         USBUART_1_EP[ep].hwEpState &= (uint8) ~USBUART_1_ENDPOINT_STATUS_HALT;
 1022              		.loc 1 1173 0
 1023 0010 154B     		ldr	r3, .L106+4
 1024 0012 0C20     		movs	r0, #12
 1025 0014 00FB0233 		mla	r3, r0, r2, r3
 1026 0018 9978     		ldrb	r1, [r3, #2]	@ zero_extendqisi2
1174:.\Generated_Source\PSoC5/USBUART_1_std.c **** 
1175:.\Generated_Source\PSoC5/USBUART_1_std.c ****         /* Clear the data toggle */
1176:.\Generated_Source\PSoC5/USBUART_1_std.c ****         USBUART_1_EP[ep].epToggle = 0u;
1177:.\Generated_Source\PSoC5/USBUART_1_std.c ****         
1178:.\Generated_Source\PSoC5/USBUART_1_std.c ****         /* Clear toggle bit for already armed packet */
1179:.\Generated_Source\PSoC5/USBUART_1_std.c ****         USBUART_1_SIE_EP_BASE.sieEp[ep].epCnt0 = (uint8) ~(uint8)USBUART_1_EPX_CNT_DATA_TOGGLE;
 1027              		.loc 1 1179 0
 1028 001a 144C     		ldr	r4, .L106+8
1173:.\Generated_Source\PSoC5/USBUART_1_std.c **** 
 1029              		.loc 1 1173 0
 1030 001c 01F0FE01 		and	r1, r1, #254
 1031 0020 9970     		strb	r1, [r3, #2]
1176:.\Generated_Source\PSoC5/USBUART_1_std.c ****         
 1032              		.loc 1 1176 0
 1033 0022 0021     		movs	r1, #0
 1034 0024 D970     		strb	r1, [r3, #3]
 1035 0026 1201     		lsls	r2, r2, #4
 1036              	.LVL86:
 1037 0028 1049     		ldr	r1, .L106+8
 1038              		.loc 1 1179 0
 1039 002a 7F25     		movs	r5, #127
 1040 002c 1555     		strb	r5, [r2, r4]
 1041 002e 1144     		add	r1, r1, r2
1180:.\Generated_Source\PSoC5/USBUART_1_std.c ****         
1181:.\Generated_Source\PSoC5/USBUART_1_std.c ****         /* Return API State as it was defined before */
ARM GAS  C:\Users\miyag\AppData\Local\Temp\ccphtVl4.s 			page 42


1182:.\Generated_Source\PSoC5/USBUART_1_std.c ****         USBUART_1_EP[ep].apiEpState &= (uint8) ~USBUART_1_NO_EVENT_ALLOWED;
 1042              		.loc 1 1182 0
 1043 0030 5A78     		ldrb	r2, [r3, #1]	@ zero_extendqisi2
 1044 0032 02F0FD02 		and	r2, r2, #253
 1045 0036 5A70     		strb	r2, [r3, #1]
1183:.\Generated_Source\PSoC5/USBUART_1_std.c **** 
1184:.\Generated_Source\PSoC5/USBUART_1_std.c ****         if ((USBUART_1_EP[ep].addr & USBUART_1_DIR_IN) != 0u)
 1046              		.loc 1 1184 0
 1047 0038 1A79     		ldrb	r2, [r3, #4]	@ zero_extendqisi2
1185:.\Generated_Source\PSoC5/USBUART_1_std.c ****         {
1186:.\Generated_Source\PSoC5/USBUART_1_std.c ****             /* IN Endpoint */
1187:.\Generated_Source\PSoC5/USBUART_1_std.c ****             if(USBUART_1_EP[ep].apiEpState == USBUART_1_IN_BUFFER_EMPTY)
 1048              		.loc 1 1187 0
 1049 003a 5B78     		ldrb	r3, [r3, #1]	@ zero_extendqisi2
1184:.\Generated_Source\PSoC5/USBUART_1_std.c ****         {
 1050              		.loc 1 1184 0
 1051 003c 1206     		lsls	r2, r2, #24
 1052 003e 05D5     		bpl	.L101
 1053              		.loc 1 1187 0
 1054 0040 012B     		cmp	r3, #1
 1055 0042 01D1     		bne	.L102
1188:.\Generated_Source\PSoC5/USBUART_1_std.c ****             {       
1189:.\Generated_Source\PSoC5/USBUART_1_std.c ****                 /* Wait for next packet from application */
1190:.\Generated_Source\PSoC5/USBUART_1_std.c ****                 USBUART_1_SIE_EP_BASE.sieEp[ep].epCr0 = USBUART_1_MODE_NAK_IN;
 1056              		.loc 1 1190 0
 1057 0044 8870     		strb	r0, [r1, #2]
 1058 0046 06E0     		b	.L103
 1059              	.L102:
1191:.\Generated_Source\PSoC5/USBUART_1_std.c ****             }
1192:.\Generated_Source\PSoC5/USBUART_1_std.c ****             else    /* Continue armed transfer */
1193:.\Generated_Source\PSoC5/USBUART_1_std.c ****             {
1194:.\Generated_Source\PSoC5/USBUART_1_std.c ****                 USBUART_1_SIE_EP_BASE.sieEp[ep].epCr0 = USBUART_1_MODE_ACK_IN;
 1060              		.loc 1 1194 0
 1061 0048 0D23     		movs	r3, #13
 1062 004a 03E0     		b	.L105
 1063              	.L101:
1195:.\Generated_Source\PSoC5/USBUART_1_std.c ****             }
1196:.\Generated_Source\PSoC5/USBUART_1_std.c ****         }
1197:.\Generated_Source\PSoC5/USBUART_1_std.c ****         else
1198:.\Generated_Source\PSoC5/USBUART_1_std.c ****         {
1199:.\Generated_Source\PSoC5/USBUART_1_std.c ****             /* OUT Endpoint */
1200:.\Generated_Source\PSoC5/USBUART_1_std.c ****             if (USBUART_1_EP[ep].apiEpState == USBUART_1_OUT_BUFFER_FULL)
 1064              		.loc 1 1200 0
 1065 004c 012B     		cmp	r3, #1
1201:.\Generated_Source\PSoC5/USBUART_1_std.c ****             {       
1202:.\Generated_Source\PSoC5/USBUART_1_std.c ****                 /* Allow application to read full buffer */
1203:.\Generated_Source\PSoC5/USBUART_1_std.c ****                 USBUART_1_SIE_EP_BASE.sieEp[ep].epCr0 = USBUART_1_MODE_NAK_OUT;
 1066              		.loc 1 1203 0
 1067 004e 0CBF     		ite	eq
 1068 0050 0823     		moveq	r3, #8
1204:.\Generated_Source\PSoC5/USBUART_1_std.c ****             }
1205:.\Generated_Source\PSoC5/USBUART_1_std.c ****             else    /* Mark endpoint as empty, so it will be reloaded */
1206:.\Generated_Source\PSoC5/USBUART_1_std.c ****             {
1207:.\Generated_Source\PSoC5/USBUART_1_std.c ****                 USBUART_1_SIE_EP_BASE.sieEp[ep].epCr0 = USBUART_1_MODE_ACK_OUT;
 1069              		.loc 1 1207 0
 1070 0052 0923     		movne	r3, #9
 1071              	.L105:
ARM GAS  C:\Users\miyag\AppData\Local\Temp\ccphtVl4.s 			page 43


 1072 0054 8B70     		strb	r3, [r1, #2]
 1073              	.L103:
1208:.\Generated_Source\PSoC5/USBUART_1_std.c ****             }
1209:.\Generated_Source\PSoC5/USBUART_1_std.c ****         }
1210:.\Generated_Source\PSoC5/USBUART_1_std.c ****         
1211:.\Generated_Source\PSoC5/USBUART_1_std.c ****         requestHandled = USBUART_1_InitNoDataControlTransfer();
1212:.\Generated_Source\PSoC5/USBUART_1_std.c ****     }
1213:.\Generated_Source\PSoC5/USBUART_1_std.c **** 
1214:.\Generated_Source\PSoC5/USBUART_1_std.c ****     return(requestHandled);
1215:.\Generated_Source\PSoC5/USBUART_1_std.c **** }
 1074              		.loc 1 1215 0
 1075 0056 BDE83040 		pop	{r4, r5, lr}
 1076              		.cfi_remember_state
 1077              		.cfi_restore 14
 1078              		.cfi_restore 5
 1079              		.cfi_restore 4
 1080              		.cfi_def_cfa_offset 0
1211:.\Generated_Source\PSoC5/USBUART_1_std.c ****     }
 1081              		.loc 1 1211 0
 1082 005a FFF7FEBF 		b	USBUART_1_InitNoDataControlTransfer
 1083              	.LVL87:
 1084              	.L100:
 1085              		.cfi_restore_state
 1086              		.loc 1 1215 0
 1087 005e 0020     		movs	r0, #0
 1088 0060 30BD     		pop	{r4, r5, pc}
 1089              	.L107:
 1090 0062 00BF     		.align	2
 1091              	.L106:
 1092 0064 00600040 		.word	1073766400
 1093 0068 00000000 		.word	USBUART_1_EP
 1094 006c FC5F0040 		.word	1073766396
 1095              		.cfi_endproc
 1096              	.LFE11:
 1097              		.size	USBUART_1_ClearEndpointHalt, .-USBUART_1_ClearEndpointHalt
 1098              		.section	.text.USBUART_1_ValidateAlternateSetting,"ax",%progbits
 1099              		.align	1
 1100              		.global	USBUART_1_ValidateAlternateSetting
 1101              		.thumb
 1102              		.thumb_func
 1103              		.type	USBUART_1_ValidateAlternateSetting, %function
 1104              	USBUART_1_ValidateAlternateSetting:
 1105              	.LFB12:
1216:.\Generated_Source\PSoC5/USBUART_1_std.c **** 
1217:.\Generated_Source\PSoC5/USBUART_1_std.c **** 
1218:.\Generated_Source\PSoC5/USBUART_1_std.c **** /*******************************************************************************
1219:.\Generated_Source\PSoC5/USBUART_1_std.c **** * Function Name: USBUART_1_ValidateAlternateSetting
1220:.\Generated_Source\PSoC5/USBUART_1_std.c **** ****************************************************************************//**
1221:.\Generated_Source\PSoC5/USBUART_1_std.c **** *
1222:.\Generated_Source\PSoC5/USBUART_1_std.c **** *  Validates (and records) a SET INTERFACE request.
1223:.\Generated_Source\PSoC5/USBUART_1_std.c **** *
1224:.\Generated_Source\PSoC5/USBUART_1_std.c **** * \return
1225:.\Generated_Source\PSoC5/USBUART_1_std.c **** *  requestHandled.
1226:.\Generated_Source\PSoC5/USBUART_1_std.c **** *
1227:.\Generated_Source\PSoC5/USBUART_1_std.c **** * \reentrant
1228:.\Generated_Source\PSoC5/USBUART_1_std.c **** *  No.
1229:.\Generated_Source\PSoC5/USBUART_1_std.c **** *
ARM GAS  C:\Users\miyag\AppData\Local\Temp\ccphtVl4.s 			page 44


1230:.\Generated_Source\PSoC5/USBUART_1_std.c **** *******************************************************************************/
1231:.\Generated_Source\PSoC5/USBUART_1_std.c **** uint8 USBUART_1_ValidateAlternateSetting(void) 
1232:.\Generated_Source\PSoC5/USBUART_1_std.c **** {
 1106              		.loc 1 1232 0
 1107              		.cfi_startproc
 1108              		@ args = 0, pretend = 0, frame = 0
 1109              		@ frame_needed = 0, uses_anonymous_args = 0
 1110              	.LVL88:
 1111 0000 38B5     		push	{r3, r4, r5, lr}
 1112              		.cfi_def_cfa_offset 16
 1113              		.cfi_offset 3, -16
 1114              		.cfi_offset 4, -12
 1115              		.cfi_offset 5, -8
 1116              		.cfi_offset 14, -4
1233:.\Generated_Source\PSoC5/USBUART_1_std.c ****     uint8 requestHandled = USBUART_1_FALSE;
1234:.\Generated_Source\PSoC5/USBUART_1_std.c ****     
1235:.\Generated_Source\PSoC5/USBUART_1_std.c ****     uint8 interfaceNum;
1236:.\Generated_Source\PSoC5/USBUART_1_std.c ****     uint8 curInterfacesNum;
1237:.\Generated_Source\PSoC5/USBUART_1_std.c ****     const T_USBUART_1_LUT CYCODE *pTmp;
1238:.\Generated_Source\PSoC5/USBUART_1_std.c ****     
1239:.\Generated_Source\PSoC5/USBUART_1_std.c ****     /* Get interface number from the request. */
1240:.\Generated_Source\PSoC5/USBUART_1_std.c ****     interfaceNum = (uint8) USBUART_1_wIndexLoReg;
1241:.\Generated_Source\PSoC5/USBUART_1_std.c ****     
1242:.\Generated_Source\PSoC5/USBUART_1_std.c ****     /* Get number of interfaces for current configuration. */
1243:.\Generated_Source\PSoC5/USBUART_1_std.c ****     pTmp = USBUART_1_GetConfigTablePtr(USBUART_1_configuration - 1u);
 1117              		.loc 1 1243 0
 1118 0002 0D4B     		ldr	r3, .L112
1240:.\Generated_Source\PSoC5/USBUART_1_std.c ****     
 1119              		.loc 1 1240 0
 1120 0004 0D4D     		ldr	r5, .L112+4
 1121 0006 2C79     		ldrb	r4, [r5, #4]	@ zero_extendqisi2
 1122              		.loc 1 1243 0
 1123 0008 1878     		ldrb	r0, [r3]	@ zero_extendqisi2
1240:.\Generated_Source\PSoC5/USBUART_1_std.c ****     
 1124              		.loc 1 1240 0
 1125 000a E4B2     		uxtb	r4, r4
 1126              	.LVL89:
 1127              		.loc 1 1243 0
 1128 000c 0138     		subs	r0, r0, #1
 1129 000e C0B2     		uxtb	r0, r0
 1130 0010 FFF7FEFF 		bl	USBUART_1_GetConfigTablePtr
 1131              	.LVL90:
1244:.\Generated_Source\PSoC5/USBUART_1_std.c ****     curInterfacesNum  = ((const uint8 *) pTmp->p_list)[USBUART_1_CONFIG_DESCR_NUM_INTERFACES];
 1132              		.loc 1 1244 0
 1133 0014 4368     		ldr	r3, [r0, #4]
1245:.\Generated_Source\PSoC5/USBUART_1_std.c **** 
1246:.\Generated_Source\PSoC5/USBUART_1_std.c ****     /* Validate that interface number is within range. */
1247:.\Generated_Source\PSoC5/USBUART_1_std.c ****     if ((interfaceNum <= curInterfacesNum) || (interfaceNum <= USBUART_1_MAX_INTERFACES_NUMBER))
 1134              		.loc 1 1247 0
 1135 0016 1B79     		ldrb	r3, [r3, #4]	@ zero_extendqisi2
 1136 0018 A342     		cmp	r3, r4
 1137 001a 01D2     		bcs	.L109
 1138              		.loc 1 1247 0 is_stmt 0 discriminator 1
 1139 001c 022C     		cmp	r4, #2
 1140 001e 09D8     		bhi	.L111
 1141              	.L109:
1248:.\Generated_Source\PSoC5/USBUART_1_std.c ****     {
ARM GAS  C:\Users\miyag\AppData\Local\Temp\ccphtVl4.s 			page 45


1249:.\Generated_Source\PSoC5/USBUART_1_std.c ****         /* Save current and new alternate settings (come with request) to make 
1250:.\Generated_Source\PSoC5/USBUART_1_std.c ****         * desicion about following endpoint re-configuration.
1251:.\Generated_Source\PSoC5/USBUART_1_std.c ****         */
1252:.\Generated_Source\PSoC5/USBUART_1_std.c ****         USBUART_1_interfaceSettingLast[interfaceNum] = USBUART_1_interfaceSetting[interfaceNum];
 1142              		.loc 1 1252 0 is_stmt 1
 1143 0020 074A     		ldr	r2, .L112+8
 1144 0022 0849     		ldr	r1, .L112+12
 1145 0024 135D     		ldrb	r3, [r2, r4]	@ zero_extendqisi2
1253:.\Generated_Source\PSoC5/USBUART_1_std.c ****         USBUART_1_interfaceSetting[interfaceNum]     = (uint8) USBUART_1_wValueLoReg;
1254:.\Generated_Source\PSoC5/USBUART_1_std.c ****         
1255:.\Generated_Source\PSoC5/USBUART_1_std.c ****         requestHandled = USBUART_1_TRUE;
 1146              		.loc 1 1255 0
 1147 0026 0120     		movs	r0, #1
 1148              	.LVL91:
1252:.\Generated_Source\PSoC5/USBUART_1_std.c ****         USBUART_1_interfaceSetting[interfaceNum]     = (uint8) USBUART_1_wValueLoReg;
 1149              		.loc 1 1252 0
 1150 0028 DBB2     		uxtb	r3, r3
 1151 002a 0B55     		strb	r3, [r1, r4]
1253:.\Generated_Source\PSoC5/USBUART_1_std.c ****         USBUART_1_interfaceSetting[interfaceNum]     = (uint8) USBUART_1_wValueLoReg;
 1152              		.loc 1 1253 0
 1153 002c AB78     		ldrb	r3, [r5, #2]	@ zero_extendqisi2
 1154 002e DBB2     		uxtb	r3, r3
 1155 0030 1355     		strb	r3, [r2, r4]
 1156              	.LVL92:
 1157 0032 38BD     		pop	{r3, r4, r5, pc}
 1158              	.LVL93:
 1159              	.L111:
1233:.\Generated_Source\PSoC5/USBUART_1_std.c ****     
 1160              		.loc 1 1233 0
 1161 0034 0020     		movs	r0, #0
 1162              	.LVL94:
1256:.\Generated_Source\PSoC5/USBUART_1_std.c ****     }
1257:.\Generated_Source\PSoC5/USBUART_1_std.c **** 
1258:.\Generated_Source\PSoC5/USBUART_1_std.c ****     return (requestHandled);
1259:.\Generated_Source\PSoC5/USBUART_1_std.c **** }
 1163              		.loc 1 1259 0
 1164 0036 38BD     		pop	{r3, r4, r5, pc}
 1165              	.LVL95:
 1166              	.L113:
 1167              		.align	2
 1168              	.L112:
 1169 0038 00000000 		.word	USBUART_1_configuration
 1170 003c 00600040 		.word	1073766400
 1171 0040 00000000 		.word	USBUART_1_interfaceSetting
 1172 0044 00000000 		.word	USBUART_1_interfaceSettingLast
 1173              		.cfi_endproc
 1174              	.LFE12:
 1175              		.size	USBUART_1_ValidateAlternateSetting, .-USBUART_1_ValidateAlternateSetting
 1176              		.section	.text.USBUART_1_HandleStandardRqst,"ax",%progbits
 1177              		.align	1
 1178              		.global	USBUART_1_HandleStandardRqst
 1179              		.thumb
 1180              		.thumb_func
 1181              		.type	USBUART_1_HandleStandardRqst, %function
 1182              	USBUART_1_HandleStandardRqst:
 1183              	.LFB0:
  85:.\Generated_Source\PSoC5/USBUART_1_std.c ****     uint8 requestHandled = USBUART_1_FALSE;
ARM GAS  C:\Users\miyag\AppData\Local\Temp\ccphtVl4.s 			page 46


 1184              		.loc 1 85 0
 1185              		.cfi_startproc
 1186              		@ args = 0, pretend = 0, frame = 0
 1187              		@ frame_needed = 0, uses_anonymous_args = 0
 1188              	.LVL96:
 1189 0000 38B5     		push	{r3, r4, r5, lr}
 1190              		.cfi_def_cfa_offset 16
 1191              		.cfi_offset 3, -16
 1192              		.cfi_offset 4, -12
 1193              		.cfi_offset 5, -8
 1194              		.cfi_offset 14, -4
  89:.\Generated_Source\PSoC5/USBUART_1_std.c **** 
 1195              		.loc 1 89 0
 1196 0002 8A4A     		ldr	r2, .L178
 102:.\Generated_Source\PSoC5/USBUART_1_std.c **** 
 1197              		.loc 1 102 0
 1198 0004 8A4C     		ldr	r4, .L178+4
  89:.\Generated_Source\PSoC5/USBUART_1_std.c **** 
 1199              		.loc 1 89 0
 1200 0006 1378     		ldrb	r3, [r2]	@ zero_extendqisi2
 102:.\Generated_Source\PSoC5/USBUART_1_std.c **** 
 1201              		.loc 1 102 0
 1202 0008 0021     		movs	r1, #0
  89:.\Generated_Source\PSoC5/USBUART_1_std.c **** 
 1203              		.loc 1 89 0
 1204 000a DBB2     		uxtb	r3, r3
 1205              	.LVL97:
 102:.\Generated_Source\PSoC5/USBUART_1_std.c **** 
 1206              		.loc 1 102 0
 1207 000c 2180     		strh	r1, [r4]	@ movhi
 104:.\Generated_Source\PSoC5/USBUART_1_std.c ****     {
 1208              		.loc 1 104 0
 1209 000e 1806     		lsls	r0, r3, #24
 107:.\Generated_Source\PSoC5/USBUART_1_std.c ****         {
 1210              		.loc 1 107 0
 1211 0010 5178     		ldrb	r1, [r2, #1]	@ zero_extendqisi2
 104:.\Generated_Source\PSoC5/USBUART_1_std.c ****     {
 1212              		.loc 1 104 0
 1213 0012 40F18D80 		bpl	.L115
 107:.\Generated_Source\PSoC5/USBUART_1_std.c ****         {
 1214              		.loc 1 107 0
 1215 0016 0A29     		cmp	r1, #10
 1216 0018 00F20681 		bhi	.L116
 1217 001c DFE811F0 		tbh	[pc, r1, lsl #1]
 1218              	.L118:
 1219 0020 5D00     		.2byte	(.L117-.L118)/2
 1220 0022 0401     		.2byte	(.L116-.L118)/2
 1221 0024 0401     		.2byte	(.L116-.L118)/2
 1222 0026 0401     		.2byte	(.L116-.L118)/2
 1223 0028 0401     		.2byte	(.L116-.L118)/2
 1224 002a 0401     		.2byte	(.L116-.L118)/2
 1225 002c 0B00     		.2byte	(.L119-.L118)/2
 1226 002e 0401     		.2byte	(.L116-.L118)/2
 1227 0030 7E00     		.2byte	(.L120-.L118)/2
 1228 0032 0401     		.2byte	(.L116-.L118)/2
 1229 0034 8200     		.2byte	(.L121-.L118)/2
 1230              		.p2align 1
ARM GAS  C:\Users\miyag\AppData\Local\Temp\ccphtVl4.s 			page 47


 1231              	.L119:
 110:.\Generated_Source\PSoC5/USBUART_1_std.c ****                 {
 1232              		.loc 1 110 0
 1233 0036 D278     		ldrb	r2, [r2, #3]	@ zero_extendqisi2
 1234 0038 7C4B     		ldr	r3, .L178
 1235              	.LVL98:
 1236 003a 012A     		cmp	r2, #1
 1237 003c 09D1     		bne	.L122
 1238              	.LBB18:
 1239              	.LBB19:
1015:.\Generated_Source\PSoC5/USBUART_1_std.c **** }
 1240              		.loc 1 1015 0
 1241 003e 7D4B     		ldr	r3, .L178+8
 1242 0040 1A78     		ldrb	r2, [r3]	@ zero_extendqisi2
 1243              	.LBE19:
 1244              	.LBE18:
 113:.\Generated_Source\PSoC5/USBUART_1_std.c ****                     USBUART_1_currentTD.count = USBUART_1_DEVICE_DESCR_LENGTH;
 1245              		.loc 1 113 0
 1246 0042 7D4B     		ldr	r3, .L178+12
 1247 0044 03EBC203 		add	r3, r3, r2, lsl #3
 1248 0048 5B68     		ldr	r3, [r3, #4]
 1249 004a 5B68     		ldr	r3, [r3, #4]
 1250 004c 6360     		str	r3, [r4, #4]
 114:.\Generated_Source\PSoC5/USBUART_1_std.c ****                     
 1251              		.loc 1 114 0
 1252 004e 1223     		movs	r3, #18
 1253 0050 10E0     		b	.L169
 1254              	.L122:
 118:.\Generated_Source\PSoC5/USBUART_1_std.c ****                 {
 1255              		.loc 1 118 0
 1256 0052 DA78     		ldrb	r2, [r3, #3]	@ zero_extendqisi2
 1257 0054 022A     		cmp	r2, #2
 1258 0056 12D1     		bne	.L123
 120:.\Generated_Source\PSoC5/USBUART_1_std.c ****                     
 1259              		.loc 1 120 0
 1260 0058 9878     		ldrb	r0, [r3, #2]	@ zero_extendqisi2
 1261 005a FFF7FEFF 		bl	USBUART_1_GetConfigTablePtr
 1262              	.LVL99:
 123:.\Generated_Source\PSoC5/USBUART_1_std.c ****                     {
 1263              		.loc 1 123 0
 1264 005e 0028     		cmp	r0, #0
 1265 0060 00F0E280 		beq	.L116
 125:.\Generated_Source\PSoC5/USBUART_1_std.c ****                         USBUART_1_currentTD.count = (uint16)((uint16)(USBUART_1_currentTD.pData)[US
 1266              		.loc 1 125 0
 1267 0064 4368     		ldr	r3, [r0, #4]
 1268 0066 6360     		str	r3, [r4, #4]
 126:.\Generated_Source\PSoC5/USBUART_1_std.c ****                                                                             (USBUART_1_currentTD.pD
 1269              		.loc 1 126 0
 1270 0068 6368     		ldr	r3, [r4, #4]
 1271 006a DA78     		ldrb	r2, [r3, #3]	@ zero_extendqisi2
 127:.\Generated_Source\PSoC5/USBUART_1_std.c ****                         requestHandled  = USBUART_1_InitControlRead();
 1272              		.loc 1 127 0
 1273 006c 6368     		ldr	r3, [r4, #4]
 1274 006e 9B78     		ldrb	r3, [r3, #2]	@ zero_extendqisi2
 126:.\Generated_Source\PSoC5/USBUART_1_std.c ****                                                                             (USBUART_1_currentTD.pD
 1275              		.loc 1 126 0
 1276 0070 43EA0223 		orr	r3, r3, r2, lsl #8
ARM GAS  C:\Users\miyag\AppData\Local\Temp\ccphtVl4.s 			page 48


 1277              	.LVL100:
 1278              	.L169:
 1279 0074 2380     		strh	r3, [r4]	@ movhi
 1280              	.LVL101:
 1281              	.L170:
 380:.\Generated_Source\PSoC5/USBUART_1_std.c **** 
 1282              		.loc 1 380 0
 1283 0076 BDE83840 		pop	{r3, r4, r5, lr}
 1284              		.cfi_remember_state
 1285              		.cfi_restore 14
 1286              		.cfi_restore 5
 1287              		.cfi_restore 4
 1288              		.cfi_restore 3
 1289              		.cfi_def_cfa_offset 0
 128:.\Generated_Source\PSoC5/USBUART_1_std.c ****                     }
 1290              		.loc 1 128 0
 1291 007a FFF7FEBF 		b	USBUART_1_InitControlRead
 1292              	.LVL102:
 1293              	.L123:
 1294              		.cfi_restore_state
 149:.\Generated_Source\PSoC5/USBUART_1_std.c ****                 {
 1295              		.loc 1 149 0
 1296 007e DB78     		ldrb	r3, [r3, #3]	@ zero_extendqisi2
 1297 0080 032B     		cmp	r3, #3
 1298 0082 26D1     		bne	.L176
 1299 0084 6D4B     		ldr	r3, .L178+16
 1300 0086 0021     		movs	r1, #0
 1301              	.LVL103:
 1302              	.L125:
 156:.\Generated_Source\PSoC5/USBUART_1_std.c ****                     {
 1303              		.loc 1 156 0
 1304 0088 684A     		ldr	r2, .L178
 1305 008a C8B2     		uxtb	r0, r1
 1306 008c 9578     		ldrb	r5, [r2, #2]	@ zero_extendqisi2
 1307 008e 8542     		cmp	r5, r0
 1308 0090 08D8     		bhi	.L127
 1309              	.LVL104:
 1310              	.L130:
 168:.\Generated_Source\PSoC5/USBUART_1_std.c ****                     {
 1311              		.loc 1 168 0
 1312 0092 9178     		ldrb	r1, [r2, #2]	@ zero_extendqisi2
 170:.\Generated_Source\PSoC5/USBUART_1_std.c ****                     }
 1313              		.loc 1 170 0
 1314 0094 6A4A     		ldr	r2, .L178+20
 1315 0096 EE29     		cmp	r1, #238
 1316 0098 08BF     		it	eq
 1317 009a 1346     		moveq	r3, r2
 1318              	.LVL105:
 176:.\Generated_Source\PSoC5/USBUART_1_std.c ****                         (USBUART_1_wValueLoReg == USBUART_1_DEVICE0_DESCR[USBUART_1_DEVICE_DESCR_SN
 1319              		.loc 1 176 0
 1320 009c 634A     		ldr	r2, .L178
 1321 009e 9178     		ldrb	r1, [r2, #2]	@ zero_extendqisi2
 1322 00a0 81B1     		cbz	r1, .L131
 1323 00a2 06E0     		b	.L177
 1324              	.LVL106:
 1325              	.L127:
 156:.\Generated_Source\PSoC5/USBUART_1_std.c ****                     {
ARM GAS  C:\Users\miyag\AppData\Local\Temp\ccphtVl4.s 			page 49


 1326              		.loc 1 156 0 discriminator 1
 1327 00a4 1878     		ldrb	r0, [r3]	@ zero_extendqisi2
 1328 00a6 0131     		adds	r1, r1, #1
 1329              	.LVL107:
 1330 00a8 0028     		cmp	r0, #0
 1331 00aa F2D0     		beq	.L130
 159:.\Generated_Source\PSoC5/USBUART_1_std.c ****                         /* Move to next string descriptor */
 1332              		.loc 1 159 0
 1333 00ac 1A78     		ldrb	r2, [r3]	@ zero_extendqisi2
 1334              	.LVL108:
 161:.\Generated_Source\PSoC5/USBUART_1_std.c ****                         nStr++;
 1335              		.loc 1 161 0
 1336 00ae 1344     		add	r3, r3, r2
 1337              	.LVL109:
 1338 00b0 EAE7     		b	.L125
 1339              	.LVL110:
 1340              	.L177:
 177:.\Generated_Source\PSoC5/USBUART_1_std.c ****                     {
 1341              		.loc 1 177 0 discriminator 1
 1342 00b2 6449     		ldr	r1, .L178+24
 1343 00b4 9278     		ldrb	r2, [r2, #2]	@ zero_extendqisi2
 176:.\Generated_Source\PSoC5/USBUART_1_std.c ****                         (USBUART_1_wValueLoReg == USBUART_1_DEVICE0_DESCR[USBUART_1_DEVICE_DESCR_SN
 1344              		.loc 1 176 0 discriminator 1
 1345 00b6 097C     		ldrb	r1, [r1, #16]	@ zero_extendqisi2
 1346 00b8 9142     		cmp	r1, r2
 1347 00ba 03D1     		bne	.L131
 181:.\Generated_Source\PSoC5/USBUART_1_std.c ****                         pStr = USBUART_1_idSerialNumberStringDescriptor;
 1348              		.loc 1 181 0
 1349 00bc 6248     		ldr	r0, .L178+28
 1350 00be FFF7FEFF 		bl	USBUART_1_ReadDieID
 1351              	.LVL111:
 182:.\Generated_Source\PSoC5/USBUART_1_std.c ****                     #elif defined(USBUART_1_ENABLE_FWSN_STRING)
 1352              		.loc 1 182 0
 1353 00c2 614B     		ldr	r3, .L178+28
 1354              	.LVL112:
 1355              	.L131:
 199:.\Generated_Source\PSoC5/USBUART_1_std.c ****                     {
 1356              		.loc 1 199 0
 1357 00c4 1A78     		ldrb	r2, [r3]	@ zero_extendqisi2
 1358 00c6 002A     		cmp	r2, #0
 1359 00c8 00F0AE80 		beq	.L116
 201:.\Generated_Source\PSoC5/USBUART_1_std.c ****                         USBUART_1_currentTD.pData = pStr;
 1360              		.loc 1 201 0
 1361 00cc 1A78     		ldrb	r2, [r3]	@ zero_extendqisi2
 1362 00ce 2280     		strh	r2, [r4]	@ movhi
 1363 00d0 18E0     		b	.L173
 1364              	.LVL113:
 1365              	.L176:
 380:.\Generated_Source\PSoC5/USBUART_1_std.c **** 
 1366              		.loc 1 380 0
 1367 00d2 BDE83840 		pop	{r3, r4, r5, lr}
 1368              		.cfi_remember_state
 1369              		.cfi_restore 14
 1370              		.cfi_restore 5
 1371              		.cfi_restore 4
 1372              		.cfi_restore 3
 1373              		.cfi_def_cfa_offset 0
ARM GAS  C:\Users\miyag\AppData\Local\Temp\ccphtVl4.s 			page 50


 209:.\Generated_Source\PSoC5/USBUART_1_std.c ****                 }
 1374              		.loc 1 209 0
 1375 00d6 FFF7FEBF 		b	USBUART_1_DispatchClassRqst
 1376              	.LVL114:
 1377              	.L117:
 1378              		.cfi_restore_state
 214:.\Generated_Source\PSoC5/USBUART_1_std.c ****                 {
 1379              		.loc 1 214 0
 1380 00da 13F00303 		ands	r3, r3, #3
 1381              	.LVL115:
 1382 00de 13D0     		beq	.L133
 1383 00e0 022B     		cmp	r3, #2
 1384 00e2 40F0A180 		bne	.L116
 217:.\Generated_Source\PSoC5/USBUART_1_std.c ****                         USBUART_1_tBuffer[0u]     = USBUART_1_EP[USBUART_1_wIndexLoReg & USBUART_1_
 1385              		.loc 1 217 0
 1386 00e6 2380     		strh	r3, [r4]	@ movhi
 218:.\Generated_Source\PSoC5/USBUART_1_std.c ****                         USBUART_1_tBuffer[1u]     = 0u;
 1387              		.loc 1 218 0
 1388 00e8 504B     		ldr	r3, .L178
 1389 00ea 0C21     		movs	r1, #12
 1390 00ec 1B79     		ldrb	r3, [r3, #4]	@ zero_extendqisi2
 1391 00ee 03F07F02 		and	r2, r3, #127
 1392 00f2 564B     		ldr	r3, .L178+32
 1393 00f4 01FB0233 		mla	r3, r1, r2, r3
 1394 00f8 9A78     		ldrb	r2, [r3, #2]	@ zero_extendqisi2
 1395 00fa 554B     		ldr	r3, .L178+36
 1396 00fc D2B2     		uxtb	r2, r2
 1397 00fe 1A70     		strb	r2, [r3]
 219:.\Generated_Source\PSoC5/USBUART_1_std.c ****                         USBUART_1_currentTD.pData = &USBUART_1_tBuffer[0u];
 1398              		.loc 1 219 0
 1399 0100 0022     		movs	r2, #0
 1400 0102 5A70     		strb	r2, [r3, #1]
 1401              	.LVL116:
 1402              	.L173:
 220:.\Generated_Source\PSoC5/USBUART_1_std.c ****                         
 1403              		.loc 1 220 0
 1404 0104 6360     		str	r3, [r4, #4]
 1405 0106 B6E7     		b	.L170
 1406              	.LVL117:
 1407              	.L133:
 225:.\Generated_Source\PSoC5/USBUART_1_std.c ****                         USBUART_1_tBuffer[0u]     = USBUART_1_deviceStatus;
 1408              		.loc 1 225 0
 1409 0108 0222     		movs	r2, #2
 1410 010a 2280     		strh	r2, [r4]	@ movhi
 226:.\Generated_Source\PSoC5/USBUART_1_std.c ****                         USBUART_1_tBuffer[1u]     = 0u;
 1411              		.loc 1 226 0
 1412 010c 514A     		ldr	r2, .L178+40
 1413 010e 1178     		ldrb	r1, [r2]	@ zero_extendqisi2
 1414 0110 4F4A     		ldr	r2, .L178+36
 1415 0112 C9B2     		uxtb	r1, r1
 1416 0114 1170     		strb	r1, [r2]
 227:.\Generated_Source\PSoC5/USBUART_1_std.c ****                         USBUART_1_currentTD.pData = &USBUART_1_tBuffer[0u];
 1417              		.loc 1 227 0
 1418 0116 5370     		strb	r3, [r2, #1]
 228:.\Generated_Source\PSoC5/USBUART_1_std.c ****                         
 1419              		.loc 1 228 0
 1420 0118 6260     		str	r2, [r4, #4]
ARM GAS  C:\Users\miyag\AppData\Local\Temp\ccphtVl4.s 			page 51


 1421 011a ACE7     		b	.L170
 1422              	.LVL118:
 1423              	.L120:
 238:.\Generated_Source\PSoC5/USBUART_1_std.c ****                 USBUART_1_currentTD.pData = (volatile uint8 *) &USBUART_1_configuration;
 1424              		.loc 1 238 0
 1425 011c 0123     		movs	r3, #1
 1426              	.LVL119:
 1427 011e 2380     		strh	r3, [r4]	@ movhi
 239:.\Generated_Source\PSoC5/USBUART_1_std.c ****                 requestHandled  = USBUART_1_InitControlRead();
 1428              		.loc 1 239 0
 1429 0120 4D4B     		ldr	r3, .L178+44
 1430 0122 EFE7     		b	.L173
 1431              	.LVL120:
 1432              	.L121:
 244:.\Generated_Source\PSoC5/USBUART_1_std.c ****                 USBUART_1_currentTD.pData = (volatile uint8 *) &USBUART_1_interfaceSetting[USBUART_
 1433              		.loc 1 244 0
 1434 0124 0123     		movs	r3, #1
 1435              	.LVL121:
 1436 0126 2380     		strh	r3, [r4]	@ movhi
 245:.\Generated_Source\PSoC5/USBUART_1_std.c ****                 requestHandled  = USBUART_1_InitControlRead();
 1437              		.loc 1 245 0
 1438 0128 1379     		ldrb	r3, [r2, #4]	@ zero_extendqisi2
 1439 012a 4C4A     		ldr	r2, .L178+48
 1440 012c 1344     		add	r3, r3, r2
 1441 012e E9E7     		b	.L173
 1442              	.LVL122:
 1443              	.L115:
 256:.\Generated_Source\PSoC5/USBUART_1_std.c ****         {
 1444              		.loc 1 256 0
 1445 0130 0139     		subs	r1, r1, #1
 1446 0132 0A29     		cmp	r1, #10
 1447 0134 78D8     		bhi	.L116
 1448 0136 DFE801F0 		tbb	[pc, r1]
 1449              	.L136:
 1450 013a 37       		.byte	(.L135-.L136)/2
 1451 013b 77       		.byte	(.L116-.L136)/2
 1452 013c 4F       		.byte	(.L137-.L136)/2
 1453 013d 77       		.byte	(.L116-.L136)/2
 1454 013e 06       		.byte	(.L138-.L136)/2
 1455 013f 77       		.byte	(.L116-.L136)/2
 1456 0140 77       		.byte	(.L116-.L136)/2
 1457 0141 77       		.byte	(.L116-.L136)/2
 1458 0142 0A       		.byte	(.L139-.L136)/2
 1459 0143 77       		.byte	(.L116-.L136)/2
 1460 0144 20       		.byte	(.L140-.L136)/2
 1461 0145 00       		.p2align 1
 1462              	.L138:
 260:.\Generated_Source\PSoC5/USBUART_1_std.c ****                 requestHandled = USBUART_1_InitNoDataControlTransfer();
 1463              		.loc 1 260 0
 1464 0146 9378     		ldrb	r3, [r2, #2]	@ zero_extendqisi2
 1465              	.LVL123:
 1466 0148 454A     		ldr	r2, .L178+52
 1467 014a DBB2     		uxtb	r3, r3
 1468 014c 5AE0     		b	.L175
 1469              	.LVL124:
 1470              	.L139:
 265:.\Generated_Source\PSoC5/USBUART_1_std.c ****                 
ARM GAS  C:\Users\miyag\AppData\Local\Temp\ccphtVl4.s 			page 52


 1471              		.loc 1 265 0
 1472 014e 9378     		ldrb	r3, [r2, #2]	@ zero_extendqisi2
 1473              	.LVL125:
 268:.\Generated_Source\PSoC5/USBUART_1_std.c ****                 {
 1474              		.loc 1 268 0
 1475 0150 03F0FF04 		and	r4, r3, #255
 1476 0154 53B9     		cbnz	r3, .L141
 1477              	.LVL126:
 1478              	.L144:
 277:.\Generated_Source\PSoC5/USBUART_1_std.c ****                     {
 1479              		.loc 1 277 0
 1480 0156 404B     		ldr	r3, .L178+44
 1481 0158 1A78     		ldrb	r2, [r3]	@ zero_extendqisi2
 1482 015a 9442     		cmp	r4, r2
 1483 015c 60D0     		beq	.L171
 279:.\Generated_Source\PSoC5/USBUART_1_std.c ****                         USBUART_1_configurationChanged = USBUART_1_TRUE;
 1484              		.loc 1 279 0
 1485 015e 1C70     		strb	r4, [r3]
 280:.\Generated_Source\PSoC5/USBUART_1_std.c ****                         USBUART_1_Config(USBUART_1_TRUE);
 1486              		.loc 1 280 0
 1487 0160 404B     		ldr	r3, .L178+56
 1488 0162 0120     		movs	r0, #1
 1489 0164 1870     		strb	r0, [r3]
 281:.\Generated_Source\PSoC5/USBUART_1_std.c ****                     }
 1490              		.loc 1 281 0
 1491 0166 FFF7FEFF 		bl	USBUART_1_Config
 1492              	.LVL127:
 1493 016a 59E0     		b	.L171
 1494              	.LVL128:
 1495              	.L141:
 270:.\Generated_Source\PSoC5/USBUART_1_std.c ****                 }
 1496              		.loc 1 270 0
 1497 016c 601E     		subs	r0, r4, #1
 1498 016e C0B2     		uxtb	r0, r0
 1499 0170 FFF7FEFF 		bl	USBUART_1_GetConfigTablePtr
 1500              	.LVL129:
 274:.\Generated_Source\PSoC5/USBUART_1_std.c ****                 {
 1501              		.loc 1 274 0
 1502 0174 0028     		cmp	r0, #0
 1503 0176 EED1     		bne	.L144
 1504 0178 56E0     		b	.L116
 1505              	.LVL130:
 1506              	.L140:
 288:.\Generated_Source\PSoC5/USBUART_1_std.c ****                 {
 1507              		.loc 1 288 0
 1508 017a FFF7FEFF 		bl	USBUART_1_ValidateAlternateSetting
 1509              	.LVL131:
 1510 017e 0028     		cmp	r0, #0
 1511 0180 52D0     		beq	.L116
 291:.\Generated_Source\PSoC5/USBUART_1_std.c ****                     USBUART_1_interfaceNumber = (uint8) USBUART_1_wIndexLoReg;
 1512              		.loc 1 291 0
 1513 0182 2A4A     		ldr	r2, .L178
 292:.\Generated_Source\PSoC5/USBUART_1_std.c ****                      
 1514              		.loc 1 292 0
 1515 0184 3849     		ldr	r1, .L178+60
 291:.\Generated_Source\PSoC5/USBUART_1_std.c ****                     USBUART_1_interfaceNumber = (uint8) USBUART_1_wIndexLoReg;
 1516              		.loc 1 291 0
ARM GAS  C:\Users\miyag\AppData\Local\Temp\ccphtVl4.s 			page 53


 1517 0186 1379     		ldrb	r3, [r2, #4]	@ zero_extendqisi2
 292:.\Generated_Source\PSoC5/USBUART_1_std.c ****                      
 1518              		.loc 1 292 0
 1519 0188 1279     		ldrb	r2, [r2, #4]	@ zero_extendqisi2
 291:.\Generated_Source\PSoC5/USBUART_1_std.c ****                     USBUART_1_interfaceNumber = (uint8) USBUART_1_wIndexLoReg;
 1520              		.loc 1 291 0
 1521 018a DBB2     		uxtb	r3, r3
 1522              	.LVL132:
 292:.\Generated_Source\PSoC5/USBUART_1_std.c ****                      
 1523              		.loc 1 292 0
 1524 018c D2B2     		uxtb	r2, r2
 1525 018e 0A70     		strb	r2, [r1]
 295:.\Generated_Source\PSoC5/USBUART_1_std.c ****                     {
 1526              		.loc 1 295 0
 1527 0190 364A     		ldr	r2, .L178+64
 1528 0192 3249     		ldr	r1, .L178+48
 1529 0194 D25C     		ldrb	r2, [r2, r3]	@ zero_extendqisi2
 1530 0196 CB5C     		ldrb	r3, [r1, r3]	@ zero_extendqisi2
 1531              	.LVL133:
 1532 0198 9A42     		cmp	r2, r3
 1533 019a 41D0     		beq	.L171
 297:.\Generated_Source\PSoC5/USBUART_1_std.c ****                     
 1534              		.loc 1 297 0
 1535 019c 314B     		ldr	r3, .L178+56
 1536 019e 0122     		movs	r2, #1
 1537 01a0 1A70     		strb	r2, [r3]
 303:.\Generated_Source\PSoC5/USBUART_1_std.c ****                     #endif /* (USBUART_1_EP_MANAGEMENT_MANUAL && USBUART_1_EP_ALLOC_DYNAMIC) */
 1538              		.loc 1 303 0
 1539 01a2 FFF7FEFF 		bl	USBUART_1_ConfigAltChanged
 1540              	.LVL134:
 1541 01a6 3BE0     		b	.L171
 1542              	.LVL135:
 1543              	.L135:
 312:.\Generated_Source\PSoC5/USBUART_1_std.c ****                 {
 1544              		.loc 1 312 0
 1545 01a8 03F00303 		and	r3, r3, #3
 1546              	.LVL136:
 1547 01ac 012B     		cmp	r3, #1
 1548 01ae 2BD0     		beq	.L149
 1549 01b0 09D3     		bcc	.L147
 1550 01b2 022B     		cmp	r3, #2
 1551 01b4 38D1     		bne	.L116
 315:.\Generated_Source\PSoC5/USBUART_1_std.c ****                         {
 1552              		.loc 1 315 0
 1553 01b6 1D4B     		ldr	r3, .L178
 1554 01b8 9B78     		ldrb	r3, [r3, #2]	@ zero_extendqisi2
 1555 01ba 002B     		cmp	r3, #0
 1556 01bc 34D1     		bne	.L116
 380:.\Generated_Source\PSoC5/USBUART_1_std.c **** 
 1557              		.loc 1 380 0
 1558 01be BDE83840 		pop	{r3, r4, r5, lr}
 1559              		.cfi_remember_state
 1560              		.cfi_restore 14
 1561              		.cfi_restore 5
 1562              		.cfi_restore 4
 1563              		.cfi_restore 3
 1564              		.cfi_def_cfa_offset 0
ARM GAS  C:\Users\miyag\AppData\Local\Temp\ccphtVl4.s 			page 54


 317:.\Generated_Source\PSoC5/USBUART_1_std.c ****                         }
 1565              		.loc 1 317 0
 1566 01c2 FFF7FEBF 		b	USBUART_1_ClearEndpointHalt
 1567              	.LVL137:
 1568              	.L147:
 1569              		.cfi_restore_state
 322:.\Generated_Source\PSoC5/USBUART_1_std.c ****                         {
 1570              		.loc 1 322 0
 1571 01c6 194B     		ldr	r3, .L178
 1572 01c8 9B78     		ldrb	r3, [r3, #2]	@ zero_extendqisi2
 1573 01ca 012B     		cmp	r3, #1
 1574 01cc 2CD1     		bne	.L116
 324:.\Generated_Source\PSoC5/USBUART_1_std.c ****                             requestHandled = USBUART_1_InitNoDataControlTransfer();
 1575              		.loc 1 324 0
 1576 01ce 214A     		ldr	r2, .L178+40
 1577 01d0 1378     		ldrb	r3, [r2]	@ zero_extendqisi2
 1578 01d2 03F0FD03 		and	r3, r3, #253
 1579 01d6 15E0     		b	.L175
 1580              	.LVL138:
 1581              	.L137:
 342:.\Generated_Source\PSoC5/USBUART_1_std.c ****                 {
 1582              		.loc 1 342 0
 1583 01d8 03F00303 		and	r3, r3, #3
 1584              	.LVL139:
 1585 01dc 012B     		cmp	r3, #1
 1586 01de 13D0     		beq	.L149
 1587 01e0 08D3     		bcc	.L150
 1588 01e2 022B     		cmp	r3, #2
 1589 01e4 20D1     		bne	.L116
 345:.\Generated_Source\PSoC5/USBUART_1_std.c ****                         {
 1590              		.loc 1 345 0
 1591 01e6 114B     		ldr	r3, .L178
 1592 01e8 9B78     		ldrb	r3, [r3, #2]	@ zero_extendqisi2
 1593 01ea EBB9     		cbnz	r3, .L116
 380:.\Generated_Source\PSoC5/USBUART_1_std.c **** 
 1594              		.loc 1 380 0
 1595 01ec BDE83840 		pop	{r3, r4, r5, lr}
 1596              		.cfi_remember_state
 1597              		.cfi_restore 14
 1598              		.cfi_restore 5
 1599              		.cfi_restore 4
 1600              		.cfi_restore 3
 1601              		.cfi_def_cfa_offset 0
 347:.\Generated_Source\PSoC5/USBUART_1_std.c ****                         }
 1602              		.loc 1 347 0
 1603 01f0 FFF7FEBF 		b	USBUART_1_SetEndpointHalt
 1604              	.LVL140:
 1605              	.L150:
 1606              		.cfi_restore_state
 353:.\Generated_Source\PSoC5/USBUART_1_std.c ****                         {
 1607              		.loc 1 353 0
 1608 01f4 0D4B     		ldr	r3, .L178
 1609 01f6 9B78     		ldrb	r3, [r3, #2]	@ zero_extendqisi2
 1610 01f8 012B     		cmp	r3, #1
 1611 01fa 15D1     		bne	.L116
 355:.\Generated_Source\PSoC5/USBUART_1_std.c ****                             requestHandled = USBUART_1_InitNoDataControlTransfer();
 1612              		.loc 1 355 0
ARM GAS  C:\Users\miyag\AppData\Local\Temp\ccphtVl4.s 			page 55


 1613 01fc 154A     		ldr	r2, .L178+40
 1614 01fe 1378     		ldrb	r3, [r2]	@ zero_extendqisi2
 1615 0200 43F00203 		orr	r3, r3, #2
 1616              	.L175:
 1617 0204 1370     		strb	r3, [r2]
 1618 0206 0BE0     		b	.L171
 1619              	.L149:
 362:.\Generated_Source\PSoC5/USBUART_1_std.c ****                         {
 1620              		.loc 1 362 0
 1621 0208 084B     		ldr	r3, .L178
 1622 020a 1A79     		ldrb	r2, [r3, #4]	@ zero_extendqisi2
 1623 020c 012A     		cmp	r2, #1
 1624 020e 0BD8     		bhi	.L116
 364:.\Generated_Source\PSoC5/USBUART_1_std.c ****                             requestHandled = USBUART_1_InitNoDataControlTransfer();
 1625              		.loc 1 364 0
 1626 0210 9878     		ldrb	r0, [r3, #2]	@ zero_extendqisi2
 1627 0212 1B79     		ldrb	r3, [r3, #4]	@ zero_extendqisi2
 1628 0214 1649     		ldr	r1, .L178+68
 1629 0216 DBB2     		uxtb	r3, r3
 1630 0218 CA5C     		ldrb	r2, [r1, r3]	@ zero_extendqisi2
 1631 021a 22EA0002 		bic	r2, r2, r0
 1632 021e CA54     		strb	r2, [r1, r3]
 1633              	.L171:
 380:.\Generated_Source\PSoC5/USBUART_1_std.c **** 
 1634              		.loc 1 380 0
 1635 0220 BDE83840 		pop	{r3, r4, r5, lr}
 1636              		.cfi_remember_state
 1637              		.cfi_restore 14
 1638              		.cfi_restore 5
 1639              		.cfi_restore 4
 1640              		.cfi_restore 3
 1641              		.cfi_def_cfa_offset 0
 365:.\Generated_Source\PSoC5/USBUART_1_std.c ****                         }
 1642              		.loc 1 365 0
 1643 0224 FFF7FEBF 		b	USBUART_1_InitNoDataControlTransfer
 1644              	.LVL141:
 1645              	.L116:
 1646              		.cfi_restore_state
 380:.\Generated_Source\PSoC5/USBUART_1_std.c **** 
 1647              		.loc 1 380 0
 1648 0228 0020     		movs	r0, #0
 1649 022a 38BD     		pop	{r3, r4, r5, pc}
 1650              	.L179:
 1651              		.align	2
 1652              	.L178:
 1653 022c 00600040 		.word	1073766400
 1654 0230 00000000 		.word	USBUART_1_currentTD
 1655 0234 00000000 		.word	USBUART_1_device
 1656 0238 00000000 		.word	USBUART_1_TABLE
 1657 023c 00000000 		.word	USBUART_1_STRING_DESCRIPTORS
 1658 0240 00000000 		.word	USBUART_1_MSOS_DESCRIPTOR
 1659 0244 00000000 		.word	USBUART_1_DEVICE0_DESCR
 1660 0248 00000000 		.word	USBUART_1_idSerialNumberStringDescriptor
 1661 024c 00000000 		.word	USBUART_1_EP
 1662 0250 00000000 		.word	.LANCHOR0
 1663 0254 00000000 		.word	USBUART_1_deviceStatus
 1664 0258 00000000 		.word	USBUART_1_configuration
ARM GAS  C:\Users\miyag\AppData\Local\Temp\ccphtVl4.s 			page 56


 1665 025c 00000000 		.word	USBUART_1_interfaceSetting
 1666 0260 00000000 		.word	USBUART_1_deviceAddress
 1667 0264 00000000 		.word	USBUART_1_configurationChanged
 1668 0268 00000000 		.word	USBUART_1_interfaceNumber
 1669 026c 00000000 		.word	USBUART_1_interfaceSettingLast
 1670 0270 00000000 		.word	USBUART_1_interfaceStatus
 1671              		.cfi_endproc
 1672              	.LFE0:
 1673              		.size	USBUART_1_HandleStandardRqst, .-USBUART_1_HandleStandardRqst
 1674              		.section	.rodata.str1.1,"aMS",%progbits,1
 1675              	.LC0:
 1676 0000 30313233 		.ascii	"0123456789ABCDEF\000"
 1676      34353637 
 1676      38394142 
 1676      43444546 
 1676      00
 1677              		.bss
 1678              		.set	.LANCHOR0,. + 0
 1679              		.type	USBUART_1_tBuffer.5117, %object
 1680              		.size	USBUART_1_tBuffer.5117, 2
 1681              	USBUART_1_tBuffer.5117:
 1682 0000 0000     		.space	2
 1683              		.text
 1684              	.Letext0:
 1685              		.file 2 ".\\Generated_Source\\PSoC5\\cytypes.h"
 1686              		.file 3 ".\\Generated_Source\\PSoC5\\USBUART_1.h"
 1687              		.file 4 ".\\Generated_Source\\PSoC5\\USBUART_1_pvt.h"
 1688              		.file 5 ".\\Generated_Source\\PSoC5\\CyLib.h"