ARM GAS  C:\Users\miyag\AppData\Local\Temp\ccphtVl4.s 			page 1


   1              		.syntax unified
   2              		.cpu cortex-m3
   3              		.fpu softvfp
   4              		.eabi_attribute 20, 1
   5              		.eabi_attribute 21, 1
   6              		.eabi_attribute 23, 3
   7              		.eabi_attribute 24, 1
   8              		.eabi_attribute 25, 1
   9              		.eabi_attribute 26, 1
  10              		.eabi_attribute 30, 4
  11              		.eabi_attribute 34, 1
  12              		.eabi_attribute 18, 4
  13              		.thumb
  14              		.file	"USBUART_1_std.c"
  15              		.text
  16              	.Ltext0:
  17              		.cfi_sections	.debug_frame
  18              		.section	.text.USBUART_1_ReadDieID,"ax",%progbits
  19              		.align	1
  20              		.global	USBUART_1_ReadDieID
  21              		.thumb
  22              		.thumb_func
  23              		.type	USBUART_1_ReadDieID, %function
  24              	USBUART_1_ReadDieID:
  25              	.LFB1:
  26              		.file 1 ".\\Generated_Source\\PSoC5\\USBUART_1_std.c"
   1:.\Generated_Source\PSoC5/USBUART_1_std.c **** /***************************************************************************//**
   2:.\Generated_Source\PSoC5/USBUART_1_std.c **** * \file USBUART_1_std.c
   3:.\Generated_Source\PSoC5/USBUART_1_std.c **** * \version 3.0
   4:.\Generated_Source\PSoC5/USBUART_1_std.c **** *
   5:.\Generated_Source\PSoC5/USBUART_1_std.c **** * \brief
   6:.\Generated_Source\PSoC5/USBUART_1_std.c **** *  This file contains the USB Standard request handler.
   7:.\Generated_Source\PSoC5/USBUART_1_std.c **** *
   8:.\Generated_Source\PSoC5/USBUART_1_std.c **** ********************************************************************************
   9:.\Generated_Source\PSoC5/USBUART_1_std.c **** * \copyright
  10:.\Generated_Source\PSoC5/USBUART_1_std.c **** * Copyright 2008-2015, Cypress Semiconductor Corporation.  All rights reserved.
  11:.\Generated_Source\PSoC5/USBUART_1_std.c **** * You may use this file only in accordance with the license, terms, conditions,
  12:.\Generated_Source\PSoC5/USBUART_1_std.c **** * disclaimers, and limitations in the end user license agreement accompanying
  13:.\Generated_Source\PSoC5/USBUART_1_std.c **** * the software package with which this file was provided.
  14:.\Generated_Source\PSoC5/USBUART_1_std.c **** *******************************************************************************/
  15:.\Generated_Source\PSoC5/USBUART_1_std.c **** 
  16:.\Generated_Source\PSoC5/USBUART_1_std.c **** #include "USBUART_1_pvt.h"
  17:.\Generated_Source\PSoC5/USBUART_1_std.c **** 
  18:.\Generated_Source\PSoC5/USBUART_1_std.c **** /***************************************
  19:.\Generated_Source\PSoC5/USBUART_1_std.c **** *   Static data allocation
  20:.\Generated_Source\PSoC5/USBUART_1_std.c **** ***************************************/
  21:.\Generated_Source\PSoC5/USBUART_1_std.c **** 
  22:.\Generated_Source\PSoC5/USBUART_1_std.c **** #if defined(USBUART_1_ENABLE_FWSN_STRING)
  23:.\Generated_Source\PSoC5/USBUART_1_std.c ****     static volatile uint8* USBUART_1_fwSerialNumberStringDescriptor;
  24:.\Generated_Source\PSoC5/USBUART_1_std.c ****     static volatile uint8  USBUART_1_snStringConfirm = USBUART_1_FALSE;
  25:.\Generated_Source\PSoC5/USBUART_1_std.c **** #endif  /* (USBUART_1_ENABLE_FWSN_STRING) */
  26:.\Generated_Source\PSoC5/USBUART_1_std.c **** 
  27:.\Generated_Source\PSoC5/USBUART_1_std.c **** #if defined(USBUART_1_ENABLE_FWSN_STRING)
  28:.\Generated_Source\PSoC5/USBUART_1_std.c ****     /***************************************************************************
  29:.\Generated_Source\PSoC5/USBUART_1_std.c ****     * Function Name: USBUART_1_SerialNumString
  30:.\Generated_Source\PSoC5/USBUART_1_std.c ****     ************************************************************************//**
  31:.\Generated_Source\PSoC5/USBUART_1_std.c ****     *
ARM GAS  C:\Users\miyag\AppData\Local\Temp\ccphtVl4.s 			page 2


  32:.\Generated_Source\PSoC5/USBUART_1_std.c ****     *  This function is available only when the User Call Back option in the 
  33:.\Generated_Source\PSoC5/USBUART_1_std.c ****     *  Serial Number String descriptor properties is selected. Application 
  34:.\Generated_Source\PSoC5/USBUART_1_std.c ****     *  firmware can provide the source of the USB device serial number string 
  35:.\Generated_Source\PSoC5/USBUART_1_std.c ****     *  descriptor during run time. The default string is used if the application 
  36:.\Generated_Source\PSoC5/USBUART_1_std.c ****     *  firmware does not use this function or sets the wrong string descriptor.
  37:.\Generated_Source\PSoC5/USBUART_1_std.c ****     *
  38:.\Generated_Source\PSoC5/USBUART_1_std.c ****     *  \param snString:  Pointer to the user-defined string descriptor. The 
  39:.\Generated_Source\PSoC5/USBUART_1_std.c ****     *  string descriptor should meet the Universal Serial Bus Specification 
  40:.\Generated_Source\PSoC5/USBUART_1_std.c ****     *  revision 2.0 chapter 9.6.7
  41:.\Generated_Source\PSoC5/USBUART_1_std.c ****     *  Offset|Size|Value|Description
  42:.\Generated_Source\PSoC5/USBUART_1_std.c ****     *  ------|----|------|---------------------------------
  43:.\Generated_Source\PSoC5/USBUART_1_std.c ****     *  0     |1   |N     |Size of this descriptor in bytes
  44:.\Generated_Source\PSoC5/USBUART_1_std.c ****     *  1     |1   |0x03  |STRING Descriptor Type
  45:.\Generated_Source\PSoC5/USBUART_1_std.c ****     *  2     |N-2 |Number|UNICODE encoded string
  46:.\Generated_Source\PSoC5/USBUART_1_std.c ****     *  
  47:.\Generated_Source\PSoC5/USBUART_1_std.c ****     * *For example:* uint8 snString[16]={0x0E,0x03,'F',0,'W',0,'S',0,'N',0,'0',0,'1',0};
  48:.\Generated_Source\PSoC5/USBUART_1_std.c ****     *
  49:.\Generated_Source\PSoC5/USBUART_1_std.c ****     * \reentrant
  50:.\Generated_Source\PSoC5/USBUART_1_std.c ****     *  No.
  51:.\Generated_Source\PSoC5/USBUART_1_std.c ****     *
  52:.\Generated_Source\PSoC5/USBUART_1_std.c ****     ***************************************************************************/
  53:.\Generated_Source\PSoC5/USBUART_1_std.c ****     void  USBUART_1_SerialNumString(uint8 snString[]) 
  54:.\Generated_Source\PSoC5/USBUART_1_std.c ****     {
  55:.\Generated_Source\PSoC5/USBUART_1_std.c ****         USBUART_1_snStringConfirm = USBUART_1_FALSE;
  56:.\Generated_Source\PSoC5/USBUART_1_std.c ****         
  57:.\Generated_Source\PSoC5/USBUART_1_std.c ****         if (snString != NULL)
  58:.\Generated_Source\PSoC5/USBUART_1_std.c ****         {
  59:.\Generated_Source\PSoC5/USBUART_1_std.c ****             /* Check descriptor validation */
  60:.\Generated_Source\PSoC5/USBUART_1_std.c ****             if ((snString[0u] > 1u) && (snString[1u] == USBUART_1_DESCR_STRING))
  61:.\Generated_Source\PSoC5/USBUART_1_std.c ****             {
  62:.\Generated_Source\PSoC5/USBUART_1_std.c ****                 USBUART_1_fwSerialNumberStringDescriptor = snString;
  63:.\Generated_Source\PSoC5/USBUART_1_std.c ****                 USBUART_1_snStringConfirm = USBUART_1_TRUE;
  64:.\Generated_Source\PSoC5/USBUART_1_std.c ****             }
  65:.\Generated_Source\PSoC5/USBUART_1_std.c ****         }
  66:.\Generated_Source\PSoC5/USBUART_1_std.c ****     }
  67:.\Generated_Source\PSoC5/USBUART_1_std.c **** #endif  /* USBUART_1_ENABLE_FWSN_STRING */
  68:.\Generated_Source\PSoC5/USBUART_1_std.c **** 
  69:.\Generated_Source\PSoC5/USBUART_1_std.c **** 
  70:.\Generated_Source\PSoC5/USBUART_1_std.c **** /*******************************************************************************
  71:.\Generated_Source\PSoC5/USBUART_1_std.c **** * Function Name: USBUART_1_HandleStandardRqst
  72:.\Generated_Source\PSoC5/USBUART_1_std.c **** ****************************************************************************//**
  73:.\Generated_Source\PSoC5/USBUART_1_std.c **** *
  74:.\Generated_Source\PSoC5/USBUART_1_std.c **** *  This Routine dispatches standard requests
  75:.\Generated_Source\PSoC5/USBUART_1_std.c **** *
  76:.\Generated_Source\PSoC5/USBUART_1_std.c **** *
  77:.\Generated_Source\PSoC5/USBUART_1_std.c **** * \return
  78:.\Generated_Source\PSoC5/USBUART_1_std.c **** *  TRUE if request handled.
  79:.\Generated_Source\PSoC5/USBUART_1_std.c **** *
  80:.\Generated_Source\PSoC5/USBUART_1_std.c **** * \reentrant
  81:.\Generated_Source\PSoC5/USBUART_1_std.c **** *  No.
  82:.\Generated_Source\PSoC5/USBUART_1_std.c **** *
  83:.\Generated_Source\PSoC5/USBUART_1_std.c **** *******************************************************************************/
  84:.\Generated_Source\PSoC5/USBUART_1_std.c **** uint8 USBUART_1_HandleStandardRqst(void) 
  85:.\Generated_Source\PSoC5/USBUART_1_std.c **** {
  86:.\Generated_Source\PSoC5/USBUART_1_std.c ****     uint8 requestHandled = USBUART_1_FALSE;
  87:.\Generated_Source\PSoC5/USBUART_1_std.c ****     uint8 interfaceNumber;
  88:.\Generated_Source\PSoC5/USBUART_1_std.c ****     uint8 configurationN;
ARM GAS  C:\Users\miyag\AppData\Local\Temp\ccphtVl4.s 			page 3


  89:.\Generated_Source\PSoC5/USBUART_1_std.c ****     uint8 bmRequestType = USBUART_1_bmRequestTypeReg;
  90:.\Generated_Source\PSoC5/USBUART_1_std.c **** 
  91:.\Generated_Source\PSoC5/USBUART_1_std.c **** #if defined(USBUART_1_ENABLE_STRINGS)
  92:.\Generated_Source\PSoC5/USBUART_1_std.c ****     volatile uint8 *pStr = 0u;
  93:.\Generated_Source\PSoC5/USBUART_1_std.c ****     #if defined(USBUART_1_ENABLE_DESCRIPTOR_STRINGS)
  94:.\Generated_Source\PSoC5/USBUART_1_std.c ****         uint8 nStr;
  95:.\Generated_Source\PSoC5/USBUART_1_std.c ****         uint8 descrLength;
  96:.\Generated_Source\PSoC5/USBUART_1_std.c ****     #endif /* (USBUART_1_ENABLE_DESCRIPTOR_STRINGS) */
  97:.\Generated_Source\PSoC5/USBUART_1_std.c **** #endif /* (USBUART_1_ENABLE_STRINGS) */
  98:.\Generated_Source\PSoC5/USBUART_1_std.c ****     
  99:.\Generated_Source\PSoC5/USBUART_1_std.c ****     static volatile uint8 USBUART_1_tBuffer[USBUART_1_STATUS_LENGTH_MAX];
 100:.\Generated_Source\PSoC5/USBUART_1_std.c ****     const T_USBUART_1_LUT CYCODE *pTmp;
 101:.\Generated_Source\PSoC5/USBUART_1_std.c **** 
 102:.\Generated_Source\PSoC5/USBUART_1_std.c ****     USBUART_1_currentTD.count = 0u;
 103:.\Generated_Source\PSoC5/USBUART_1_std.c **** 
 104:.\Generated_Source\PSoC5/USBUART_1_std.c ****     if (USBUART_1_RQST_DIR_D2H == (bmRequestType & USBUART_1_RQST_DIR_MASK))
 105:.\Generated_Source\PSoC5/USBUART_1_std.c ****     {
 106:.\Generated_Source\PSoC5/USBUART_1_std.c ****         /* Control Read */
 107:.\Generated_Source\PSoC5/USBUART_1_std.c ****         switch (USBUART_1_bRequestReg)
 108:.\Generated_Source\PSoC5/USBUART_1_std.c ****         {
 109:.\Generated_Source\PSoC5/USBUART_1_std.c ****             case USBUART_1_GET_DESCRIPTOR:
 110:.\Generated_Source\PSoC5/USBUART_1_std.c ****                 if (USBUART_1_DESCR_DEVICE ==USBUART_1_wValueHiReg)
 111:.\Generated_Source\PSoC5/USBUART_1_std.c ****                 {
 112:.\Generated_Source\PSoC5/USBUART_1_std.c ****                     pTmp = USBUART_1_GetDeviceTablePtr();
 113:.\Generated_Source\PSoC5/USBUART_1_std.c ****                     USBUART_1_currentTD.pData = (volatile uint8 *)pTmp->p_list;
 114:.\Generated_Source\PSoC5/USBUART_1_std.c ****                     USBUART_1_currentTD.count = USBUART_1_DEVICE_DESCR_LENGTH;
 115:.\Generated_Source\PSoC5/USBUART_1_std.c ****                     
 116:.\Generated_Source\PSoC5/USBUART_1_std.c ****                     requestHandled  = USBUART_1_InitControlRead();
 117:.\Generated_Source\PSoC5/USBUART_1_std.c ****                 }
 118:.\Generated_Source\PSoC5/USBUART_1_std.c ****                 else if (USBUART_1_DESCR_CONFIG == USBUART_1_wValueHiReg)
 119:.\Generated_Source\PSoC5/USBUART_1_std.c ****                 {
 120:.\Generated_Source\PSoC5/USBUART_1_std.c ****                     pTmp = USBUART_1_GetConfigTablePtr((uint8) USBUART_1_wValueLoReg);
 121:.\Generated_Source\PSoC5/USBUART_1_std.c ****                     
 122:.\Generated_Source\PSoC5/USBUART_1_std.c ****                     /* Verify that requested descriptor exists */
 123:.\Generated_Source\PSoC5/USBUART_1_std.c ****                     if (pTmp != NULL)
 124:.\Generated_Source\PSoC5/USBUART_1_std.c ****                     {
 125:.\Generated_Source\PSoC5/USBUART_1_std.c ****                         USBUART_1_currentTD.pData = (volatile uint8 *)pTmp->p_list;
 126:.\Generated_Source\PSoC5/USBUART_1_std.c ****                         USBUART_1_currentTD.count = (uint16)((uint16)(USBUART_1_currentTD.pData)[US
 127:.\Generated_Source\PSoC5/USBUART_1_std.c ****                                                                             (USBUART_1_currentTD.pD
 128:.\Generated_Source\PSoC5/USBUART_1_std.c ****                         requestHandled  = USBUART_1_InitControlRead();
 129:.\Generated_Source\PSoC5/USBUART_1_std.c ****                     }
 130:.\Generated_Source\PSoC5/USBUART_1_std.c ****                 }
 131:.\Generated_Source\PSoC5/USBUART_1_std.c ****                 
 132:.\Generated_Source\PSoC5/USBUART_1_std.c ****             #if(USBUART_1_BOS_ENABLE)
 133:.\Generated_Source\PSoC5/USBUART_1_std.c ****                 else if (USBUART_1_DESCR_BOS == USBUART_1_wValueHiReg)
 134:.\Generated_Source\PSoC5/USBUART_1_std.c ****                 {
 135:.\Generated_Source\PSoC5/USBUART_1_std.c ****                     pTmp = USBUART_1_GetBOSPtr();
 136:.\Generated_Source\PSoC5/USBUART_1_std.c ****                     
 137:.\Generated_Source\PSoC5/USBUART_1_std.c ****                     /* Verify that requested descriptor exists */
 138:.\Generated_Source\PSoC5/USBUART_1_std.c ****                     if (pTmp != NULL)
 139:.\Generated_Source\PSoC5/USBUART_1_std.c ****                     {
 140:.\Generated_Source\PSoC5/USBUART_1_std.c ****                         USBUART_1_currentTD.pData = (volatile uint8 *)pTmp;
 141:.\Generated_Source\PSoC5/USBUART_1_std.c ****                         USBUART_1_currentTD.count = ((uint16)((uint16)(USBUART_1_currentTD.pData)[U
 142:.\Generated_Source\PSoC5/USBUART_1_std.c ****                                                                              (USBUART_1_currentTD.p
 143:.\Generated_Source\PSoC5/USBUART_1_std.c ****                         requestHandled  = USBUART_1_InitControlRead();
 144:.\Generated_Source\PSoC5/USBUART_1_std.c ****                     }
 145:.\Generated_Source\PSoC5/USBUART_1_std.c ****                 }
ARM GAS  C:\Users\miyag\AppData\Local\Temp\ccphtVl4.s 			page 4


 146:.\Generated_Source\PSoC5/USBUART_1_std.c ****             #endif /*(USBUART_1_BOS_ENABLE)*/
 147:.\Generated_Source\PSoC5/USBUART_1_std.c ****             
 148:.\Generated_Source\PSoC5/USBUART_1_std.c ****             #if defined(USBUART_1_ENABLE_STRINGS)
 149:.\Generated_Source\PSoC5/USBUART_1_std.c ****                 else if (USBUART_1_DESCR_STRING == USBUART_1_wValueHiReg)
 150:.\Generated_Source\PSoC5/USBUART_1_std.c ****                 {
 151:.\Generated_Source\PSoC5/USBUART_1_std.c ****                 /* Descriptor Strings */
 152:.\Generated_Source\PSoC5/USBUART_1_std.c ****                 #if defined(USBUART_1_ENABLE_DESCRIPTOR_STRINGS)
 153:.\Generated_Source\PSoC5/USBUART_1_std.c ****                     nStr = 0u;
 154:.\Generated_Source\PSoC5/USBUART_1_std.c ****                     pStr = (volatile uint8 *) &USBUART_1_STRING_DESCRIPTORS[0u];
 155:.\Generated_Source\PSoC5/USBUART_1_std.c ****                     
 156:.\Generated_Source\PSoC5/USBUART_1_std.c ****                     while ((USBUART_1_wValueLoReg > nStr) && (*pStr != 0u))
 157:.\Generated_Source\PSoC5/USBUART_1_std.c ****                     {
 158:.\Generated_Source\PSoC5/USBUART_1_std.c ****                         /* Read descriptor length from 1st byte */
 159:.\Generated_Source\PSoC5/USBUART_1_std.c ****                         descrLength = *pStr;
 160:.\Generated_Source\PSoC5/USBUART_1_std.c ****                         /* Move to next string descriptor */
 161:.\Generated_Source\PSoC5/USBUART_1_std.c ****                         pStr = &pStr[descrLength];
 162:.\Generated_Source\PSoC5/USBUART_1_std.c ****                         nStr++;
 163:.\Generated_Source\PSoC5/USBUART_1_std.c ****                     }
 164:.\Generated_Source\PSoC5/USBUART_1_std.c ****                 #endif /* (USBUART_1_ENABLE_DESCRIPTOR_STRINGS) */
 165:.\Generated_Source\PSoC5/USBUART_1_std.c ****                 
 166:.\Generated_Source\PSoC5/USBUART_1_std.c ****                 /* Microsoft OS String */
 167:.\Generated_Source\PSoC5/USBUART_1_std.c ****                 #if defined(USBUART_1_ENABLE_MSOS_STRING)
 168:.\Generated_Source\PSoC5/USBUART_1_std.c ****                     if (USBUART_1_STRING_MSOS == USBUART_1_wValueLoReg)
 169:.\Generated_Source\PSoC5/USBUART_1_std.c ****                     {
 170:.\Generated_Source\PSoC5/USBUART_1_std.c ****                         pStr = (volatile uint8 *)& USBUART_1_MSOS_DESCRIPTOR[0u];
 171:.\Generated_Source\PSoC5/USBUART_1_std.c ****                     }
 172:.\Generated_Source\PSoC5/USBUART_1_std.c ****                 #endif /* (USBUART_1_ENABLE_MSOS_STRING) */
 173:.\Generated_Source\PSoC5/USBUART_1_std.c ****                 
 174:.\Generated_Source\PSoC5/USBUART_1_std.c ****                 /* SN string */
 175:.\Generated_Source\PSoC5/USBUART_1_std.c ****                 #if defined(USBUART_1_ENABLE_SN_STRING)
 176:.\Generated_Source\PSoC5/USBUART_1_std.c ****                     if ((USBUART_1_wValueLoReg != 0u) && 
 177:.\Generated_Source\PSoC5/USBUART_1_std.c ****                         (USBUART_1_wValueLoReg == USBUART_1_DEVICE0_DESCR[USBUART_1_DEVICE_DESCR_SN
 178:.\Generated_Source\PSoC5/USBUART_1_std.c ****                     {
 179:.\Generated_Source\PSoC5/USBUART_1_std.c ****                     #if defined(USBUART_1_ENABLE_IDSN_STRING)
 180:.\Generated_Source\PSoC5/USBUART_1_std.c ****                         /* Read DIE ID and generate string descriptor in RAM */
 181:.\Generated_Source\PSoC5/USBUART_1_std.c ****                         USBUART_1_ReadDieID(USBUART_1_idSerialNumberStringDescriptor);
 182:.\Generated_Source\PSoC5/USBUART_1_std.c ****                         pStr = USBUART_1_idSerialNumberStringDescriptor;
 183:.\Generated_Source\PSoC5/USBUART_1_std.c ****                     #elif defined(USBUART_1_ENABLE_FWSN_STRING)
 184:.\Generated_Source\PSoC5/USBUART_1_std.c ****                         
 185:.\Generated_Source\PSoC5/USBUART_1_std.c ****                         if(USBUART_1_snStringConfirm != USBUART_1_FALSE)
 186:.\Generated_Source\PSoC5/USBUART_1_std.c ****                         {
 187:.\Generated_Source\PSoC5/USBUART_1_std.c ****                             pStr = USBUART_1_fwSerialNumberStringDescriptor;
 188:.\Generated_Source\PSoC5/USBUART_1_std.c ****                         }
 189:.\Generated_Source\PSoC5/USBUART_1_std.c ****                         else
 190:.\Generated_Source\PSoC5/USBUART_1_std.c ****                         {
 191:.\Generated_Source\PSoC5/USBUART_1_std.c ****                             pStr = (volatile uint8 *)&USBUART_1_SN_STRING_DESCRIPTOR[0u];
 192:.\Generated_Source\PSoC5/USBUART_1_std.c ****                         }
 193:.\Generated_Source\PSoC5/USBUART_1_std.c ****                     #else
 194:.\Generated_Source\PSoC5/USBUART_1_std.c ****                         pStr = (volatile uint8 *)&USBUART_1_SN_STRING_DESCRIPTOR[0u];
 195:.\Generated_Source\PSoC5/USBUART_1_std.c ****                     #endif  /* (USBUART_1_ENABLE_IDSN_STRING) */
 196:.\Generated_Source\PSoC5/USBUART_1_std.c ****                     }
 197:.\Generated_Source\PSoC5/USBUART_1_std.c ****                 #endif /* (USBUART_1_ENABLE_SN_STRING) */
 198:.\Generated_Source\PSoC5/USBUART_1_std.c ****                 
 199:.\Generated_Source\PSoC5/USBUART_1_std.c ****                     if (*pStr != 0u)
 200:.\Generated_Source\PSoC5/USBUART_1_std.c ****                     {
 201:.\Generated_Source\PSoC5/USBUART_1_std.c ****                         USBUART_1_currentTD.count = *pStr;
 202:.\Generated_Source\PSoC5/USBUART_1_std.c ****                         USBUART_1_currentTD.pData = pStr;
ARM GAS  C:\Users\miyag\AppData\Local\Temp\ccphtVl4.s 			page 5


 203:.\Generated_Source\PSoC5/USBUART_1_std.c ****                         requestHandled  = USBUART_1_InitControlRead();
 204:.\Generated_Source\PSoC5/USBUART_1_std.c ****                     }
 205:.\Generated_Source\PSoC5/USBUART_1_std.c ****                 }
 206:.\Generated_Source\PSoC5/USBUART_1_std.c ****             #endif /*  USBUART_1_ENABLE_STRINGS */
 207:.\Generated_Source\PSoC5/USBUART_1_std.c ****                 else
 208:.\Generated_Source\PSoC5/USBUART_1_std.c ****                 {
 209:.\Generated_Source\PSoC5/USBUART_1_std.c ****                     requestHandled = USBUART_1_DispatchClassRqst();
 210:.\Generated_Source\PSoC5/USBUART_1_std.c ****                 }
 211:.\Generated_Source\PSoC5/USBUART_1_std.c ****                 break;
 212:.\Generated_Source\PSoC5/USBUART_1_std.c ****                 
 213:.\Generated_Source\PSoC5/USBUART_1_std.c ****             case USBUART_1_GET_STATUS:
 214:.\Generated_Source\PSoC5/USBUART_1_std.c ****                 switch (bmRequestType & USBUART_1_RQST_RCPT_MASK)
 215:.\Generated_Source\PSoC5/USBUART_1_std.c ****                 {
 216:.\Generated_Source\PSoC5/USBUART_1_std.c ****                     case USBUART_1_RQST_RCPT_EP:
 217:.\Generated_Source\PSoC5/USBUART_1_std.c ****                         USBUART_1_currentTD.count = USBUART_1_EP_STATUS_LENGTH;
 218:.\Generated_Source\PSoC5/USBUART_1_std.c ****                         USBUART_1_tBuffer[0u]     = USBUART_1_EP[USBUART_1_wIndexLoReg & USBUART_1_
 219:.\Generated_Source\PSoC5/USBUART_1_std.c ****                         USBUART_1_tBuffer[1u]     = 0u;
 220:.\Generated_Source\PSoC5/USBUART_1_std.c ****                         USBUART_1_currentTD.pData = &USBUART_1_tBuffer[0u];
 221:.\Generated_Source\PSoC5/USBUART_1_std.c ****                         
 222:.\Generated_Source\PSoC5/USBUART_1_std.c ****                         requestHandled  = USBUART_1_InitControlRead();
 223:.\Generated_Source\PSoC5/USBUART_1_std.c ****                         break;
 224:.\Generated_Source\PSoC5/USBUART_1_std.c ****                     case USBUART_1_RQST_RCPT_DEV:
 225:.\Generated_Source\PSoC5/USBUART_1_std.c ****                         USBUART_1_currentTD.count = USBUART_1_DEVICE_STATUS_LENGTH;
 226:.\Generated_Source\PSoC5/USBUART_1_std.c ****                         USBUART_1_tBuffer[0u]     = USBUART_1_deviceStatus;
 227:.\Generated_Source\PSoC5/USBUART_1_std.c ****                         USBUART_1_tBuffer[1u]     = 0u;
 228:.\Generated_Source\PSoC5/USBUART_1_std.c ****                         USBUART_1_currentTD.pData = &USBUART_1_tBuffer[0u];
 229:.\Generated_Source\PSoC5/USBUART_1_std.c ****                         
 230:.\Generated_Source\PSoC5/USBUART_1_std.c ****                         requestHandled  = USBUART_1_InitControlRead();
 231:.\Generated_Source\PSoC5/USBUART_1_std.c ****                         break;
 232:.\Generated_Source\PSoC5/USBUART_1_std.c ****                     default:    /* requestHandled is initialized as FALSE by default */
 233:.\Generated_Source\PSoC5/USBUART_1_std.c ****                         break;
 234:.\Generated_Source\PSoC5/USBUART_1_std.c ****                 }
 235:.\Generated_Source\PSoC5/USBUART_1_std.c ****                 break;
 236:.\Generated_Source\PSoC5/USBUART_1_std.c ****                 
 237:.\Generated_Source\PSoC5/USBUART_1_std.c ****             case USBUART_1_GET_CONFIGURATION:
 238:.\Generated_Source\PSoC5/USBUART_1_std.c ****                 USBUART_1_currentTD.count = 1u;
 239:.\Generated_Source\PSoC5/USBUART_1_std.c ****                 USBUART_1_currentTD.pData = (volatile uint8 *) &USBUART_1_configuration;
 240:.\Generated_Source\PSoC5/USBUART_1_std.c ****                 requestHandled  = USBUART_1_InitControlRead();
 241:.\Generated_Source\PSoC5/USBUART_1_std.c ****                 break;
 242:.\Generated_Source\PSoC5/USBUART_1_std.c ****                 
 243:.\Generated_Source\PSoC5/USBUART_1_std.c ****             case USBUART_1_GET_INTERFACE:
 244:.\Generated_Source\PSoC5/USBUART_1_std.c ****                 USBUART_1_currentTD.count = 1u;
 245:.\Generated_Source\PSoC5/USBUART_1_std.c ****                 USBUART_1_currentTD.pData = (volatile uint8 *) &USBUART_1_interfaceSetting[USBUART_
 246:.\Generated_Source\PSoC5/USBUART_1_std.c ****                 requestHandled  = USBUART_1_InitControlRead();
 247:.\Generated_Source\PSoC5/USBUART_1_std.c ****                 break;
 248:.\Generated_Source\PSoC5/USBUART_1_std.c ****                 
 249:.\Generated_Source\PSoC5/USBUART_1_std.c ****             default: /* requestHandled is initialized as FALSE by default */
 250:.\Generated_Source\PSoC5/USBUART_1_std.c ****                 break;
 251:.\Generated_Source\PSoC5/USBUART_1_std.c ****         }
 252:.\Generated_Source\PSoC5/USBUART_1_std.c ****     }
 253:.\Generated_Source\PSoC5/USBUART_1_std.c ****     else
 254:.\Generated_Source\PSoC5/USBUART_1_std.c ****     {
 255:.\Generated_Source\PSoC5/USBUART_1_std.c ****         /* Control Write */
 256:.\Generated_Source\PSoC5/USBUART_1_std.c ****         switch (USBUART_1_bRequestReg)
 257:.\Generated_Source\PSoC5/USBUART_1_std.c ****         {
 258:.\Generated_Source\PSoC5/USBUART_1_std.c ****             case USBUART_1_SET_ADDRESS:
 259:.\Generated_Source\PSoC5/USBUART_1_std.c ****                 /* Store address to be set in USBUART_1_NoDataControlStatusStage(). */
ARM GAS  C:\Users\miyag\AppData\Local\Temp\ccphtVl4.s 			page 6


 260:.\Generated_Source\PSoC5/USBUART_1_std.c ****                 USBUART_1_deviceAddress = (uint8) USBUART_1_wValueLoReg;
 261:.\Generated_Source\PSoC5/USBUART_1_std.c ****                 requestHandled = USBUART_1_InitNoDataControlTransfer();
 262:.\Generated_Source\PSoC5/USBUART_1_std.c ****                 break;
 263:.\Generated_Source\PSoC5/USBUART_1_std.c ****                 
 264:.\Generated_Source\PSoC5/USBUART_1_std.c ****             case USBUART_1_SET_CONFIGURATION:
 265:.\Generated_Source\PSoC5/USBUART_1_std.c ****                 configurationN = USBUART_1_wValueLoReg;
 266:.\Generated_Source\PSoC5/USBUART_1_std.c ****                 
 267:.\Generated_Source\PSoC5/USBUART_1_std.c ****                 /* Verify that configuration descriptor exists */
 268:.\Generated_Source\PSoC5/USBUART_1_std.c ****                 if(configurationN > 0u)
 269:.\Generated_Source\PSoC5/USBUART_1_std.c ****                 {
 270:.\Generated_Source\PSoC5/USBUART_1_std.c ****                     pTmp = USBUART_1_GetConfigTablePtr((uint8) configurationN - 1u);
 271:.\Generated_Source\PSoC5/USBUART_1_std.c ****                 }
 272:.\Generated_Source\PSoC5/USBUART_1_std.c ****                 
 273:.\Generated_Source\PSoC5/USBUART_1_std.c ****                 /* Responds with a Request Error when configuration number is invalid */
 274:.\Generated_Source\PSoC5/USBUART_1_std.c ****                 if (((configurationN > 0u) && (pTmp != NULL)) || (configurationN == 0u))
 275:.\Generated_Source\PSoC5/USBUART_1_std.c ****                 {
 276:.\Generated_Source\PSoC5/USBUART_1_std.c ****                     /* Set new configuration if it has been changed */
 277:.\Generated_Source\PSoC5/USBUART_1_std.c ****                     if(configurationN != USBUART_1_configuration)
 278:.\Generated_Source\PSoC5/USBUART_1_std.c ****                     {
 279:.\Generated_Source\PSoC5/USBUART_1_std.c ****                         USBUART_1_configuration = (uint8) configurationN;
 280:.\Generated_Source\PSoC5/USBUART_1_std.c ****                         USBUART_1_configurationChanged = USBUART_1_TRUE;
 281:.\Generated_Source\PSoC5/USBUART_1_std.c ****                         USBUART_1_Config(USBUART_1_TRUE);
 282:.\Generated_Source\PSoC5/USBUART_1_std.c ****                     }
 283:.\Generated_Source\PSoC5/USBUART_1_std.c ****                     requestHandled = USBUART_1_InitNoDataControlTransfer();
 284:.\Generated_Source\PSoC5/USBUART_1_std.c ****                 }
 285:.\Generated_Source\PSoC5/USBUART_1_std.c ****                 break;
 286:.\Generated_Source\PSoC5/USBUART_1_std.c ****                 
 287:.\Generated_Source\PSoC5/USBUART_1_std.c ****             case USBUART_1_SET_INTERFACE:
 288:.\Generated_Source\PSoC5/USBUART_1_std.c ****                 if (0u != USBUART_1_ValidateAlternateSetting())
 289:.\Generated_Source\PSoC5/USBUART_1_std.c ****                 {
 290:.\Generated_Source\PSoC5/USBUART_1_std.c ****                     /* Get interface number from the request. */
 291:.\Generated_Source\PSoC5/USBUART_1_std.c ****                     interfaceNumber = USBUART_1_wIndexLoReg;
 292:.\Generated_Source\PSoC5/USBUART_1_std.c ****                     USBUART_1_interfaceNumber = (uint8) USBUART_1_wIndexLoReg;
 293:.\Generated_Source\PSoC5/USBUART_1_std.c ****                      
 294:.\Generated_Source\PSoC5/USBUART_1_std.c ****                     /* Check if alternate settings is changed for interface. */
 295:.\Generated_Source\PSoC5/USBUART_1_std.c ****                     if (USBUART_1_interfaceSettingLast[interfaceNumber] != USBUART_1_interfaceSetti
 296:.\Generated_Source\PSoC5/USBUART_1_std.c ****                     {
 297:.\Generated_Source\PSoC5/USBUART_1_std.c ****                         USBUART_1_configurationChanged = USBUART_1_TRUE;
 298:.\Generated_Source\PSoC5/USBUART_1_std.c ****                     
 299:.\Generated_Source\PSoC5/USBUART_1_std.c ****                         /* Change alternate setting for the endpoints. */
 300:.\Generated_Source\PSoC5/USBUART_1_std.c ****                     #if (USBUART_1_EP_MANAGEMENT_MANUAL && USBUART_1_EP_ALLOC_DYNAMIC)
 301:.\Generated_Source\PSoC5/USBUART_1_std.c ****                         USBUART_1_Config(USBUART_1_FALSE);
 302:.\Generated_Source\PSoC5/USBUART_1_std.c ****                     #else
 303:.\Generated_Source\PSoC5/USBUART_1_std.c ****                         USBUART_1_ConfigAltChanged();
 304:.\Generated_Source\PSoC5/USBUART_1_std.c ****                     #endif /* (USBUART_1_EP_MANAGEMENT_MANUAL && USBUART_1_EP_ALLOC_DYNAMIC) */
 305:.\Generated_Source\PSoC5/USBUART_1_std.c ****                     }
 306:.\Generated_Source\PSoC5/USBUART_1_std.c ****                     
 307:.\Generated_Source\PSoC5/USBUART_1_std.c ****                     requestHandled = USBUART_1_InitNoDataControlTransfer();
 308:.\Generated_Source\PSoC5/USBUART_1_std.c ****                 }
 309:.\Generated_Source\PSoC5/USBUART_1_std.c ****                 break;
 310:.\Generated_Source\PSoC5/USBUART_1_std.c ****                 
 311:.\Generated_Source\PSoC5/USBUART_1_std.c ****             case USBUART_1_CLEAR_FEATURE:
 312:.\Generated_Source\PSoC5/USBUART_1_std.c ****                 switch (bmRequestType & USBUART_1_RQST_RCPT_MASK)
 313:.\Generated_Source\PSoC5/USBUART_1_std.c ****                 {
 314:.\Generated_Source\PSoC5/USBUART_1_std.c ****                     case USBUART_1_RQST_RCPT_EP:
 315:.\Generated_Source\PSoC5/USBUART_1_std.c ****                         if (USBUART_1_wValueLoReg == USBUART_1_ENDPOINT_HALT)
 316:.\Generated_Source\PSoC5/USBUART_1_std.c ****                         {
ARM GAS  C:\Users\miyag\AppData\Local\Temp\ccphtVl4.s 			page 7


 317:.\Generated_Source\PSoC5/USBUART_1_std.c ****                             requestHandled = USBUART_1_ClearEndpointHalt();
 318:.\Generated_Source\PSoC5/USBUART_1_std.c ****                         }
 319:.\Generated_Source\PSoC5/USBUART_1_std.c ****                         break;
 320:.\Generated_Source\PSoC5/USBUART_1_std.c ****                     case USBUART_1_RQST_RCPT_DEV:
 321:.\Generated_Source\PSoC5/USBUART_1_std.c ****                         /* Clear device REMOTE_WAKEUP */
 322:.\Generated_Source\PSoC5/USBUART_1_std.c ****                         if (USBUART_1_wValueLoReg == USBUART_1_DEVICE_REMOTE_WAKEUP)
 323:.\Generated_Source\PSoC5/USBUART_1_std.c ****                         {
 324:.\Generated_Source\PSoC5/USBUART_1_std.c ****                             USBUART_1_deviceStatus &= (uint8)~USBUART_1_DEVICE_STATUS_REMOTE_WAKEUP
 325:.\Generated_Source\PSoC5/USBUART_1_std.c ****                             requestHandled = USBUART_1_InitNoDataControlTransfer();
 326:.\Generated_Source\PSoC5/USBUART_1_std.c ****                         }
 327:.\Generated_Source\PSoC5/USBUART_1_std.c ****                         break;
 328:.\Generated_Source\PSoC5/USBUART_1_std.c ****                     case USBUART_1_RQST_RCPT_IFC:
 329:.\Generated_Source\PSoC5/USBUART_1_std.c ****                         /* Validate interfaceNumber */
 330:.\Generated_Source\PSoC5/USBUART_1_std.c ****                         if (USBUART_1_wIndexLoReg < USBUART_1_MAX_INTERFACES_NUMBER)
 331:.\Generated_Source\PSoC5/USBUART_1_std.c ****                         {
 332:.\Generated_Source\PSoC5/USBUART_1_std.c ****                             USBUART_1_interfaceStatus[USBUART_1_wIndexLoReg] &= (uint8) ~USBUART_1_
 333:.\Generated_Source\PSoC5/USBUART_1_std.c ****                             requestHandled = USBUART_1_InitNoDataControlTransfer();
 334:.\Generated_Source\PSoC5/USBUART_1_std.c ****                         }
 335:.\Generated_Source\PSoC5/USBUART_1_std.c ****                         break;
 336:.\Generated_Source\PSoC5/USBUART_1_std.c ****                     default:    /* requestHandled is initialized as FALSE by default */
 337:.\Generated_Source\PSoC5/USBUART_1_std.c ****                         break;
 338:.\Generated_Source\PSoC5/USBUART_1_std.c ****                 }
 339:.\Generated_Source\PSoC5/USBUART_1_std.c ****                 break;
 340:.\Generated_Source\PSoC5/USBUART_1_std.c ****                 
 341:.\Generated_Source\PSoC5/USBUART_1_std.c ****             case USBUART_1_SET_FEATURE:
 342:.\Generated_Source\PSoC5/USBUART_1_std.c ****                 switch (bmRequestType & USBUART_1_RQST_RCPT_MASK)
 343:.\Generated_Source\PSoC5/USBUART_1_std.c ****                 {
 344:.\Generated_Source\PSoC5/USBUART_1_std.c ****                     case USBUART_1_RQST_RCPT_EP:
 345:.\Generated_Source\PSoC5/USBUART_1_std.c ****                         if (USBUART_1_wValueLoReg == USBUART_1_ENDPOINT_HALT)
 346:.\Generated_Source\PSoC5/USBUART_1_std.c ****                         {
 347:.\Generated_Source\PSoC5/USBUART_1_std.c ****                             requestHandled = USBUART_1_SetEndpointHalt();
 348:.\Generated_Source\PSoC5/USBUART_1_std.c ****                         }
 349:.\Generated_Source\PSoC5/USBUART_1_std.c ****                         break;
 350:.\Generated_Source\PSoC5/USBUART_1_std.c ****                         
 351:.\Generated_Source\PSoC5/USBUART_1_std.c ****                     case USBUART_1_RQST_RCPT_DEV:
 352:.\Generated_Source\PSoC5/USBUART_1_std.c ****                         /* Set device REMOTE_WAKEUP */
 353:.\Generated_Source\PSoC5/USBUART_1_std.c ****                         if (USBUART_1_wValueLoReg == USBUART_1_DEVICE_REMOTE_WAKEUP)
 354:.\Generated_Source\PSoC5/USBUART_1_std.c ****                         {
 355:.\Generated_Source\PSoC5/USBUART_1_std.c ****                             USBUART_1_deviceStatus |= USBUART_1_DEVICE_STATUS_REMOTE_WAKEUP;
 356:.\Generated_Source\PSoC5/USBUART_1_std.c ****                             requestHandled = USBUART_1_InitNoDataControlTransfer();
 357:.\Generated_Source\PSoC5/USBUART_1_std.c ****                         }
 358:.\Generated_Source\PSoC5/USBUART_1_std.c ****                         break;
 359:.\Generated_Source\PSoC5/USBUART_1_std.c ****                         
 360:.\Generated_Source\PSoC5/USBUART_1_std.c ****                     case USBUART_1_RQST_RCPT_IFC:
 361:.\Generated_Source\PSoC5/USBUART_1_std.c ****                         /* Validate interfaceNumber */
 362:.\Generated_Source\PSoC5/USBUART_1_std.c ****                         if (USBUART_1_wIndexLoReg < USBUART_1_MAX_INTERFACES_NUMBER)
 363:.\Generated_Source\PSoC5/USBUART_1_std.c ****                         {
 364:.\Generated_Source\PSoC5/USBUART_1_std.c ****                             USBUART_1_interfaceStatus[USBUART_1_wIndexLoReg] &= (uint8) ~USBUART_1_
 365:.\Generated_Source\PSoC5/USBUART_1_std.c ****                             requestHandled = USBUART_1_InitNoDataControlTransfer();
 366:.\Generated_Source\PSoC5/USBUART_1_std.c ****                         }
 367:.\Generated_Source\PSoC5/USBUART_1_std.c ****                         break;
 368:.\Generated_Source\PSoC5/USBUART_1_std.c ****                     
 369:.\Generated_Source\PSoC5/USBUART_1_std.c ****                     default:    /* requestHandled is initialized as FALSE by default */
 370:.\Generated_Source\PSoC5/USBUART_1_std.c ****                         break;
 371:.\Generated_Source\PSoC5/USBUART_1_std.c ****                 }
 372:.\Generated_Source\PSoC5/USBUART_1_std.c ****                 break;
 373:.\Generated_Source\PSoC5/USBUART_1_std.c ****                 
ARM GAS  C:\Users\miyag\AppData\Local\Temp\ccphtVl4.s 			page 8


 374:.\Generated_Source\PSoC5/USBUART_1_std.c ****             default:    /* requestHandled is initialized as FALSE by default */
 375:.\Generated_Source\PSoC5/USBUART_1_std.c ****                 break;
 376:.\Generated_Source\PSoC5/USBUART_1_std.c ****         }
 377:.\Generated_Source\PSoC5/USBUART_1_std.c ****     }
 378:.\Generated_Source\PSoC5/USBUART_1_std.c ****     
 379:.\Generated_Source\PSoC5/USBUART_1_std.c ****     return (requestHandled);
 380:.\Generated_Source\PSoC5/USBUART_1_std.c **** }
 381:.\Generated_Source\PSoC5/USBUART_1_std.c **** 
 382:.\Generated_Source\PSoC5/USBUART_1_std.c **** 
 383:.\Generated_Source\PSoC5/USBUART_1_std.c **** #if defined(USBUART_1_ENABLE_IDSN_STRING)
 384:.\Generated_Source\PSoC5/USBUART_1_std.c ****     /***************************************************************************
 385:.\Generated_Source\PSoC5/USBUART_1_std.c ****     * Function Name: USBUART_1_ReadDieID
 386:.\Generated_Source\PSoC5/USBUART_1_std.c ****     ************************************************************************//**
 387:.\Generated_Source\PSoC5/USBUART_1_std.c ****     *
 388:.\Generated_Source\PSoC5/USBUART_1_std.c ****     *  This routine read Die ID and generate Serial Number string descriptor.
 389:.\Generated_Source\PSoC5/USBUART_1_std.c ****     *
 390:.\Generated_Source\PSoC5/USBUART_1_std.c ****     *  \param descr:  pointer on string descriptor. This string size has to be equal or
 391:.\Generated_Source\PSoC5/USBUART_1_std.c ****     *          greater than USBUART_1_IDSN_DESCR_LENGTH.
 392:.\Generated_Source\PSoC5/USBUART_1_std.c ****     *
 393:.\Generated_Source\PSoC5/USBUART_1_std.c ****     *
 394:.\Generated_Source\PSoC5/USBUART_1_std.c ****     * \reentrant
 395:.\Generated_Source\PSoC5/USBUART_1_std.c ****     *  No.
 396:.\Generated_Source\PSoC5/USBUART_1_std.c ****     *
 397:.\Generated_Source\PSoC5/USBUART_1_std.c ****     ***************************************************************************/
 398:.\Generated_Source\PSoC5/USBUART_1_std.c ****     void USBUART_1_ReadDieID(uint8 descr[]) 
 399:.\Generated_Source\PSoC5/USBUART_1_std.c ****     {
  27              		.loc 1 399 0
  28              		.cfi_startproc
  29              		@ args = 0, pretend = 0, frame = 32
  30              		@ frame_needed = 0, uses_anonymous_args = 0
  31              	.LVL0:
  32 0000 70B5     		push	{r4, r5, r6, lr}
  33              		.cfi_def_cfa_offset 16
  34              		.cfi_offset 4, -16
  35              		.cfi_offset 5, -12
  36              		.cfi_offset 6, -8
  37              		.cfi_offset 14, -4
  38 0002 0446     		mov	r4, r0
 400:.\Generated_Source\PSoC5/USBUART_1_std.c ****         const char8 CYCODE hex[] = "0123456789ABCDEF";
  39              		.loc 1 400 0
  40 0004 194B     		ldr	r3, .L9
 399:.\Generated_Source\PSoC5/USBUART_1_std.c ****         const char8 CYCODE hex[] = "0123456789ABCDEF";
  41              		.loc 1 399 0
  42 0006 88B0     		sub	sp, sp, #32
  43              		.cfi_def_cfa_offset 48
  44              		.loc 1 400 0
  45 0008 03AA     		add	r2, sp, #12
  46 000a 03F11006 		add	r6, r3, #16
  47              	.LVL1:
  48              	.L2:
  49 000e 1546     		mov	r5, r2
  50 0010 1868     		ldr	r0, [r3]	@ unaligned
  51 0012 5968     		ldr	r1, [r3, #4]	@ unaligned
  52 0014 0833     		adds	r3, r3, #8
  53 0016 03C5     		stmia	r5!, {r0, r1}
  54 0018 B342     		cmp	r3, r6
  55 001a 2A46     		mov	r2, r5
ARM GAS  C:\Users\miyag\AppData\Local\Temp\ccphtVl4.s 			page 9


  56 001c F7D1     		bne	.L2
  57 001e 1B78     		ldrb	r3, [r3]	@ zero_extendqisi2
  58 0020 2B70     		strb	r3, [r5]
  59              	.LVL2:
 401:.\Generated_Source\PSoC5/USBUART_1_std.c ****         uint8 i;
 402:.\Generated_Source\PSoC5/USBUART_1_std.c ****         uint8 j = 0u;
 403:.\Generated_Source\PSoC5/USBUART_1_std.c ****         uint8 uniqueId[8u];
 404:.\Generated_Source\PSoC5/USBUART_1_std.c **** 
 405:.\Generated_Source\PSoC5/USBUART_1_std.c ****         if (NULL != descr)
  60              		.loc 1 405 0
  61 0022 04B3     		cbz	r4, .L1
 406:.\Generated_Source\PSoC5/USBUART_1_std.c ****         {
 407:.\Generated_Source\PSoC5/USBUART_1_std.c ****             /* Initialize descriptor header. */
 408:.\Generated_Source\PSoC5/USBUART_1_std.c ****             descr[0u] = USBUART_1_IDSN_DESCR_LENGTH;
  62              		.loc 1 408 0
  63 0024 2223     		movs	r3, #34
  64 0026 2370     		strb	r3, [r4]
 409:.\Generated_Source\PSoC5/USBUART_1_std.c ****             descr[1u] = USBUART_1_DESCR_STRING;
 410:.\Generated_Source\PSoC5/USBUART_1_std.c ****             
 411:.\Generated_Source\PSoC5/USBUART_1_std.c ****             /* Unique ID size is 8 bytes. */
 412:.\Generated_Source\PSoC5/USBUART_1_std.c ****             CyGetUniqueId((uint32 *) uniqueId);
  65              		.loc 1 412 0
  66 0028 01AD     		add	r5, sp, #4
 409:.\Generated_Source\PSoC5/USBUART_1_std.c ****             descr[1u] = USBUART_1_DESCR_STRING;
  67              		.loc 1 409 0
  68 002a 0323     		movs	r3, #3
  69              		.loc 1 412 0
  70 002c 2846     		mov	r0, r5
 409:.\Generated_Source\PSoC5/USBUART_1_std.c ****             descr[1u] = USBUART_1_DESCR_STRING;
  71              		.loc 1 409 0
  72 002e 6370     		strb	r3, [r4, #1]
  73              		.loc 1 412 0
  74 0030 FFF7FEFF 		bl	CyGetUniqueId
  75              	.LVL3:
  76 0034 2046     		mov	r0, r4
  77 0036 0022     		movs	r2, #0
  78              	.LVL4:
  79              	.L4:
 413:.\Generated_Source\PSoC5/USBUART_1_std.c **** 
 414:.\Generated_Source\PSoC5/USBUART_1_std.c ****             /* Fill descriptor with unique device ID. */
 415:.\Generated_Source\PSoC5/USBUART_1_std.c ****             for (i = 2u; i < USBUART_1_IDSN_DESCR_LENGTH; i += 4u)
 416:.\Generated_Source\PSoC5/USBUART_1_std.c ****             {
 417:.\Generated_Source\PSoC5/USBUART_1_std.c ****                 descr[i]      = (uint8) hex[(uniqueId[j] >> 4u)];
  80              		.loc 1 417 0 discriminator 3
  81 0038 AB5C     		ldrb	r3, [r5, r2]	@ zero_extendqisi2
  82 003a 08A9     		add	r1, sp, #32
  83 003c 01EB1311 		add	r1, r1, r3, lsr #4
 418:.\Generated_Source\PSoC5/USBUART_1_std.c ****                 descr[i + 1u] = 0u;
 419:.\Generated_Source\PSoC5/USBUART_1_std.c ****                 descr[i + 2u] = (uint8) hex[(uniqueId[j] & 0x0Fu)];
  84              		.loc 1 419 0 discriminator 3
  85 0040 08AC     		add	r4, sp, #32
  86 0042 03F00F03 		and	r3, r3, #15
 417:.\Generated_Source\PSoC5/USBUART_1_std.c ****                 descr[i + 1u] = 0u;
  87              		.loc 1 417 0 discriminator 3
  88 0046 11F8141C 		ldrb	r1, [r1, #-20]	@ zero_extendqisi2
  89              		.loc 1 419 0 discriminator 3
  90 004a 2344     		add	r3, r3, r4
ARM GAS  C:\Users\miyag\AppData\Local\Temp\ccphtVl4.s 			page 10


  91 004c 13F8143C 		ldrb	r3, [r3, #-20]	@ zero_extendqisi2
  92 0050 0132     		adds	r2, r2, #1
  93              	.LVL5:
 417:.\Generated_Source\PSoC5/USBUART_1_std.c ****                 descr[i + 1u] = 0u;
  94              		.loc 1 417 0 discriminator 3
  95 0052 8170     		strb	r1, [r0, #2]
 415:.\Generated_Source\PSoC5/USBUART_1_std.c ****             {
  96              		.loc 1 415 0 discriminator 3
  97 0054 082A     		cmp	r2, #8
 418:.\Generated_Source\PSoC5/USBUART_1_std.c ****                 descr[i + 1u] = 0u;
  98              		.loc 1 418 0 discriminator 3
  99 0056 4FF00001 		mov	r1, #0
 100 005a C170     		strb	r1, [r0, #3]
 101              		.loc 1 419 0 discriminator 3
 102 005c 0371     		strb	r3, [r0, #4]
 420:.\Generated_Source\PSoC5/USBUART_1_std.c ****                 descr[i + 3u] = 0u;
 103              		.loc 1 420 0 discriminator 3
 104 005e 4171     		strb	r1, [r0, #5]
 105              	.LVL6:
 106 0060 00F10400 		add	r0, r0, #4
 107              	.LVL7:
 415:.\Generated_Source\PSoC5/USBUART_1_std.c ****             {
 108              		.loc 1 415 0 discriminator 3
 109 0064 E8D1     		bne	.L4
 110              	.L1:
 421:.\Generated_Source\PSoC5/USBUART_1_std.c ****                 ++j;
 422:.\Generated_Source\PSoC5/USBUART_1_std.c ****             }
 423:.\Generated_Source\PSoC5/USBUART_1_std.c ****         }
 424:.\Generated_Source\PSoC5/USBUART_1_std.c ****     }
 111              		.loc 1 424 0
 112 0066 08B0     		add	sp, sp, #32
 113              		.cfi_def_cfa_offset 16
 114              		@ sp needed
 115 0068 70BD     		pop	{r4, r5, r6, pc}
 116              	.L10:
 117 006a 00BF     		.align	2
 118              	.L9:
 119 006c 00000000 		.word	.LC0
 120              		.cfi_endproc
 121              	.LFE1:
 122              		.size	USBUART_1_ReadDieID, .-USBUART_1_ReadDieID
 123              		.section	.text.USBUART_1_ConfigReg,"ax",%progbits
 124              		.align	1
 125              		.global	USBUART_1_ConfigReg
 126              		.thumb
 127              		.thumb_func
 128              		.type	USBUART_1_ConfigReg, %function
 129              	USBUART_1_ConfigReg:
 130              	.LFB2:
 425:.\Generated_Source\PSoC5/USBUART_1_std.c **** #endif /* (USBUART_1_ENABLE_IDSN_STRING) */
 426:.\Generated_Source\PSoC5/USBUART_1_std.c **** 
 427:.\Generated_Source\PSoC5/USBUART_1_std.c **** 
 428:.\Generated_Source\PSoC5/USBUART_1_std.c **** /*******************************************************************************
 429:.\Generated_Source\PSoC5/USBUART_1_std.c **** * Function Name: USBUART_1_ConfigReg
 430:.\Generated_Source\PSoC5/USBUART_1_std.c **** ****************************************************************************//**
 431:.\Generated_Source\PSoC5/USBUART_1_std.c **** *
 432:.\Generated_Source\PSoC5/USBUART_1_std.c **** *  This routine configures hardware registers from the variables.
ARM GAS  C:\Users\miyag\AppData\Local\Temp\ccphtVl4.s 			page 11


 433:.\Generated_Source\PSoC5/USBUART_1_std.c **** *  It is called from USBUART_1_Config() function and from RestoreConfig
 434:.\Generated_Source\PSoC5/USBUART_1_std.c **** *  after Wakeup.
 435:.\Generated_Source\PSoC5/USBUART_1_std.c **** *
 436:.\Generated_Source\PSoC5/USBUART_1_std.c **** *******************************************************************************/
 437:.\Generated_Source\PSoC5/USBUART_1_std.c **** void USBUART_1_ConfigReg(void) 
 438:.\Generated_Source\PSoC5/USBUART_1_std.c **** {
 131              		.loc 1 438 0
 132              		.cfi_startproc
 133              		@ args = 0, pretend = 0, frame = 0
 134              		@ frame_needed = 0, uses_anonymous_args = 0
 135              	.LVL8:
 136 0000 F0B5     		push	{r4, r5, r6, r7, lr}
 137              		.cfi_def_cfa_offset 20
 138              		.cfi_offset 4, -20
 139              		.cfi_offset 5, -16
 140              		.cfi_offset 6, -12
 141              		.cfi_offset 7, -8
 142              		.cfi_offset 14, -4
 143              		.loc 1 438 0
 144 0002 0122     		movs	r2, #1
 145              	.LVL9:
 146              	.L15:
 439:.\Generated_Source\PSoC5/USBUART_1_std.c ****     uint8 ep;
 440:.\Generated_Source\PSoC5/USBUART_1_std.c **** 
 441:.\Generated_Source\PSoC5/USBUART_1_std.c **** #if (USBUART_1_EP_MANAGEMENT_DMA_AUTO)
 442:.\Generated_Source\PSoC5/USBUART_1_std.c ****     uint8 epType = 0u;
 443:.\Generated_Source\PSoC5/USBUART_1_std.c **** #endif /* (USBUART_1_EP_MANAGEMENT_DMA_AUTO) */
 444:.\Generated_Source\PSoC5/USBUART_1_std.c **** 
 445:.\Generated_Source\PSoC5/USBUART_1_std.c ****     /* Go thought all endpoints and set hardware configuration */
 446:.\Generated_Source\PSoC5/USBUART_1_std.c ****     for (ep = USBUART_1_EP1; ep < USBUART_1_MAX_EP; ++ep)
 447:.\Generated_Source\PSoC5/USBUART_1_std.c ****     {
 448:.\Generated_Source\PSoC5/USBUART_1_std.c ****         USBUART_1_ARB_EP_BASE.arbEp[ep].epCfg = USBUART_1_ARB_EPX_CFG_DEFAULT;
 449:.\Generated_Source\PSoC5/USBUART_1_std.c ****         
 450:.\Generated_Source\PSoC5/USBUART_1_std.c ****     #if (USBUART_1_EP_MANAGEMENT_DMA)
 451:.\Generated_Source\PSoC5/USBUART_1_std.c ****         /* Enable arbiter endpoint interrupt sources */
 452:.\Generated_Source\PSoC5/USBUART_1_std.c ****         USBUART_1_ARB_EP_BASE.arbEp[ep].epIntEn = USBUART_1_ARB_EPX_INT_MASK;
 453:.\Generated_Source\PSoC5/USBUART_1_std.c ****     #endif /* (USBUART_1_EP_MANAGEMENT_DMA) */
 454:.\Generated_Source\PSoC5/USBUART_1_std.c ****     
 455:.\Generated_Source\PSoC5/USBUART_1_std.c ****         if (USBUART_1_EP[ep].epMode != USBUART_1_MODE_DISABLE)
 147              		.loc 1 455 0
 148 0004 1649     		ldr	r1, .L18
 448:.\Generated_Source\PSoC5/USBUART_1_std.c ****         
 149              		.loc 1 448 0
 150 0006 0C25     		movs	r5, #12
 151 0008 164B     		ldr	r3, .L18+4
 152              		.loc 1 455 0
 153 000a 05FB0216 		mla	r6, r5, r2, r1
 154 000e 1401     		lsls	r4, r2, #4
 155 0010 2344     		add	r3, r3, r4
 448:.\Generated_Source\PSoC5/USBUART_1_std.c ****         
 156              		.loc 1 448 0
 157 0012 1D70     		strb	r5, [r3]
 158 0014 1448     		ldr	r0, .L18+8
 159              		.loc 1 455 0
 160 0016 7779     		ldrb	r7, [r6, #5]	@ zero_extendqisi2
 161 0018 2044     		add	r0, r0, r4
 162 001a 37B1     		cbz	r7, .L12
ARM GAS  C:\Users\miyag\AppData\Local\Temp\ccphtVl4.s 			page 12


 456:.\Generated_Source\PSoC5/USBUART_1_std.c ****         {
 457:.\Generated_Source\PSoC5/USBUART_1_std.c ****             if (0u != (USBUART_1_EP[ep].addr & USBUART_1_DIR_IN))
 163              		.loc 1 457 0
 164 001c 3479     		ldrb	r4, [r6, #4]	@ zero_extendqisi2
 165 001e 2406     		lsls	r4, r4, #24
 166 0020 01D5     		bpl	.L13
 458:.\Generated_Source\PSoC5/USBUART_1_std.c ****             {
 459:.\Generated_Source\PSoC5/USBUART_1_std.c ****                 USBUART_1_SIE_EP_BASE.sieEp[ep].epCr0 = USBUART_1_MODE_NAK_IN;
 167              		.loc 1 459 0
 168 0022 8570     		strb	r5, [r0, #2]
 169 0024 03E0     		b	.L14
 170              	.L13:
 460:.\Generated_Source\PSoC5/USBUART_1_std.c ****                 
 461:.\Generated_Source\PSoC5/USBUART_1_std.c ****             #if (USBUART_1_EP_MANAGEMENT_DMA_AUTO && CY_PSOC4)
 462:.\Generated_Source\PSoC5/USBUART_1_std.c ****                 /* Clear DMA_TERMIN for IN endpoint. */
 463:.\Generated_Source\PSoC5/USBUART_1_std.c ****                 USBUART_1_ARB_EP_BASE.arbEp[ep].epIntEn &= (uint32) ~USBUART_1_ARB_EPX_INT_DMA_TERM
 464:.\Generated_Source\PSoC5/USBUART_1_std.c ****             #endif /* (USBUART_1_EP_MANAGEMENT_DMA_AUTO && CY_PSOC4) */
 465:.\Generated_Source\PSoC5/USBUART_1_std.c ****             }
 466:.\Generated_Source\PSoC5/USBUART_1_std.c ****             else
 467:.\Generated_Source\PSoC5/USBUART_1_std.c ****             {
 468:.\Generated_Source\PSoC5/USBUART_1_std.c ****                 USBUART_1_SIE_EP_BASE.sieEp[ep].epCr0 = USBUART_1_MODE_NAK_OUT;
 171              		.loc 1 468 0
 172 0026 0824     		movs	r4, #8
 173 0028 00E0     		b	.L17
 174              	.L12:
 469:.\Generated_Source\PSoC5/USBUART_1_std.c **** 
 470:.\Generated_Source\PSoC5/USBUART_1_std.c ****             #if (USBUART_1_EP_MANAGEMENT_DMA_AUTO)
 471:.\Generated_Source\PSoC5/USBUART_1_std.c ****                 /* (CY_PSOC4): DMA_TERMIN for OUT endpoint is set above. */
 472:.\Generated_Source\PSoC5/USBUART_1_std.c ****                 
 473:.\Generated_Source\PSoC5/USBUART_1_std.c ****                 /* Prepare endpoint type mask. */
 474:.\Generated_Source\PSoC5/USBUART_1_std.c ****                 epType |= (uint8) (0x01u << (ep - USBUART_1_EP1));
 475:.\Generated_Source\PSoC5/USBUART_1_std.c ****             #endif /* (USBUART_1_EP_MANAGEMENT_DMA_AUTO) */
 476:.\Generated_Source\PSoC5/USBUART_1_std.c ****             }
 477:.\Generated_Source\PSoC5/USBUART_1_std.c ****         }
 478:.\Generated_Source\PSoC5/USBUART_1_std.c ****         else
 479:.\Generated_Source\PSoC5/USBUART_1_std.c ****         {
 480:.\Generated_Source\PSoC5/USBUART_1_std.c ****             USBUART_1_SIE_EP_BASE.sieEp[ep].epCr0 = USBUART_1_MODE_STALL_DATA_EP;
 175              		.loc 1 480 0
 176 002a 8024     		movs	r4, #128
 177              	.L17:
 178 002c 8470     		strb	r4, [r0, #2]
 179              	.L14:
 481:.\Generated_Source\PSoC5/USBUART_1_std.c ****         }
 482:.\Generated_Source\PSoC5/USBUART_1_std.c ****         
 483:.\Generated_Source\PSoC5/USBUART_1_std.c ****     #if (!USBUART_1_EP_MANAGEMENT_DMA_AUTO)
 484:.\Generated_Source\PSoC5/USBUART_1_std.c ****         #if (CY_PSOC4)
 485:.\Generated_Source\PSoC5/USBUART_1_std.c ****             USBUART_1_ARB_EP16_BASE.arbEp[ep].rwRa16  = (uint32) USBUART_1_EP[ep].buffOffset;
 486:.\Generated_Source\PSoC5/USBUART_1_std.c ****             USBUART_1_ARB_EP16_BASE.arbEp[ep].rwWa16  = (uint32) USBUART_1_EP[ep].buffOffset;
 487:.\Generated_Source\PSoC5/USBUART_1_std.c ****         #else
 488:.\Generated_Source\PSoC5/USBUART_1_std.c ****             USBUART_1_ARB_EP_BASE.arbEp[ep].rwRa    = LO8(USBUART_1_EP[ep].buffOffset);
 180              		.loc 1 488 0 discriminator 2
 181 002e 0C20     		movs	r0, #12
 182 0030 00FB0211 		mla	r1, r0, r2, r1
 183 0034 C888     		ldrh	r0, [r1, #6]
 184 0036 0132     		adds	r2, r2, #1
 185              	.LVL10:
 186 0038 C0B2     		uxtb	r0, r0
ARM GAS  C:\Users\miyag\AppData\Local\Temp\ccphtVl4.s 			page 13


 187 003a 9871     		strb	r0, [r3, #6]
 489:.\Generated_Source\PSoC5/USBUART_1_std.c ****             USBUART_1_ARB_EP_BASE.arbEp[ep].rwRaMsb = HI8(USBUART_1_EP[ep].buffOffset);
 188              		.loc 1 489 0 discriminator 2
 189 003c C888     		ldrh	r0, [r1, #6]
 446:.\Generated_Source\PSoC5/USBUART_1_std.c ****     {
 190              		.loc 1 446 0 discriminator 2
 191 003e 092A     		cmp	r2, #9
 192              		.loc 1 489 0 discriminator 2
 193 0040 C0F30720 		ubfx	r0, r0, #8, #8
 194 0044 D871     		strb	r0, [r3, #7]
 490:.\Generated_Source\PSoC5/USBUART_1_std.c ****             USBUART_1_ARB_EP_BASE.arbEp[ep].rwWa    = LO8(USBUART_1_EP[ep].buffOffset);
 195              		.loc 1 490 0 discriminator 2
 196 0046 C888     		ldrh	r0, [r1, #6]
 197 0048 C0B2     		uxtb	r0, r0
 198 004a 1871     		strb	r0, [r3, #4]
 491:.\Generated_Source\PSoC5/USBUART_1_std.c ****             USBUART_1_ARB_EP_BASE.arbEp[ep].rwWaMsb = HI8(USBUART_1_EP[ep].buffOffset);
 199              		.loc 1 491 0 discriminator 2
 200 004c C988     		ldrh	r1, [r1, #6]
 201 004e C1F30721 		ubfx	r1, r1, #8, #8
 202 0052 5971     		strb	r1, [r3, #5]
 446:.\Generated_Source\PSoC5/USBUART_1_std.c ****     {
 203              		.loc 1 446 0 discriminator 2
 204 0054 D6D1     		bne	.L15
 492:.\Generated_Source\PSoC5/USBUART_1_std.c ****         #endif /* (CY_PSOC4) */
 493:.\Generated_Source\PSoC5/USBUART_1_std.c ****     #endif /* (!USBUART_1_EP_MANAGEMENT_DMA_AUTO) */
 494:.\Generated_Source\PSoC5/USBUART_1_std.c ****     }
 495:.\Generated_Source\PSoC5/USBUART_1_std.c **** 
 496:.\Generated_Source\PSoC5/USBUART_1_std.c **** #if (USBUART_1_EP_MANAGEMENT_DMA_AUTO)
 497:.\Generated_Source\PSoC5/USBUART_1_std.c ****      /* BUF_SIZE depend on DMA_THRESS value:0x55-32 bytes  0x44-16 bytes 0x33-8 bytes 0x22-4 bytes 
 498:.\Generated_Source\PSoC5/USBUART_1_std.c ****     USBUART_1_BUF_SIZE_REG = USBUART_1_DMA_BUF_SIZE;
 499:.\Generated_Source\PSoC5/USBUART_1_std.c **** 
 500:.\Generated_Source\PSoC5/USBUART_1_std.c ****     /* Configure DMA burst threshold */
 501:.\Generated_Source\PSoC5/USBUART_1_std.c **** #if (CY_PSOC4)
 502:.\Generated_Source\PSoC5/USBUART_1_std.c ****     USBUART_1_DMA_THRES16_REG   = USBUART_1_DMA_BYTES_PER_BURST;
 503:.\Generated_Source\PSoC5/USBUART_1_std.c **** #else
 504:.\Generated_Source\PSoC5/USBUART_1_std.c ****     USBUART_1_DMA_THRES_REG     = USBUART_1_DMA_BYTES_PER_BURST;
 505:.\Generated_Source\PSoC5/USBUART_1_std.c ****     USBUART_1_DMA_THRES_MSB_REG = 0u;
 506:.\Generated_Source\PSoC5/USBUART_1_std.c **** #endif /* (CY_PSOC4) */
 507:.\Generated_Source\PSoC5/USBUART_1_std.c ****     USBUART_1_EP_ACTIVE_REG = USBUART_1_DEFAULT_ARB_INT_EN;
 508:.\Generated_Source\PSoC5/USBUART_1_std.c ****     USBUART_1_EP_TYPE_REG   = epType;
 509:.\Generated_Source\PSoC5/USBUART_1_std.c ****     
 510:.\Generated_Source\PSoC5/USBUART_1_std.c ****     /* Cfg_cmp bit set to 1 once configuration is complete. */
 511:.\Generated_Source\PSoC5/USBUART_1_std.c ****     /* Lock arbiter configtuation */
 512:.\Generated_Source\PSoC5/USBUART_1_std.c ****     USBUART_1_ARB_CFG_REG |= (uint8)  USBUART_1_ARB_CFG_CFG_CMP;
 513:.\Generated_Source\PSoC5/USBUART_1_std.c ****     /* Cfg_cmp bit set to 0 during configuration of PFSUSB Registers. */
 514:.\Generated_Source\PSoC5/USBUART_1_std.c ****     USBUART_1_ARB_CFG_REG &= (uint8) ~USBUART_1_ARB_CFG_CFG_CMP;
 515:.\Generated_Source\PSoC5/USBUART_1_std.c **** 
 516:.\Generated_Source\PSoC5/USBUART_1_std.c **** #endif /* (USBUART_1_EP_MANAGEMENT_DMA_AUTO) */
 517:.\Generated_Source\PSoC5/USBUART_1_std.c **** 
 518:.\Generated_Source\PSoC5/USBUART_1_std.c ****     /* Enable interrupt SIE interurpt source from EP0-EP1 */
 519:.\Generated_Source\PSoC5/USBUART_1_std.c ****     USBUART_1_SIE_EP_INT_EN_REG = (uint8) USBUART_1_DEFAULT_SIE_EP_INT_EN;
 205              		.loc 1 519 0
 206 0056 054B     		ldr	r3, .L18+12
 207 0058 FF22     		movs	r2, #255
 208 005a 1A70     		strb	r2, [r3]
 209 005c F0BD     		pop	{r4, r5, r6, r7, pc}
 210              	.L19:
ARM GAS  C:\Users\miyag\AppData\Local\Temp\ccphtVl4.s 			page 14


 211 005e 00BF     		.align	2
 212              	.L18:
 213 0060 00000000 		.word	USBUART_1_EP
 214 0064 70600040 		.word	1073766512
 215 0068 FC5F0040 		.word	1073766396
 216 006c 0A600040 		.word	1073766410
 217              		.cfi_endproc
 218              	.LFE2:
 219              		.size	USBUART_1_ConfigReg, .-USBUART_1_ConfigReg
 220              		.section	.text.USBUART_1_EpStateInit,"ax",%progbits
 221              		.align	1
 222              		.global	USBUART_1_EpStateInit
 223              		.thumb
 224              		.thumb_func
 225              		.type	USBUART_1_EpStateInit, %function
 226              	USBUART_1_EpStateInit:
 227              	.LFB3:
 520:.\Generated_Source\PSoC5/USBUART_1_std.c **** }
 521:.\Generated_Source\PSoC5/USBUART_1_std.c **** 
 522:.\Generated_Source\PSoC5/USBUART_1_std.c **** 
 523:.\Generated_Source\PSoC5/USBUART_1_std.c **** /*******************************************************************************
 524:.\Generated_Source\PSoC5/USBUART_1_std.c **** * Function Name: USBUART_1_EpStateInit
 525:.\Generated_Source\PSoC5/USBUART_1_std.c **** ****************************************************************************//**
 526:.\Generated_Source\PSoC5/USBUART_1_std.c **** *
 527:.\Generated_Source\PSoC5/USBUART_1_std.c **** *  This routine initialize state of Data end points based of its type: 
 528:.\Generated_Source\PSoC5/USBUART_1_std.c **** *   IN  - USBUART_1_IN_BUFFER_EMPTY (USBUART_1_EVENT_PENDING)
 529:.\Generated_Source\PSoC5/USBUART_1_std.c **** *   OUT - USBUART_1_OUT_BUFFER_EMPTY (USBUART_1_NO_EVENT_PENDING)
 530:.\Generated_Source\PSoC5/USBUART_1_std.c **** *
 531:.\Generated_Source\PSoC5/USBUART_1_std.c **** *******************************************************************************/
 532:.\Generated_Source\PSoC5/USBUART_1_std.c **** void USBUART_1_EpStateInit(void) 
 533:.\Generated_Source\PSoC5/USBUART_1_std.c **** {
 228              		.loc 1 533 0
 229              		.cfi_startproc
 230              		@ args = 0, pretend = 0, frame = 0
 231              		@ frame_needed = 0, uses_anonymous_args = 0
 232              		@ link register save eliminated.
 233              	.LVL11:
 234              		.loc 1 533 0
 235 0000 0122     		movs	r2, #1
 236              	.LVL12:
 237              	.L23:
 534:.\Generated_Source\PSoC5/USBUART_1_std.c ****     uint8 i;
 535:.\Generated_Source\PSoC5/USBUART_1_std.c **** 
 536:.\Generated_Source\PSoC5/USBUART_1_std.c ****     for (i = USBUART_1_EP1; i < USBUART_1_MAX_EP; i++)
 537:.\Generated_Source\PSoC5/USBUART_1_std.c ****     { 
 538:.\Generated_Source\PSoC5/USBUART_1_std.c ****         if (0u != (USBUART_1_EP[i].addr & USBUART_1_DIR_IN))
 238              		.loc 1 538 0
 239 0002 0749     		ldr	r1, .L26
 240 0004 0C23     		movs	r3, #12
 241 0006 03FB0213 		mla	r3, r3, r2, r1
 242 000a 1979     		ldrb	r1, [r3, #4]	@ zero_extendqisi2
 243 000c 0132     		adds	r2, r2, #1
 244              	.LVL13:
 245 000e 0906     		lsls	r1, r1, #24
 539:.\Generated_Source\PSoC5/USBUART_1_std.c ****         {
 540:.\Generated_Source\PSoC5/USBUART_1_std.c ****             /* IN Endpoint */
 541:.\Generated_Source\PSoC5/USBUART_1_std.c ****             USBUART_1_EP[i].apiEpState = USBUART_1_EVENT_PENDING;
ARM GAS  C:\Users\miyag\AppData\Local\Temp\ccphtVl4.s 			page 15


 246              		.loc 1 541 0
 247 0010 4CBF     		ite	mi
 248 0012 0121     		movmi	r1, #1
 542:.\Generated_Source\PSoC5/USBUART_1_std.c ****         }
 543:.\Generated_Source\PSoC5/USBUART_1_std.c ****         else
 544:.\Generated_Source\PSoC5/USBUART_1_std.c ****         {
 545:.\Generated_Source\PSoC5/USBUART_1_std.c ****             /* OUT Endpoint */
 546:.\Generated_Source\PSoC5/USBUART_1_std.c ****             USBUART_1_EP[i].apiEpState = USBUART_1_NO_EVENT_PENDING;
 249              		.loc 1 546 0
 250 0014 0021     		movpl	r1, #0
 536:.\Generated_Source\PSoC5/USBUART_1_std.c ****     { 
 251              		.loc 1 536 0
 252 0016 092A     		cmp	r2, #9
 253              		.loc 1 546 0
 254 0018 5970     		strb	r1, [r3, #1]
 536:.\Generated_Source\PSoC5/USBUART_1_std.c ****     { 
 255              		.loc 1 536 0
 256 001a F2D1     		bne	.L23
 547:.\Generated_Source\PSoC5/USBUART_1_std.c ****         }
 548:.\Generated_Source\PSoC5/USBUART_1_std.c ****     }
 549:.\Generated_Source\PSoC5/USBUART_1_std.c ****                     
 550:.\Generated_Source\PSoC5/USBUART_1_std.c **** }
 257              		.loc 1 550 0
 258 001c 7047     		bx	lr
 259              	.L27:
 260 001e 00BF     		.align	2
 261              	.L26:
 262 0020 00000000 		.word	USBUART_1_EP
 263              		.cfi_endproc
 264              	.LFE3:
 265              		.size	USBUART_1_EpStateInit, .-USBUART_1_EpStateInit
 266              		.section	.text.USBUART_1_GetConfigTablePtr,"ax",%progbits
 267              		.align	1
 268              		.global	USBUART_1_GetConfigTablePtr
 269              		.thumb
 270              		.thumb_func
 271              		.type	USBUART_1_GetConfigTablePtr, %function
 272              	USBUART_1_GetConfigTablePtr:
 273              	.LFB6:
 551:.\Generated_Source\PSoC5/USBUART_1_std.c **** 
 552:.\Generated_Source\PSoC5/USBUART_1_std.c **** 
 553:.\Generated_Source\PSoC5/USBUART_1_std.c **** /*******************************************************************************
 554:.\Generated_Source\PSoC5/USBUART_1_std.c **** * Function Name: USBUART_1_Config
 555:.\Generated_Source\PSoC5/USBUART_1_std.c **** ****************************************************************************//**
 556:.\Generated_Source\PSoC5/USBUART_1_std.c **** *
 557:.\Generated_Source\PSoC5/USBUART_1_std.c **** *  This routine configures endpoints for the entire configuration by scanning
 558:.\Generated_Source\PSoC5/USBUART_1_std.c **** *  the configuration descriptor.
 559:.\Generated_Source\PSoC5/USBUART_1_std.c **** *
 560:.\Generated_Source\PSoC5/USBUART_1_std.c **** *  \param clearAltSetting: It configures the bAlternateSetting 0 for each interface.
 561:.\Generated_Source\PSoC5/USBUART_1_std.c **** *
 562:.\Generated_Source\PSoC5/USBUART_1_std.c **** * USBUART_1_interfaceClass - Initialized class array for each interface.
 563:.\Generated_Source\PSoC5/USBUART_1_std.c **** *   It is used for handling Class specific requests depend on interface class.
 564:.\Generated_Source\PSoC5/USBUART_1_std.c **** *   Different classes in multiple Alternate settings does not supported.
 565:.\Generated_Source\PSoC5/USBUART_1_std.c **** *
 566:.\Generated_Source\PSoC5/USBUART_1_std.c **** * \reentrant
 567:.\Generated_Source\PSoC5/USBUART_1_std.c **** *  No.
 568:.\Generated_Source\PSoC5/USBUART_1_std.c **** *
ARM GAS  C:\Users\miyag\AppData\Local\Temp\ccphtVl4.s 			page 16


 569:.\Generated_Source\PSoC5/USBUART_1_std.c **** *******************************************************************************/
 570:.\Generated_Source\PSoC5/USBUART_1_std.c **** void USBUART_1_Config(uint8 clearAltSetting) 
 571:.\Generated_Source\PSoC5/USBUART_1_std.c **** {
 572:.\Generated_Source\PSoC5/USBUART_1_std.c ****     uint8 ep;
 573:.\Generated_Source\PSoC5/USBUART_1_std.c ****     uint8 curEp;
 574:.\Generated_Source\PSoC5/USBUART_1_std.c ****     uint8 i;
 575:.\Generated_Source\PSoC5/USBUART_1_std.c ****     uint8 epType;
 576:.\Generated_Source\PSoC5/USBUART_1_std.c ****     const uint8 *pDescr;
 577:.\Generated_Source\PSoC5/USBUART_1_std.c ****     
 578:.\Generated_Source\PSoC5/USBUART_1_std.c ****     #if (!USBUART_1_EP_MANAGEMENT_DMA_AUTO)
 579:.\Generated_Source\PSoC5/USBUART_1_std.c ****         uint16 buffCount = 0u;
 580:.\Generated_Source\PSoC5/USBUART_1_std.c ****     #endif /* (!USBUART_1_EP_MANAGEMENT_DMA_AUTO) */
 581:.\Generated_Source\PSoC5/USBUART_1_std.c **** 
 582:.\Generated_Source\PSoC5/USBUART_1_std.c ****     const T_USBUART_1_LUT CYCODE *pTmp;
 583:.\Generated_Source\PSoC5/USBUART_1_std.c ****     const T_USBUART_1_EP_SETTINGS_BLOCK CYCODE *pEP;
 584:.\Generated_Source\PSoC5/USBUART_1_std.c **** 
 585:.\Generated_Source\PSoC5/USBUART_1_std.c ****     /* Clear endpoints settings */
 586:.\Generated_Source\PSoC5/USBUART_1_std.c ****     for (ep = 0u; ep < USBUART_1_MAX_EP; ++ep)
 587:.\Generated_Source\PSoC5/USBUART_1_std.c ****     {
 588:.\Generated_Source\PSoC5/USBUART_1_std.c ****         USBUART_1_EP[ep].attrib     = 0u;
 589:.\Generated_Source\PSoC5/USBUART_1_std.c ****         USBUART_1_EP[ep].hwEpState  = 0u;
 590:.\Generated_Source\PSoC5/USBUART_1_std.c ****         USBUART_1_EP[ep].epToggle   = 0u;
 591:.\Generated_Source\PSoC5/USBUART_1_std.c ****         USBUART_1_EP[ep].bufferSize = 0u;
 592:.\Generated_Source\PSoC5/USBUART_1_std.c ****         USBUART_1_EP[ep].interface  = 0u;
 593:.\Generated_Source\PSoC5/USBUART_1_std.c ****         USBUART_1_EP[ep].apiEpState = USBUART_1_NO_EVENT_PENDING;
 594:.\Generated_Source\PSoC5/USBUART_1_std.c ****         USBUART_1_EP[ep].epMode     = USBUART_1_MODE_DISABLE;   
 595:.\Generated_Source\PSoC5/USBUART_1_std.c ****     }
 596:.\Generated_Source\PSoC5/USBUART_1_std.c **** 
 597:.\Generated_Source\PSoC5/USBUART_1_std.c ****     /* Clear Alternate settings for all interfaces. */
 598:.\Generated_Source\PSoC5/USBUART_1_std.c ****     if (0u != clearAltSetting)
 599:.\Generated_Source\PSoC5/USBUART_1_std.c ****     {
 600:.\Generated_Source\PSoC5/USBUART_1_std.c ****         for (i = 0u; i < USBUART_1_MAX_INTERFACES_NUMBER; ++i)
 601:.\Generated_Source\PSoC5/USBUART_1_std.c ****         {
 602:.\Generated_Source\PSoC5/USBUART_1_std.c ****             USBUART_1_interfaceSetting[i]     = 0u;
 603:.\Generated_Source\PSoC5/USBUART_1_std.c ****             USBUART_1_interfaceSettingLast[i] = 0u;
 604:.\Generated_Source\PSoC5/USBUART_1_std.c ****         }
 605:.\Generated_Source\PSoC5/USBUART_1_std.c ****     }
 606:.\Generated_Source\PSoC5/USBUART_1_std.c **** 
 607:.\Generated_Source\PSoC5/USBUART_1_std.c ****     /* Init Endpoints and Device Status if configured */
 608:.\Generated_Source\PSoC5/USBUART_1_std.c ****     if (USBUART_1_configuration > 0u)
 609:.\Generated_Source\PSoC5/USBUART_1_std.c ****     {
 610:.\Generated_Source\PSoC5/USBUART_1_std.c ****         #if defined(USBUART_1_ENABLE_CDC_CLASS)
 611:.\Generated_Source\PSoC5/USBUART_1_std.c ****             uint8 cdcComNums = 0u;
 612:.\Generated_Source\PSoC5/USBUART_1_std.c ****         #endif  /* (USBUART_1_ENABLE_CDC_CLASS) */  
 613:.\Generated_Source\PSoC5/USBUART_1_std.c **** 
 614:.\Generated_Source\PSoC5/USBUART_1_std.c ****         pTmp = USBUART_1_GetConfigTablePtr(USBUART_1_configuration - 1u);
 615:.\Generated_Source\PSoC5/USBUART_1_std.c ****         
 616:.\Generated_Source\PSoC5/USBUART_1_std.c ****         /* Set Power status for current configuration */
 617:.\Generated_Source\PSoC5/USBUART_1_std.c ****         pDescr = (const uint8 *)pTmp->p_list;
 618:.\Generated_Source\PSoC5/USBUART_1_std.c ****         if ((pDescr[USBUART_1_CONFIG_DESCR_ATTRIB] & USBUART_1_CONFIG_DESCR_ATTRIB_SELF_POWERED) !=
 619:.\Generated_Source\PSoC5/USBUART_1_std.c ****         {
 620:.\Generated_Source\PSoC5/USBUART_1_std.c ****             USBUART_1_deviceStatus |= (uint8)  USBUART_1_DEVICE_STATUS_SELF_POWERED;
 621:.\Generated_Source\PSoC5/USBUART_1_std.c ****         }
 622:.\Generated_Source\PSoC5/USBUART_1_std.c ****         else
 623:.\Generated_Source\PSoC5/USBUART_1_std.c ****         {
 624:.\Generated_Source\PSoC5/USBUART_1_std.c ****             USBUART_1_deviceStatus &= (uint8) ~USBUART_1_DEVICE_STATUS_SELF_POWERED;
 625:.\Generated_Source\PSoC5/USBUART_1_std.c ****         }
ARM GAS  C:\Users\miyag\AppData\Local\Temp\ccphtVl4.s 			page 17


 626:.\Generated_Source\PSoC5/USBUART_1_std.c ****         
 627:.\Generated_Source\PSoC5/USBUART_1_std.c ****         /* Move to next element */
 628:.\Generated_Source\PSoC5/USBUART_1_std.c ****         pTmp = &pTmp[1u];
 629:.\Generated_Source\PSoC5/USBUART_1_std.c ****         ep = pTmp->c;  /* For this table, c is the number of endpoints configurations  */
 630:.\Generated_Source\PSoC5/USBUART_1_std.c **** 
 631:.\Generated_Source\PSoC5/USBUART_1_std.c ****         #if (USBUART_1_EP_MANAGEMENT_MANUAL && USBUART_1_EP_ALLOC_DYNAMIC)
 632:.\Generated_Source\PSoC5/USBUART_1_std.c ****             /* Configure for dynamic EP memory allocation */
 633:.\Generated_Source\PSoC5/USBUART_1_std.c ****             /* p_list points the endpoint setting table. */
 634:.\Generated_Source\PSoC5/USBUART_1_std.c ****             pEP = (T_USBUART_1_EP_SETTINGS_BLOCK *) pTmp->p_list;
 635:.\Generated_Source\PSoC5/USBUART_1_std.c ****             
 636:.\Generated_Source\PSoC5/USBUART_1_std.c ****             for (i = 0u; i < ep; i++)
 637:.\Generated_Source\PSoC5/USBUART_1_std.c ****             {     
 638:.\Generated_Source\PSoC5/USBUART_1_std.c ****                 /* Compare current Alternate setting with EP Alt */
 639:.\Generated_Source\PSoC5/USBUART_1_std.c ****                 if (USBUART_1_interfaceSetting[pEP->interface] == pEP->altSetting)
 640:.\Generated_Source\PSoC5/USBUART_1_std.c ****                 {                                                          
 641:.\Generated_Source\PSoC5/USBUART_1_std.c ****                     curEp  = pEP->addr & USBUART_1_DIR_UNUSED;
 642:.\Generated_Source\PSoC5/USBUART_1_std.c ****                     epType = pEP->attributes & USBUART_1_EP_TYPE_MASK;
 643:.\Generated_Source\PSoC5/USBUART_1_std.c ****                     
 644:.\Generated_Source\PSoC5/USBUART_1_std.c ****                     USBUART_1_EP[curEp].addr       = pEP->addr;
 645:.\Generated_Source\PSoC5/USBUART_1_std.c ****                     USBUART_1_EP[curEp].attrib     = pEP->attributes;
 646:.\Generated_Source\PSoC5/USBUART_1_std.c ****                     USBUART_1_EP[curEp].bufferSize = pEP->bufferSize;
 647:.\Generated_Source\PSoC5/USBUART_1_std.c **** 
 648:.\Generated_Source\PSoC5/USBUART_1_std.c ****                     if (0u != (pEP->addr & USBUART_1_DIR_IN))
 649:.\Generated_Source\PSoC5/USBUART_1_std.c ****                     {
 650:.\Generated_Source\PSoC5/USBUART_1_std.c ****                         /* IN Endpoint */
 651:.\Generated_Source\PSoC5/USBUART_1_std.c ****                         USBUART_1_EP[curEp].epMode     = USBUART_1_GET_ACTIVE_IN_EP_CR0_MODE(epType
 652:.\Generated_Source\PSoC5/USBUART_1_std.c ****                         USBUART_1_EP[curEp].apiEpState = USBUART_1_EVENT_PENDING;
 653:.\Generated_Source\PSoC5/USBUART_1_std.c ****                     
 654:.\Generated_Source\PSoC5/USBUART_1_std.c ****                     #if (defined(USBUART_1_ENABLE_MIDI_STREAMING) && (USBUART_1_MIDI_IN_BUFF_SIZE >
 655:.\Generated_Source\PSoC5/USBUART_1_std.c ****                         if ((pEP->bMisc == USBUART_1_CLASS_AUDIO) && (epType == USBUART_1_EP_TYPE_B
 656:.\Generated_Source\PSoC5/USBUART_1_std.c ****                         {
 657:.\Generated_Source\PSoC5/USBUART_1_std.c ****                             USBUART_1_midi_in_ep = curEp;
 658:.\Generated_Source\PSoC5/USBUART_1_std.c ****                         }
 659:.\Generated_Source\PSoC5/USBUART_1_std.c ****                     #endif  /* (USBUART_1_ENABLE_MIDI_STREAMING) */
 660:.\Generated_Source\PSoC5/USBUART_1_std.c ****                     }
 661:.\Generated_Source\PSoC5/USBUART_1_std.c ****                     else
 662:.\Generated_Source\PSoC5/USBUART_1_std.c ****                     {
 663:.\Generated_Source\PSoC5/USBUART_1_std.c ****                         /* OUT Endpoint */
 664:.\Generated_Source\PSoC5/USBUART_1_std.c ****                         USBUART_1_EP[curEp].epMode     = USBUART_1_GET_ACTIVE_OUT_EP_CR0_MODE(epTyp
 665:.\Generated_Source\PSoC5/USBUART_1_std.c ****                         USBUART_1_EP[curEp].apiEpState = USBUART_1_NO_EVENT_PENDING;
 666:.\Generated_Source\PSoC5/USBUART_1_std.c ****                         
 667:.\Generated_Source\PSoC5/USBUART_1_std.c ****                     #if (defined(USBUART_1_ENABLE_MIDI_STREAMING) && (USBUART_1_MIDI_OUT_BUFF_SIZE 
 668:.\Generated_Source\PSoC5/USBUART_1_std.c ****                         if ((pEP->bMisc == USBUART_1_CLASS_AUDIO) && (epType == USBUART_1_EP_TYPE_B
 669:.\Generated_Source\PSoC5/USBUART_1_std.c ****                         {
 670:.\Generated_Source\PSoC5/USBUART_1_std.c ****                             USBUART_1_midi_out_ep = curEp;
 671:.\Generated_Source\PSoC5/USBUART_1_std.c ****                         }
 672:.\Generated_Source\PSoC5/USBUART_1_std.c ****                     #endif  /* (USBUART_1_ENABLE_MIDI_STREAMING) */
 673:.\Generated_Source\PSoC5/USBUART_1_std.c ****                     }
 674:.\Generated_Source\PSoC5/USBUART_1_std.c **** 
 675:.\Generated_Source\PSoC5/USBUART_1_std.c ****                 #if(defined (USBUART_1_ENABLE_CDC_CLASS))
 676:.\Generated_Source\PSoC5/USBUART_1_std.c ****                     if((pEP->bMisc == USBUART_1_CLASS_CDC_DATA) ||(pEP->bMisc == USBUART_1_CLASS_CD
 677:.\Generated_Source\PSoC5/USBUART_1_std.c ****                     {
 678:.\Generated_Source\PSoC5/USBUART_1_std.c ****                         cdcComNums = USBUART_1_Cdc_EpInit(pEP, curEp, cdcComNums);
 679:.\Generated_Source\PSoC5/USBUART_1_std.c ****                     }
 680:.\Generated_Source\PSoC5/USBUART_1_std.c ****                 #endif  /* (USBUART_1_ENABLE_CDC_CLASS) */
 681:.\Generated_Source\PSoC5/USBUART_1_std.c ****                 }
 682:.\Generated_Source\PSoC5/USBUART_1_std.c ****                 
ARM GAS  C:\Users\miyag\AppData\Local\Temp\ccphtVl4.s 			page 18


 683:.\Generated_Source\PSoC5/USBUART_1_std.c ****                 pEP = &pEP[1u];
 684:.\Generated_Source\PSoC5/USBUART_1_std.c ****             }
 685:.\Generated_Source\PSoC5/USBUART_1_std.c ****             
 686:.\Generated_Source\PSoC5/USBUART_1_std.c ****         #else
 687:.\Generated_Source\PSoC5/USBUART_1_std.c ****             for (i = USBUART_1_EP1; i < USBUART_1_MAX_EP; ++i)
 688:.\Generated_Source\PSoC5/USBUART_1_std.c ****             {
 689:.\Generated_Source\PSoC5/USBUART_1_std.c ****                 /* p_list points the endpoint setting table. */
 690:.\Generated_Source\PSoC5/USBUART_1_std.c ****                 pEP = (const T_USBUART_1_EP_SETTINGS_BLOCK CYCODE *) pTmp->p_list;
 691:.\Generated_Source\PSoC5/USBUART_1_std.c ****                 /* Find max length for each EP and select it (length could be different in differen
 692:.\Generated_Source\PSoC5/USBUART_1_std.c ****                 /* but other settings should be correct with regards to Interface alt Setting */
 693:.\Generated_Source\PSoC5/USBUART_1_std.c ****                 
 694:.\Generated_Source\PSoC5/USBUART_1_std.c ****                 for (curEp = 0u; curEp < ep; ++curEp)
 695:.\Generated_Source\PSoC5/USBUART_1_std.c ****                 {
 696:.\Generated_Source\PSoC5/USBUART_1_std.c ****                     if (i == (pEP->addr & USBUART_1_DIR_UNUSED))
 697:.\Generated_Source\PSoC5/USBUART_1_std.c ****                     {
 698:.\Generated_Source\PSoC5/USBUART_1_std.c ****                         /* Compare endpoint buffers size with current size to find greater. */
 699:.\Generated_Source\PSoC5/USBUART_1_std.c ****                         if (USBUART_1_EP[i].bufferSize < pEP->bufferSize)
 700:.\Generated_Source\PSoC5/USBUART_1_std.c ****                         {
 701:.\Generated_Source\PSoC5/USBUART_1_std.c ****                             USBUART_1_EP[i].bufferSize = pEP->bufferSize;
 702:.\Generated_Source\PSoC5/USBUART_1_std.c ****                         }
 703:.\Generated_Source\PSoC5/USBUART_1_std.c ****                         
 704:.\Generated_Source\PSoC5/USBUART_1_std.c ****                         /* Compare current Alternate setting with EP Alt */
 705:.\Generated_Source\PSoC5/USBUART_1_std.c ****                         if (USBUART_1_interfaceSetting[pEP->interface] == pEP->altSetting)
 706:.\Generated_Source\PSoC5/USBUART_1_std.c ****                         {                            
 707:.\Generated_Source\PSoC5/USBUART_1_std.c ****                             USBUART_1_EP[i].addr = pEP->addr;
 708:.\Generated_Source\PSoC5/USBUART_1_std.c ****                             USBUART_1_EP[i].attrib = pEP->attributes;
 709:.\Generated_Source\PSoC5/USBUART_1_std.c ****                             
 710:.\Generated_Source\PSoC5/USBUART_1_std.c ****                             epType = pEP->attributes & USBUART_1_EP_TYPE_MASK;
 711:.\Generated_Source\PSoC5/USBUART_1_std.c ****                             
 712:.\Generated_Source\PSoC5/USBUART_1_std.c ****                             if (0u != (pEP->addr & USBUART_1_DIR_IN))
 713:.\Generated_Source\PSoC5/USBUART_1_std.c ****                             {
 714:.\Generated_Source\PSoC5/USBUART_1_std.c ****                                 /* IN Endpoint */
 715:.\Generated_Source\PSoC5/USBUART_1_std.c ****                                 USBUART_1_EP[i].epMode     = USBUART_1_GET_ACTIVE_IN_EP_CR0_MODE(ep
 716:.\Generated_Source\PSoC5/USBUART_1_std.c ****                                 USBUART_1_EP[i].apiEpState = USBUART_1_EVENT_PENDING;
 717:.\Generated_Source\PSoC5/USBUART_1_std.c ****                                 
 718:.\Generated_Source\PSoC5/USBUART_1_std.c ****                             #if (defined(USBUART_1_ENABLE_MIDI_STREAMING) && (USBUART_1_MIDI_IN_BUF
 719:.\Generated_Source\PSoC5/USBUART_1_std.c ****                                 if ((pEP->bMisc == USBUART_1_CLASS_AUDIO) && (epType == USBUART_1_E
 720:.\Generated_Source\PSoC5/USBUART_1_std.c ****                                 {
 721:.\Generated_Source\PSoC5/USBUART_1_std.c ****                                     USBUART_1_midi_in_ep = i;
 722:.\Generated_Source\PSoC5/USBUART_1_std.c ****                                 }
 723:.\Generated_Source\PSoC5/USBUART_1_std.c ****                             #endif  /* (USBUART_1_ENABLE_MIDI_STREAMING) */
 724:.\Generated_Source\PSoC5/USBUART_1_std.c ****                             }
 725:.\Generated_Source\PSoC5/USBUART_1_std.c ****                             else
 726:.\Generated_Source\PSoC5/USBUART_1_std.c ****                             {
 727:.\Generated_Source\PSoC5/USBUART_1_std.c ****                                 /* OUT Endpoint */
 728:.\Generated_Source\PSoC5/USBUART_1_std.c ****                                 USBUART_1_EP[i].epMode     = USBUART_1_GET_ACTIVE_OUT_EP_CR0_MODE(e
 729:.\Generated_Source\PSoC5/USBUART_1_std.c ****                                 USBUART_1_EP[i].apiEpState = USBUART_1_NO_EVENT_PENDING;
 730:.\Generated_Source\PSoC5/USBUART_1_std.c ****                                 
 731:.\Generated_Source\PSoC5/USBUART_1_std.c ****                             #if (defined(USBUART_1_ENABLE_MIDI_STREAMING) && (USBUART_1_MIDI_OUT_BU
 732:.\Generated_Source\PSoC5/USBUART_1_std.c ****                                 if ((pEP->bMisc == USBUART_1_CLASS_AUDIO) && (epType == USBUART_1_E
 733:.\Generated_Source\PSoC5/USBUART_1_std.c ****                                 {
 734:.\Generated_Source\PSoC5/USBUART_1_std.c ****                                     USBUART_1_midi_out_ep = i;
 735:.\Generated_Source\PSoC5/USBUART_1_std.c ****                                 }
 736:.\Generated_Source\PSoC5/USBUART_1_std.c ****                             #endif  /* (USBUART_1_ENABLE_MIDI_STREAMING) */
 737:.\Generated_Source\PSoC5/USBUART_1_std.c ****                             }
 738:.\Generated_Source\PSoC5/USBUART_1_std.c **** 
 739:.\Generated_Source\PSoC5/USBUART_1_std.c ****                         #if (defined(USBUART_1_ENABLE_CDC_CLASS))
ARM GAS  C:\Users\miyag\AppData\Local\Temp\ccphtVl4.s 			page 19


 740:.\Generated_Source\PSoC5/USBUART_1_std.c ****                             if((pEP->bMisc == USBUART_1_CLASS_CDC_DATA) ||(pEP->bMisc == USBUART_1_
 741:.\Generated_Source\PSoC5/USBUART_1_std.c ****                             {
 742:.\Generated_Source\PSoC5/USBUART_1_std.c ****                                 cdcComNums = USBUART_1_Cdc_EpInit(pEP, i, cdcComNums);
 743:.\Generated_Source\PSoC5/USBUART_1_std.c ****                             }
 744:.\Generated_Source\PSoC5/USBUART_1_std.c ****                         #endif  /* (USBUART_1_ENABLE_CDC_CLASS) */
 745:.\Generated_Source\PSoC5/USBUART_1_std.c **** 
 746:.\Generated_Source\PSoC5/USBUART_1_std.c ****                             #if (USBUART_1_EP_MANAGEMENT_DMA_AUTO)
 747:.\Generated_Source\PSoC5/USBUART_1_std.c ****                                 break;  /* Use first EP setting in Auto memory management */
 748:.\Generated_Source\PSoC5/USBUART_1_std.c ****                             #endif /* (USBUART_1_EP_MANAGEMENT_DMA_AUTO) */
 749:.\Generated_Source\PSoC5/USBUART_1_std.c ****                         }
 750:.\Generated_Source\PSoC5/USBUART_1_std.c ****                     }
 751:.\Generated_Source\PSoC5/USBUART_1_std.c ****                     
 752:.\Generated_Source\PSoC5/USBUART_1_std.c ****                     pEP = &pEP[1u];
 753:.\Generated_Source\PSoC5/USBUART_1_std.c ****                 }
 754:.\Generated_Source\PSoC5/USBUART_1_std.c ****             }
 755:.\Generated_Source\PSoC5/USBUART_1_std.c ****         #endif /*  (USBUART_1_EP_MANAGEMENT_MANUAL && USBUART_1_EP_ALLOC_DYNAMIC) */
 756:.\Generated_Source\PSoC5/USBUART_1_std.c **** 
 757:.\Generated_Source\PSoC5/USBUART_1_std.c ****         /* Init class array for each interface and interface number for each EP.
 758:.\Generated_Source\PSoC5/USBUART_1_std.c ****         *  It is used for handling Class specific requests directed to either an
 759:.\Generated_Source\PSoC5/USBUART_1_std.c ****         *  interface or the endpoint.
 760:.\Generated_Source\PSoC5/USBUART_1_std.c ****         */
 761:.\Generated_Source\PSoC5/USBUART_1_std.c ****         /* p_list points the endpoint setting table. */
 762:.\Generated_Source\PSoC5/USBUART_1_std.c ****         pEP = (const T_USBUART_1_EP_SETTINGS_BLOCK CYCODE *) pTmp->p_list;
 763:.\Generated_Source\PSoC5/USBUART_1_std.c ****         for (i = 0u; i < ep; i++)
 764:.\Generated_Source\PSoC5/USBUART_1_std.c ****         {
 765:.\Generated_Source\PSoC5/USBUART_1_std.c ****             /* Configure interface number for each EP */
 766:.\Generated_Source\PSoC5/USBUART_1_std.c ****             USBUART_1_EP[pEP->addr & USBUART_1_DIR_UNUSED].interface = pEP->interface;
 767:.\Generated_Source\PSoC5/USBUART_1_std.c ****             pEP = &pEP[1u];
 768:.\Generated_Source\PSoC5/USBUART_1_std.c ****         }
 769:.\Generated_Source\PSoC5/USBUART_1_std.c ****         
 770:.\Generated_Source\PSoC5/USBUART_1_std.c ****         /* Init pointer on interface class table */
 771:.\Generated_Source\PSoC5/USBUART_1_std.c ****         USBUART_1_interfaceClass = USBUART_1_GetInterfaceClassTablePtr();
 772:.\Generated_Source\PSoC5/USBUART_1_std.c ****         
 773:.\Generated_Source\PSoC5/USBUART_1_std.c ****     /* Set the endpoint buffer addresses */
 774:.\Generated_Source\PSoC5/USBUART_1_std.c ****     #if (!USBUART_1_EP_MANAGEMENT_DMA_AUTO)
 775:.\Generated_Source\PSoC5/USBUART_1_std.c ****         buffCount = 0u;
 776:.\Generated_Source\PSoC5/USBUART_1_std.c ****         for (ep = USBUART_1_EP1; ep < USBUART_1_MAX_EP; ++ep)
 777:.\Generated_Source\PSoC5/USBUART_1_std.c ****         {
 778:.\Generated_Source\PSoC5/USBUART_1_std.c ****             USBUART_1_EP[ep].buffOffset = buffCount;        
 779:.\Generated_Source\PSoC5/USBUART_1_std.c ****             buffCount += USBUART_1_EP[ep].bufferSize;
 780:.\Generated_Source\PSoC5/USBUART_1_std.c ****             
 781:.\Generated_Source\PSoC5/USBUART_1_std.c ****         #if (USBUART_1_GEN_16BITS_EP_ACCESS)
 782:.\Generated_Source\PSoC5/USBUART_1_std.c ****             /* Align EP buffers to be event size to access 16-bits DR register. */
 783:.\Generated_Source\PSoC5/USBUART_1_std.c ****             buffCount += (0u != (buffCount & 0x01u)) ? 1u : 0u;
 784:.\Generated_Source\PSoC5/USBUART_1_std.c ****         #endif /* (USBUART_1_GEN_16BITS_EP_ACCESS) */            
 785:.\Generated_Source\PSoC5/USBUART_1_std.c ****         }
 786:.\Generated_Source\PSoC5/USBUART_1_std.c ****     #endif /* (!USBUART_1_EP_MANAGEMENT_DMA_AUTO) */
 787:.\Generated_Source\PSoC5/USBUART_1_std.c **** 
 788:.\Generated_Source\PSoC5/USBUART_1_std.c ****         /* Configure hardware registers */
 789:.\Generated_Source\PSoC5/USBUART_1_std.c ****         USBUART_1_ConfigReg();
 790:.\Generated_Source\PSoC5/USBUART_1_std.c ****     }
 791:.\Generated_Source\PSoC5/USBUART_1_std.c **** }
 792:.\Generated_Source\PSoC5/USBUART_1_std.c **** 
 793:.\Generated_Source\PSoC5/USBUART_1_std.c **** 
 794:.\Generated_Source\PSoC5/USBUART_1_std.c **** /*******************************************************************************
 795:.\Generated_Source\PSoC5/USBUART_1_std.c **** * Function Name: USBUART_1_ConfigAltChanged
 796:.\Generated_Source\PSoC5/USBUART_1_std.c **** ****************************************************************************//**
ARM GAS  C:\Users\miyag\AppData\Local\Temp\ccphtVl4.s 			page 20


 797:.\Generated_Source\PSoC5/USBUART_1_std.c **** *
 798:.\Generated_Source\PSoC5/USBUART_1_std.c **** *  This routine update configuration for the required endpoints only.
 799:.\Generated_Source\PSoC5/USBUART_1_std.c **** *  It is called after SET_INTERFACE request when Static memory allocation used.
 800:.\Generated_Source\PSoC5/USBUART_1_std.c **** *
 801:.\Generated_Source\PSoC5/USBUART_1_std.c **** * \reentrant
 802:.\Generated_Source\PSoC5/USBUART_1_std.c **** *  No.
 803:.\Generated_Source\PSoC5/USBUART_1_std.c **** *
 804:.\Generated_Source\PSoC5/USBUART_1_std.c **** *******************************************************************************/
 805:.\Generated_Source\PSoC5/USBUART_1_std.c **** void USBUART_1_ConfigAltChanged(void) 
 806:.\Generated_Source\PSoC5/USBUART_1_std.c **** {
 807:.\Generated_Source\PSoC5/USBUART_1_std.c ****     uint8 ep;
 808:.\Generated_Source\PSoC5/USBUART_1_std.c ****     uint8 curEp;
 809:.\Generated_Source\PSoC5/USBUART_1_std.c ****     uint8 epType;
 810:.\Generated_Source\PSoC5/USBUART_1_std.c ****     uint8 i;
 811:.\Generated_Source\PSoC5/USBUART_1_std.c ****     uint8 interfaceNum;
 812:.\Generated_Source\PSoC5/USBUART_1_std.c **** 
 813:.\Generated_Source\PSoC5/USBUART_1_std.c ****     const T_USBUART_1_LUT CYCODE *pTmp;
 814:.\Generated_Source\PSoC5/USBUART_1_std.c ****     const T_USBUART_1_EP_SETTINGS_BLOCK CYCODE *pEP;
 815:.\Generated_Source\PSoC5/USBUART_1_std.c **** 
 816:.\Generated_Source\PSoC5/USBUART_1_std.c ****     /* Init Endpoints and Device Status if configured */
 817:.\Generated_Source\PSoC5/USBUART_1_std.c ****     if (USBUART_1_configuration > 0u)
 818:.\Generated_Source\PSoC5/USBUART_1_std.c ****     {
 819:.\Generated_Source\PSoC5/USBUART_1_std.c ****         /* Get number of endpoints configurations (ep). */
 820:.\Generated_Source\PSoC5/USBUART_1_std.c ****         pTmp = USBUART_1_GetConfigTablePtr(USBUART_1_configuration - 1u);
 821:.\Generated_Source\PSoC5/USBUART_1_std.c ****         pTmp = &pTmp[1u];
 822:.\Generated_Source\PSoC5/USBUART_1_std.c ****         ep = pTmp->c;
 823:.\Generated_Source\PSoC5/USBUART_1_std.c **** 
 824:.\Generated_Source\PSoC5/USBUART_1_std.c ****         /* Get pointer to endpoints setting table (pEP). */
 825:.\Generated_Source\PSoC5/USBUART_1_std.c ****         pEP = (const T_USBUART_1_EP_SETTINGS_BLOCK CYCODE *) pTmp->p_list;
 826:.\Generated_Source\PSoC5/USBUART_1_std.c ****         
 827:.\Generated_Source\PSoC5/USBUART_1_std.c ****         /* Look through all possible endpoint configurations. Find endpoints 
 828:.\Generated_Source\PSoC5/USBUART_1_std.c ****         * which belong to current interface and alternate settings for 
 829:.\Generated_Source\PSoC5/USBUART_1_std.c ****         * re-configuration.
 830:.\Generated_Source\PSoC5/USBUART_1_std.c ****         */
 831:.\Generated_Source\PSoC5/USBUART_1_std.c ****         interfaceNum = USBUART_1_interfaceNumber;
 832:.\Generated_Source\PSoC5/USBUART_1_std.c ****         for (i = 0u; i < ep; i++)
 833:.\Generated_Source\PSoC5/USBUART_1_std.c ****         {
 834:.\Generated_Source\PSoC5/USBUART_1_std.c ****             /* Find endpoints which belong to current interface and alternate settings. */
 835:.\Generated_Source\PSoC5/USBUART_1_std.c ****             if ((interfaceNum == pEP->interface) && 
 836:.\Generated_Source\PSoC5/USBUART_1_std.c ****                 (USBUART_1_interfaceSetting[interfaceNum] == pEP->altSetting))
 837:.\Generated_Source\PSoC5/USBUART_1_std.c ****             {
 838:.\Generated_Source\PSoC5/USBUART_1_std.c ****                 curEp  = ((uint8) pEP->addr & USBUART_1_DIR_UNUSED);
 839:.\Generated_Source\PSoC5/USBUART_1_std.c ****                 epType = ((uint8) pEP->attributes & USBUART_1_EP_TYPE_MASK);
 840:.\Generated_Source\PSoC5/USBUART_1_std.c ****                 
 841:.\Generated_Source\PSoC5/USBUART_1_std.c ****                 /* Change the SIE mode for the selected EP to NAK ALL */
 842:.\Generated_Source\PSoC5/USBUART_1_std.c ****                 USBUART_1_EP[curEp].epToggle   = 0u;
 843:.\Generated_Source\PSoC5/USBUART_1_std.c ****                 USBUART_1_EP[curEp].addr       = pEP->addr;
 844:.\Generated_Source\PSoC5/USBUART_1_std.c ****                 USBUART_1_EP[curEp].attrib     = pEP->attributes;
 845:.\Generated_Source\PSoC5/USBUART_1_std.c ****                 USBUART_1_EP[curEp].bufferSize = pEP->bufferSize;
 846:.\Generated_Source\PSoC5/USBUART_1_std.c **** 
 847:.\Generated_Source\PSoC5/USBUART_1_std.c ****                 if (0u != (pEP->addr & USBUART_1_DIR_IN))
 848:.\Generated_Source\PSoC5/USBUART_1_std.c ****                 {
 849:.\Generated_Source\PSoC5/USBUART_1_std.c ****                     /* IN Endpoint */
 850:.\Generated_Source\PSoC5/USBUART_1_std.c ****                     USBUART_1_EP[curEp].epMode     = USBUART_1_GET_ACTIVE_IN_EP_CR0_MODE(epType);
 851:.\Generated_Source\PSoC5/USBUART_1_std.c ****                     USBUART_1_EP[curEp].apiEpState = USBUART_1_EVENT_PENDING;
 852:.\Generated_Source\PSoC5/USBUART_1_std.c ****                 }
 853:.\Generated_Source\PSoC5/USBUART_1_std.c ****                 else
ARM GAS  C:\Users\miyag\AppData\Local\Temp\ccphtVl4.s 			page 21


 854:.\Generated_Source\PSoC5/USBUART_1_std.c ****                 {
 855:.\Generated_Source\PSoC5/USBUART_1_std.c ****                     /* OUT Endpoint */
 856:.\Generated_Source\PSoC5/USBUART_1_std.c ****                     USBUART_1_EP[curEp].epMode     = USBUART_1_GET_ACTIVE_OUT_EP_CR0_MODE(epType);
 857:.\Generated_Source\PSoC5/USBUART_1_std.c ****                     USBUART_1_EP[curEp].apiEpState = USBUART_1_NO_EVENT_PENDING;
 858:.\Generated_Source\PSoC5/USBUART_1_std.c ****                 }
 859:.\Generated_Source\PSoC5/USBUART_1_std.c ****                 
 860:.\Generated_Source\PSoC5/USBUART_1_std.c ****                 /* Make SIE to NAK any endpoint requests */
 861:.\Generated_Source\PSoC5/USBUART_1_std.c ****                 USBUART_1_SIE_EP_BASE.sieEp[curEp].epCr0 = USBUART_1_MODE_NAK_IN_OUT;
 862:.\Generated_Source\PSoC5/USBUART_1_std.c **** 
 863:.\Generated_Source\PSoC5/USBUART_1_std.c ****             #if (USBUART_1_EP_MANAGEMENT_DMA_AUTO)
 864:.\Generated_Source\PSoC5/USBUART_1_std.c ****                 /* Clear IN data ready. */
 865:.\Generated_Source\PSoC5/USBUART_1_std.c ****                 USBUART_1_ARB_EP_BASE.arbEp[curEp].epCfg &= (uint8) ~USBUART_1_ARB_EPX_CFG_IN_DATA_
 866:.\Generated_Source\PSoC5/USBUART_1_std.c **** 
 867:.\Generated_Source\PSoC5/USBUART_1_std.c ****                 /* Select endpoint number of reconfiguration */
 868:.\Generated_Source\PSoC5/USBUART_1_std.c ****                 USBUART_1_DYN_RECONFIG_REG = (uint8) ((curEp - 1u) << USBUART_1_DYN_RECONFIG_EP_SHI
 869:.\Generated_Source\PSoC5/USBUART_1_std.c ****                 
 870:.\Generated_Source\PSoC5/USBUART_1_std.c ****                 /* Request for dynamic re-configuration of endpoint. */
 871:.\Generated_Source\PSoC5/USBUART_1_std.c ****                 USBUART_1_DYN_RECONFIG_REG |= USBUART_1_DYN_RECONFIG_ENABLE;
 872:.\Generated_Source\PSoC5/USBUART_1_std.c ****                 
 873:.\Generated_Source\PSoC5/USBUART_1_std.c ****                 /* Wait until block is ready for re-configuration */
 874:.\Generated_Source\PSoC5/USBUART_1_std.c ****                 while (0u == (USBUART_1_DYN_RECONFIG_REG & USBUART_1_DYN_RECONFIG_RDY_STS))
 875:.\Generated_Source\PSoC5/USBUART_1_std.c ****                 {
 876:.\Generated_Source\PSoC5/USBUART_1_std.c ****                 }
 877:.\Generated_Source\PSoC5/USBUART_1_std.c ****                 
 878:.\Generated_Source\PSoC5/USBUART_1_std.c ****                 /* Once DYN_RECONFIG_RDY_STS bit is set, FW can change the EP configuration. */
 879:.\Generated_Source\PSoC5/USBUART_1_std.c ****                 /* Change EP Type with new direction */
 880:.\Generated_Source\PSoC5/USBUART_1_std.c ****                 if (0u != (pEP->addr & USBUART_1_DIR_IN))
 881:.\Generated_Source\PSoC5/USBUART_1_std.c ****                 {
 882:.\Generated_Source\PSoC5/USBUART_1_std.c ****                     /* Set endpoint type: 0 - IN and 1 - OUT. */
 883:.\Generated_Source\PSoC5/USBUART_1_std.c ****                     USBUART_1_EP_TYPE_REG &= (uint8) ~(uint8)((uint8) 0x01u << (curEp - 1u));
 884:.\Generated_Source\PSoC5/USBUART_1_std.c ****                     
 885:.\Generated_Source\PSoC5/USBUART_1_std.c ****                 #if (CY_PSOC4)
 886:.\Generated_Source\PSoC5/USBUART_1_std.c ****                     /* Clear DMA_TERMIN for IN endpoint */
 887:.\Generated_Source\PSoC5/USBUART_1_std.c ****                     USBUART_1_ARB_EP_BASE.arbEp[curEp].epIntEn &= (uint32) ~USBUART_1_ARB_EPX_INT_D
 888:.\Generated_Source\PSoC5/USBUART_1_std.c ****                 #endif /* (CY_PSOC4) */
 889:.\Generated_Source\PSoC5/USBUART_1_std.c ****                 }
 890:.\Generated_Source\PSoC5/USBUART_1_std.c ****                 else
 891:.\Generated_Source\PSoC5/USBUART_1_std.c ****                 {
 892:.\Generated_Source\PSoC5/USBUART_1_std.c ****                     /* Set endpoint type: 0 - IN and 1- OUT. */
 893:.\Generated_Source\PSoC5/USBUART_1_std.c ****                     USBUART_1_EP_TYPE_REG |= (uint8) ((uint8) 0x01u << (curEp - 1u));
 894:.\Generated_Source\PSoC5/USBUART_1_std.c ****                     
 895:.\Generated_Source\PSoC5/USBUART_1_std.c ****                 #if (CY_PSOC4)
 896:.\Generated_Source\PSoC5/USBUART_1_std.c ****                     /* Set DMA_TERMIN for OUT endpoint */
 897:.\Generated_Source\PSoC5/USBUART_1_std.c ****                     USBUART_1_ARB_EP_BASE.arbEp[curEp].epIntEn |= (uint32) USBUART_1_ARB_EPX_INT_DM
 898:.\Generated_Source\PSoC5/USBUART_1_std.c ****                 #endif /* (CY_PSOC4) */
 899:.\Generated_Source\PSoC5/USBUART_1_std.c ****                 }
 900:.\Generated_Source\PSoC5/USBUART_1_std.c ****                 
 901:.\Generated_Source\PSoC5/USBUART_1_std.c ****                 /* Complete dynamic re-configuration: all endpoint related status and signals 
 902:.\Generated_Source\PSoC5/USBUART_1_std.c ****                 * are set into the default state.
 903:.\Generated_Source\PSoC5/USBUART_1_std.c ****                 */
 904:.\Generated_Source\PSoC5/USBUART_1_std.c ****                 USBUART_1_DYN_RECONFIG_REG &= (uint8) ~USBUART_1_DYN_RECONFIG_ENABLE;
 905:.\Generated_Source\PSoC5/USBUART_1_std.c **** 
 906:.\Generated_Source\PSoC5/USBUART_1_std.c ****             #else
 907:.\Generated_Source\PSoC5/USBUART_1_std.c ****                 USBUART_1_SIE_EP_BASE.sieEp[curEp].epCnt0 = HI8(USBUART_1_EP[curEp].bufferSize);
 908:.\Generated_Source\PSoC5/USBUART_1_std.c ****                 USBUART_1_SIE_EP_BASE.sieEp[curEp].epCnt1 = LO8(USBUART_1_EP[curEp].bufferSize);
 909:.\Generated_Source\PSoC5/USBUART_1_std.c ****                 
 910:.\Generated_Source\PSoC5/USBUART_1_std.c ****                 #if (CY_PSOC4)
ARM GAS  C:\Users\miyag\AppData\Local\Temp\ccphtVl4.s 			page 22


 911:.\Generated_Source\PSoC5/USBUART_1_std.c ****                     USBUART_1_ARB_EP16_BASE.arbEp[curEp].rwRa16  = (uint32) USBUART_1_EP[curEp].buf
 912:.\Generated_Source\PSoC5/USBUART_1_std.c ****                     USBUART_1_ARB_EP16_BASE.arbEp[curEp].rwWa16  = (uint32) USBUART_1_EP[curEp].buf
 913:.\Generated_Source\PSoC5/USBUART_1_std.c ****                 #else
 914:.\Generated_Source\PSoC5/USBUART_1_std.c ****                     USBUART_1_ARB_EP_BASE.arbEp[curEp].rwRa    = LO8(USBUART_1_EP[curEp].buffOffset
 915:.\Generated_Source\PSoC5/USBUART_1_std.c ****                     USBUART_1_ARB_EP_BASE.arbEp[curEp].rwRaMsb = HI8(USBUART_1_EP[curEp].buffOffset
 916:.\Generated_Source\PSoC5/USBUART_1_std.c ****                     USBUART_1_ARB_EP_BASE.arbEp[curEp].rwWa    = LO8(USBUART_1_EP[curEp].buffOffset
 917:.\Generated_Source\PSoC5/USBUART_1_std.c ****                     USBUART_1_ARB_EP_BASE.arbEp[curEp].rwWaMsb = HI8(USBUART_1_EP[curEp].buffOffset
 918:.\Generated_Source\PSoC5/USBUART_1_std.c ****                 #endif /* (CY_PSOC4) */                
 919:.\Generated_Source\PSoC5/USBUART_1_std.c ****             #endif /* (USBUART_1_EP_MANAGEMENT_DMA_AUTO) */
 920:.\Generated_Source\PSoC5/USBUART_1_std.c ****             }
 921:.\Generated_Source\PSoC5/USBUART_1_std.c ****             
 922:.\Generated_Source\PSoC5/USBUART_1_std.c ****             pEP = &pEP[1u]; /* Get next EP element */
 923:.\Generated_Source\PSoC5/USBUART_1_std.c ****         }
 924:.\Generated_Source\PSoC5/USBUART_1_std.c ****         
 925:.\Generated_Source\PSoC5/USBUART_1_std.c ****         /* The main loop has to re-enable DMA and OUT endpoint */
 926:.\Generated_Source\PSoC5/USBUART_1_std.c ****     }
 927:.\Generated_Source\PSoC5/USBUART_1_std.c **** }
 928:.\Generated_Source\PSoC5/USBUART_1_std.c **** 
 929:.\Generated_Source\PSoC5/USBUART_1_std.c **** 
 930:.\Generated_Source\PSoC5/USBUART_1_std.c **** /*******************************************************************************
 931:.\Generated_Source\PSoC5/USBUART_1_std.c **** * Function Name: USBUART_1_GetConfigTablePtr
 932:.\Generated_Source\PSoC5/USBUART_1_std.c **** ****************************************************************************//**
 933:.\Generated_Source\PSoC5/USBUART_1_std.c **** *
 934:.\Generated_Source\PSoC5/USBUART_1_std.c **** *  This routine returns a pointer a configuration table entry
 935:.\Generated_Source\PSoC5/USBUART_1_std.c **** *
 936:.\Generated_Source\PSoC5/USBUART_1_std.c **** *  \param confIndex:  Configuration Index
 937:.\Generated_Source\PSoC5/USBUART_1_std.c **** *
 938:.\Generated_Source\PSoC5/USBUART_1_std.c **** * \return
 939:.\Generated_Source\PSoC5/USBUART_1_std.c **** *  Device Descriptor pointer or NULL when descriptor does not exist.
 940:.\Generated_Source\PSoC5/USBUART_1_std.c **** *
 941:.\Generated_Source\PSoC5/USBUART_1_std.c **** *******************************************************************************/
 942:.\Generated_Source\PSoC5/USBUART_1_std.c **** const T_USBUART_1_LUT CYCODE *USBUART_1_GetConfigTablePtr(uint8 confIndex)
 943:.\Generated_Source\PSoC5/USBUART_1_std.c ****                                                         
 944:.\Generated_Source\PSoC5/USBUART_1_std.c **** {
 274              		.loc 1 944 0
 275              		.cfi_startproc
 276              		@ args = 0, pretend = 0, frame = 0
 277              		@ frame_needed = 0, uses_anonymous_args = 0
 278              		@ link register save eliminated.
 279              	.LVL14:
 945:.\Generated_Source\PSoC5/USBUART_1_std.c ****     /* Device Table */
 946:.\Generated_Source\PSoC5/USBUART_1_std.c ****     const T_USBUART_1_LUT CYCODE *pTmp;
 947:.\Generated_Source\PSoC5/USBUART_1_std.c **** 
 948:.\Generated_Source\PSoC5/USBUART_1_std.c ****     pTmp = (const T_USBUART_1_LUT CYCODE *) USBUART_1_TABLE[USBUART_1_device].p_list;
 280              		.loc 1 948 0
 281 0000 064B     		ldr	r3, .L31
 282 0002 074A     		ldr	r2, .L31+4
 283 0004 1B78     		ldrb	r3, [r3]	@ zero_extendqisi2
 284 0006 02EBC302 		add	r2, r2, r3, lsl #3
 285 000a 5368     		ldr	r3, [r2, #4]
 286              	.LVL15:
 949:.\Generated_Source\PSoC5/USBUART_1_std.c **** 
 950:.\Generated_Source\PSoC5/USBUART_1_std.c ****     /* The first entry points to the Device Descriptor,
 951:.\Generated_Source\PSoC5/USBUART_1_std.c ****     *  the second entry point to the BOS Descriptor
 952:.\Generated_Source\PSoC5/USBUART_1_std.c ****     *  the rest configuration entries.
 953:.\Generated_Source\PSoC5/USBUART_1_std.c ****     *  Set pointer to the first Configuration Descriptor
 954:.\Generated_Source\PSoC5/USBUART_1_std.c ****     */
ARM GAS  C:\Users\miyag\AppData\Local\Temp\ccphtVl4.s 			page 23


 955:.\Generated_Source\PSoC5/USBUART_1_std.c ****     pTmp = &pTmp[2u];
 956:.\Generated_Source\PSoC5/USBUART_1_std.c ****     /* For this table, c is the number of configuration descriptors  */
 957:.\Generated_Source\PSoC5/USBUART_1_std.c ****     if(confIndex >= pTmp->c)   /* Verify that required configuration descriptor exists */
 287              		.loc 1 957 0
 288 000c 1A7C     		ldrb	r2, [r3, #16]	@ zero_extendqisi2
 289 000e 8242     		cmp	r2, r0
 290 0010 86BF     		itte	hi
 291 0012 03EBC003 		addhi	r3, r3, r0, lsl #3
 292              	.LVL16:
 958:.\Generated_Source\PSoC5/USBUART_1_std.c ****     {
 959:.\Generated_Source\PSoC5/USBUART_1_std.c ****         pTmp = (const T_USBUART_1_LUT CYCODE *) NULL;
 960:.\Generated_Source\PSoC5/USBUART_1_std.c ****     }
 961:.\Generated_Source\PSoC5/USBUART_1_std.c ****     else
 962:.\Generated_Source\PSoC5/USBUART_1_std.c ****     {
 963:.\Generated_Source\PSoC5/USBUART_1_std.c ****         pTmp = (const T_USBUART_1_LUT CYCODE *) pTmp[confIndex].p_list;
 293              		.loc 1 963 0
 294 0016 5869     		ldrhi	r0, [r3, #20]
 295              	.LVL17:
 959:.\Generated_Source\PSoC5/USBUART_1_std.c ****     }
 296              		.loc 1 959 0
 297 0018 0020     		movls	r0, #0
 298              	.LVL18:
 964:.\Generated_Source\PSoC5/USBUART_1_std.c ****     }
 965:.\Generated_Source\PSoC5/USBUART_1_std.c **** 
 966:.\Generated_Source\PSoC5/USBUART_1_std.c ****     return (pTmp);
 967:.\Generated_Source\PSoC5/USBUART_1_std.c **** }
 299              		.loc 1 967 0
 300 001a 7047     		bx	lr
 301              	.L32:
 302              		.align	2
 303              	.L31:
 304 001c 00000000 		.word	USBUART_1_device
 305 0020 00000000 		.word	USBUART_1_TABLE
 306              		.cfi_endproc
 307              	.LFE6:
 308              		.size	USBUART_1_GetConfigTablePtr, .-USBUART_1_GetConfigTablePtr
 309              		.section	.text.USBUART_1_ConfigAltChanged,"ax",%progbits
 310              		.align	1
 311              		.global	USBUART_1_ConfigAltChanged
 312              		.thumb
 313              		.thumb_func
 314              		.type	USBUART_1_ConfigAltChanged, %function
 315              	USBUART_1_ConfigAltChanged:
 316              	.LFB5:
 806:.\Generated_Source\PSoC5/USBUART_1_std.c ****     uint8 ep;
 317              		.loc 1 806 0
 318              		.cfi_startproc
 319              		@ args = 0, pretend = 0, frame = 0
 320              		@ frame_needed = 0, uses_anonymous_args = 0
 321 0000 F8B5     		push	{r3, r4, r5, r6, r7, lr}
 322              		.cfi_def_cfa_offset 24
 323              		.cfi_offset 3, -24
 324              		.cfi_offset 4, -20
 325              		.cfi_offset 5, -16
 326              		.cfi_offset 6, -12
 327              		.cfi_offset 7, -8
 328              		.cfi_offset 14, -4
ARM GAS  C:\Users\miyag\AppData\Local\Temp\ccphtVl4.s 			page 24


 817:.\Generated_Source\PSoC5/USBUART_1_std.c ****     {
 329              		.loc 1 817 0
 330 0002 334B     		ldr	r3, .L45
 331 0004 1A78     		ldrb	r2, [r3]	@ zero_extendqisi2
 332 0006 002A     		cmp	r2, #0
 333 0008 61D0     		beq	.L33
 334              	.LBB7:
 335              	.LBB8:
 820:.\Generated_Source\PSoC5/USBUART_1_std.c ****         pTmp = &pTmp[1u];
 336              		.loc 1 820 0
 337 000a 1878     		ldrb	r0, [r3]	@ zero_extendqisi2
 338 000c 0138     		subs	r0, r0, #1
 339 000e C0B2     		uxtb	r0, r0
 340 0010 FFF7FEFF 		bl	USBUART_1_GetConfigTablePtr
 341              	.LVL19:
 831:.\Generated_Source\PSoC5/USBUART_1_std.c ****         for (i = 0u; i < ep; i++)
 342              		.loc 1 831 0
 343 0014 2F4A     		ldr	r2, .L45+4
 825:.\Generated_Source\PSoC5/USBUART_1_std.c ****         
 344              		.loc 1 825 0
 345 0016 C368     		ldr	r3, [r0, #12]
 346              	.LVL20:
 831:.\Generated_Source\PSoC5/USBUART_1_std.c ****         for (i = 0u; i < ep; i++)
 347              		.loc 1 831 0
 348 0018 1478     		ldrb	r4, [r2]	@ zero_extendqisi2
 349 001a 067A     		ldrb	r6, [r0, #8]	@ zero_extendqisi2
 350 001c E4B2     		uxtb	r4, r4
 351              	.LVL21:
 352 001e 03EBC606 		add	r6, r3, r6, lsl #3
 353              	.LVL22:
 354              	.L35:
 832:.\Generated_Source\PSoC5/USBUART_1_std.c ****         {
 355              		.loc 1 832 0
 356 0022 B342     		cmp	r3, r6
 357 0024 53D0     		beq	.L33
 835:.\Generated_Source\PSoC5/USBUART_1_std.c ****                 (USBUART_1_interfaceSetting[interfaceNum] == pEP->altSetting))
 358              		.loc 1 835 0
 359 0026 1A78     		ldrb	r2, [r3]	@ zero_extendqisi2
 360 0028 A242     		cmp	r2, r4
 361 002a 4ED1     		bne	.L36
 836:.\Generated_Source\PSoC5/USBUART_1_std.c ****             {
 362              		.loc 1 836 0
 363 002c 2A4A     		ldr	r2, .L45+8
 835:.\Generated_Source\PSoC5/USBUART_1_std.c ****                 (USBUART_1_interfaceSetting[interfaceNum] == pEP->altSetting))
 364              		.loc 1 835 0
 365 002e 5978     		ldrb	r1, [r3, #1]	@ zero_extendqisi2
 836:.\Generated_Source\PSoC5/USBUART_1_std.c ****             {
 366              		.loc 1 836 0
 367 0030 125D     		ldrb	r2, [r2, r4]	@ zero_extendqisi2
 835:.\Generated_Source\PSoC5/USBUART_1_std.c ****                 (USBUART_1_interfaceSetting[interfaceNum] == pEP->altSetting))
 368              		.loc 1 835 0
 369 0032 9142     		cmp	r1, r2
 370 0034 49D1     		bne	.L36
 838:.\Generated_Source\PSoC5/USBUART_1_std.c ****                 epType = ((uint8) pEP->attributes & USBUART_1_EP_TYPE_MASK);
 371              		.loc 1 838 0
 372 0036 9A78     		ldrb	r2, [r3, #2]	@ zero_extendqisi2
 842:.\Generated_Source\PSoC5/USBUART_1_std.c ****                 USBUART_1_EP[curEp].addr       = pEP->addr;
ARM GAS  C:\Users\miyag\AppData\Local\Temp\ccphtVl4.s 			page 25


 373              		.loc 1 842 0
 374 0038 0C25     		movs	r5, #12
 838:.\Generated_Source\PSoC5/USBUART_1_std.c ****                 epType = ((uint8) pEP->attributes & USBUART_1_EP_TYPE_MASK);
 375              		.loc 1 838 0
 376 003a 02F07F07 		and	r7, r2, #127
 377              	.LVL23:
 842:.\Generated_Source\PSoC5/USBUART_1_std.c ****                 USBUART_1_EP[curEp].addr       = pEP->addr;
 378              		.loc 1 842 0
 379 003e 7D43     		muls	r5, r7, r5
 380 0040 264A     		ldr	r2, .L45+12
 381 0042 4FF0000E 		mov	lr, #0
 382 0046 5119     		adds	r1, r2, r5
 839:.\Generated_Source\PSoC5/USBUART_1_std.c ****                 
 383              		.loc 1 839 0
 384 0048 D878     		ldrb	r0, [r3, #3]	@ zero_extendqisi2
 842:.\Generated_Source\PSoC5/USBUART_1_std.c ****                 USBUART_1_EP[curEp].addr       = pEP->addr;
 385              		.loc 1 842 0
 386 004a 81F803E0 		strb	lr, [r1, #3]
 843:.\Generated_Source\PSoC5/USBUART_1_std.c ****                 USBUART_1_EP[curEp].attrib     = pEP->attributes;
 387              		.loc 1 843 0
 388 004e 93F802C0 		ldrb	ip, [r3, #2]	@ zero_extendqisi2
 839:.\Generated_Source\PSoC5/USBUART_1_std.c ****                 
 389              		.loc 1 839 0
 390 0052 00F00300 		and	r0, r0, #3
 391              	.LVL24:
 843:.\Generated_Source\PSoC5/USBUART_1_std.c ****                 USBUART_1_EP[curEp].attrib     = pEP->attributes;
 392              		.loc 1 843 0
 393 0056 81F804C0 		strb	ip, [r1, #4]
 844:.\Generated_Source\PSoC5/USBUART_1_std.c ****                 USBUART_1_EP[curEp].bufferSize = pEP->bufferSize;
 394              		.loc 1 844 0
 395 005a 93F803C0 		ldrb	ip, [r3, #3]	@ zero_extendqisi2
 396 005e 02F805C0 		strb	ip, [r2, r5]
 845:.\Generated_Source\PSoC5/USBUART_1_std.c **** 
 397              		.loc 1 845 0
 398 0062 9D88     		ldrh	r5, [r3, #4]
 399 0064 0D81     		strh	r5, [r1, #8]	@ movhi
 847:.\Generated_Source\PSoC5/USBUART_1_std.c ****                 {
 400              		.loc 1 847 0
 401 0066 93F90250 		ldrsb	r5, [r3, #2]
 402 006a 7545     		cmp	r5, lr
 403 006c 07DA     		bge	.L37
 850:.\Generated_Source\PSoC5/USBUART_1_std.c ****                     USBUART_1_EP[curEp].apiEpState = USBUART_1_EVENT_PENDING;
 404              		.loc 1 850 0
 405 006e 0128     		cmp	r0, #1
 406 0070 0CBF     		ite	eq
 407 0072 0720     		moveq	r0, #7
 408              	.LVL25:
 409 0074 0D20     		movne	r0, #13
 410 0076 4871     		strb	r0, [r1, #5]
 851:.\Generated_Source\PSoC5/USBUART_1_std.c ****                 }
 411              		.loc 1 851 0
 412 0078 0120     		movs	r0, #1
 413 007a 4870     		strb	r0, [r1, #1]
 414 007c 06E0     		b	.L39
 415              	.LVL26:
 416              	.L37:
 856:.\Generated_Source\PSoC5/USBUART_1_std.c ****                     USBUART_1_EP[curEp].apiEpState = USBUART_1_NO_EVENT_PENDING;
ARM GAS  C:\Users\miyag\AppData\Local\Temp\ccphtVl4.s 			page 26


 417              		.loc 1 856 0
 418 007e 0128     		cmp	r0, #1
 419 0080 0CBF     		ite	eq
 420 0082 0520     		moveq	r0, #5
 421              	.LVL27:
 422 0084 0920     		movne	r0, #9
 423 0086 4871     		strb	r0, [r1, #5]
 857:.\Generated_Source\PSoC5/USBUART_1_std.c ****                 }
 424              		.loc 1 857 0
 425 0088 81F801E0 		strb	lr, [r1, #1]
 426              	.L39:
 427 008c 1449     		ldr	r1, .L45+16
 428 008e 3D01     		lsls	r5, r7, #4
 429 0090 2944     		add	r1, r1, r5
 861:.\Generated_Source\PSoC5/USBUART_1_std.c **** 
 430              		.loc 1 861 0
 431 0092 0120     		movs	r0, #1
 432 0094 8870     		strb	r0, [r1, #2]
 907:.\Generated_Source\PSoC5/USBUART_1_std.c ****                 USBUART_1_SIE_EP_BASE.sieEp[curEp].epCnt1 = LO8(USBUART_1_EP[curEp].bufferSize);
 433              		.loc 1 907 0
 434 0096 0C20     		movs	r0, #12
 435 0098 00FB0722 		mla	r2, r0, r7, r2
 436 009c 1089     		ldrh	r0, [r2, #8]
 437 009e C0F30720 		ubfx	r0, r0, #8, #8
 438 00a2 0870     		strb	r0, [r1]
 908:.\Generated_Source\PSoC5/USBUART_1_std.c ****                 
 439              		.loc 1 908 0
 440 00a4 1089     		ldrh	r0, [r2, #8]
 441 00a6 C0B2     		uxtb	r0, r0
 442 00a8 4870     		strb	r0, [r1, #1]
 914:.\Generated_Source\PSoC5/USBUART_1_std.c ****                     USBUART_1_ARB_EP_BASE.arbEp[curEp].rwRaMsb = HI8(USBUART_1_EP[curEp].buffOffset
 443              		.loc 1 914 0
 444 00aa D088     		ldrh	r0, [r2, #6]
 445 00ac 0D49     		ldr	r1, .L45+20
 446 00ae C0B2     		uxtb	r0, r0
 447 00b0 2944     		add	r1, r1, r5
 448 00b2 8871     		strb	r0, [r1, #6]
 915:.\Generated_Source\PSoC5/USBUART_1_std.c ****                     USBUART_1_ARB_EP_BASE.arbEp[curEp].rwWa    = LO8(USBUART_1_EP[curEp].buffOffset
 449              		.loc 1 915 0
 450 00b4 D088     		ldrh	r0, [r2, #6]
 451 00b6 C0F30720 		ubfx	r0, r0, #8, #8
 452 00ba C871     		strb	r0, [r1, #7]
 916:.\Generated_Source\PSoC5/USBUART_1_std.c ****                     USBUART_1_ARB_EP_BASE.arbEp[curEp].rwWaMsb = HI8(USBUART_1_EP[curEp].buffOffset
 453              		.loc 1 916 0
 454 00bc D088     		ldrh	r0, [r2, #6]
 455 00be C0B2     		uxtb	r0, r0
 456 00c0 0871     		strb	r0, [r1, #4]
 917:.\Generated_Source\PSoC5/USBUART_1_std.c ****                 #endif /* (CY_PSOC4) */                
 457              		.loc 1 917 0
 458 00c2 D288     		ldrh	r2, [r2, #6]
 459 00c4 C2F30722 		ubfx	r2, r2, #8, #8
 460 00c8 4A71     		strb	r2, [r1, #5]
 461              	.LVL28:
 462              	.L36:
 922:.\Generated_Source\PSoC5/USBUART_1_std.c ****         }
 463              		.loc 1 922 0
 464 00ca 0833     		adds	r3, r3, #8
ARM GAS  C:\Users\miyag\AppData\Local\Temp\ccphtVl4.s 			page 27


 465              	.LVL29:
 466 00cc A9E7     		b	.L35
 467              	.LVL30:
 468              	.L33:
 469 00ce F8BD     		pop	{r3, r4, r5, r6, r7, pc}
 470              	.L46:
 471              		.align	2
 472              	.L45:
 473 00d0 00000000 		.word	USBUART_1_configuration
 474 00d4 00000000 		.word	USBUART_1_interfaceNumber
 475 00d8 00000000 		.word	USBUART_1_interfaceSetting
 476 00dc 00000000 		.word	USBUART_1_EP
 477 00e0 FC5F0040 		.word	1073766396
 478 00e4 70600040 		.word	1073766512
 479              	.LBE8:
 480              	.LBE7:
 481              		.cfi_endproc
 482              	.LFE5:
 483              		.size	USBUART_1_ConfigAltChanged, .-USBUART_1_ConfigAltChanged
 484              		.section	.text.USBUART_1_GetDeviceTablePtr,"ax",%progbits
 485              		.align	1
 486              		.global	USBUART_1_GetDeviceTablePtr
 487              		.thumb
 488              		.thumb_func
 489              		.type	USBUART_1_GetDeviceTablePtr, %function
 490              	USBUART_1_GetDeviceTablePtr:
 491              	.LFB7:
 968:.\Generated_Source\PSoC5/USBUART_1_std.c **** 
 969:.\Generated_Source\PSoC5/USBUART_1_std.c **** 
 970:.\Generated_Source\PSoC5/USBUART_1_std.c **** #if (USBUART_1_BOS_ENABLE)
 971:.\Generated_Source\PSoC5/USBUART_1_std.c ****     /*******************************************************************************
 972:.\Generated_Source\PSoC5/USBUART_1_std.c ****     * Function Name: USBUART_1_GetBOSPtr
 973:.\Generated_Source\PSoC5/USBUART_1_std.c ****     ****************************************************************************//**
 974:.\Generated_Source\PSoC5/USBUART_1_std.c ****     *
 975:.\Generated_Source\PSoC5/USBUART_1_std.c ****     *  This routine returns a pointer a BOS table entry
 976:.\Generated_Source\PSoC5/USBUART_1_std.c ****     *
 977:.\Generated_Source\PSoC5/USBUART_1_std.c ****     *  
 978:.\Generated_Source\PSoC5/USBUART_1_std.c ****     *
 979:.\Generated_Source\PSoC5/USBUART_1_std.c ****     * \return
 980:.\Generated_Source\PSoC5/USBUART_1_std.c ****     *  BOS Descriptor pointer or NULL when descriptor does not exist.
 981:.\Generated_Source\PSoC5/USBUART_1_std.c ****     *
 982:.\Generated_Source\PSoC5/USBUART_1_std.c ****     *******************************************************************************/
 983:.\Generated_Source\PSoC5/USBUART_1_std.c ****     const T_USBUART_1_LUT CYCODE *USBUART_1_GetBOSPtr(void)
 984:.\Generated_Source\PSoC5/USBUART_1_std.c ****                                                             
 985:.\Generated_Source\PSoC5/USBUART_1_std.c ****     {
 986:.\Generated_Source\PSoC5/USBUART_1_std.c ****         /* Device Table */
 987:.\Generated_Source\PSoC5/USBUART_1_std.c ****         const T_USBUART_1_LUT CYCODE *pTmp;
 988:.\Generated_Source\PSoC5/USBUART_1_std.c **** 
 989:.\Generated_Source\PSoC5/USBUART_1_std.c ****         pTmp = (const T_USBUART_1_LUT CYCODE *) USBUART_1_TABLE[USBUART_1_device].p_list;
 990:.\Generated_Source\PSoC5/USBUART_1_std.c **** 
 991:.\Generated_Source\PSoC5/USBUART_1_std.c ****         /* The first entry points to the Device Descriptor,
 992:.\Generated_Source\PSoC5/USBUART_1_std.c ****         *  the second entry points to the BOS Descriptor
 993:.\Generated_Source\PSoC5/USBUART_1_std.c ****         */
 994:.\Generated_Source\PSoC5/USBUART_1_std.c ****         pTmp = &pTmp[1u];
 995:.\Generated_Source\PSoC5/USBUART_1_std.c ****         pTmp = (const T_USBUART_1_LUT CYCODE *) pTmp->p_list;
 996:.\Generated_Source\PSoC5/USBUART_1_std.c ****         return (pTmp);
 997:.\Generated_Source\PSoC5/USBUART_1_std.c ****     }
ARM GAS  C:\Users\miyag\AppData\Local\Temp\ccphtVl4.s 			page 28


 998:.\Generated_Source\PSoC5/USBUART_1_std.c **** #endif /* (USBUART_1_BOS_ENABLE) */
 999:.\Generated_Source\PSoC5/USBUART_1_std.c **** 
1000:.\Generated_Source\PSoC5/USBUART_1_std.c **** 
1001:.\Generated_Source\PSoC5/USBUART_1_std.c **** /*******************************************************************************
1002:.\Generated_Source\PSoC5/USBUART_1_std.c **** * Function Name: USBUART_1_GetDeviceTablePtr
1003:.\Generated_Source\PSoC5/USBUART_1_std.c **** ****************************************************************************//**
1004:.\Generated_Source\PSoC5/USBUART_1_std.c **** *
1005:.\Generated_Source\PSoC5/USBUART_1_std.c **** *  This routine returns a pointer to the Device table
1006:.\Generated_Source\PSoC5/USBUART_1_std.c **** *
1007:.\Generated_Source\PSoC5/USBUART_1_std.c **** * \return
1008:.\Generated_Source\PSoC5/USBUART_1_std.c **** *  Device Table pointer
1009:.\Generated_Source\PSoC5/USBUART_1_std.c **** *
1010:.\Generated_Source\PSoC5/USBUART_1_std.c **** *******************************************************************************/
1011:.\Generated_Source\PSoC5/USBUART_1_std.c **** const T_USBUART_1_LUT CYCODE *USBUART_1_GetDeviceTablePtr(void)
1012:.\Generated_Source\PSoC5/USBUART_1_std.c ****                                                             
1013:.\Generated_Source\PSoC5/USBUART_1_std.c **** {
 492              		.loc 1 1013 0
 493              		.cfi_startproc
 494              		@ args = 0, pretend = 0, frame = 0
 495              		@ frame_needed = 0, uses_anonymous_args = 0
 496              		@ link register save eliminated.
1014:.\Generated_Source\PSoC5/USBUART_1_std.c ****     /* Device Table */
1015:.\Generated_Source\PSoC5/USBUART_1_std.c ****     return( (const T_USBUART_1_LUT CYCODE *) USBUART_1_TABLE[USBUART_1_device].p_list );
 497              		.loc 1 1015 0
 498 0000 034B     		ldr	r3, .L48
 499 0002 1A78     		ldrb	r2, [r3]	@ zero_extendqisi2
 500 0004 034B     		ldr	r3, .L48+4
 501 0006 03EBC203 		add	r3, r3, r2, lsl #3
1016:.\Generated_Source\PSoC5/USBUART_1_std.c **** }
 502              		.loc 1 1016 0
 503 000a 5868     		ldr	r0, [r3, #4]
 504 000c 7047     		bx	lr
 505              	.L49:
 506 000e 00BF     		.align	2
 507              	.L48:
 508 0010 00000000 		.word	USBUART_1_device
 509 0014 00000000 		.word	USBUART_1_TABLE
 510              		.cfi_endproc
 511              	.LFE7:
 512              		.size	USBUART_1_GetDeviceTablePtr, .-USBUART_1_GetDeviceTablePtr
 513              		.section	.text.USBUART_1_GetInterfaceClassTablePtr,"ax",%progbits
 514              		.align	1
 515              		.global	USBUART_1_GetInterfaceClassTablePtr
 516              		.thumb
 517              		.thumb_func
 518              		.type	USBUART_1_GetInterfaceClassTablePtr, %function
 519              	USBUART_1_GetInterfaceClassTablePtr:
 520              	.LFB8:
1017:.\Generated_Source\PSoC5/USBUART_1_std.c **** 
1018:.\Generated_Source\PSoC5/USBUART_1_std.c **** 
1019:.\Generated_Source\PSoC5/USBUART_1_std.c **** /*******************************************************************************
1020:.\Generated_Source\PSoC5/USBUART_1_std.c **** * Function Name: USB_GetInterfaceClassTablePtr
1021:.\Generated_Source\PSoC5/USBUART_1_std.c **** ****************************************************************************//**
1022:.\Generated_Source\PSoC5/USBUART_1_std.c **** *
1023:.\Generated_Source\PSoC5/USBUART_1_std.c **** *  This routine returns Interface Class table pointer, which contains
1024:.\Generated_Source\PSoC5/USBUART_1_std.c **** *  the relation between interface number and interface class.
1025:.\Generated_Source\PSoC5/USBUART_1_std.c **** *
ARM GAS  C:\Users\miyag\AppData\Local\Temp\ccphtVl4.s 			page 29


1026:.\Generated_Source\PSoC5/USBUART_1_std.c **** * \return
1027:.\Generated_Source\PSoC5/USBUART_1_std.c **** *  Interface Class table pointer.
1028:.\Generated_Source\PSoC5/USBUART_1_std.c **** *
1029:.\Generated_Source\PSoC5/USBUART_1_std.c **** *******************************************************************************/
1030:.\Generated_Source\PSoC5/USBUART_1_std.c **** const uint8 CYCODE *USBUART_1_GetInterfaceClassTablePtr(void)
1031:.\Generated_Source\PSoC5/USBUART_1_std.c ****                                                         
1032:.\Generated_Source\PSoC5/USBUART_1_std.c **** {
 521              		.loc 1 1032 0
 522              		.cfi_startproc
 523              		@ args = 0, pretend = 0, frame = 0
 524              		@ frame_needed = 0, uses_anonymous_args = 0
 525 0000 08B5     		push	{r3, lr}
 526              		.cfi_def_cfa_offset 8
 527              		.cfi_offset 3, -8
 528              		.cfi_offset 14, -4
1033:.\Generated_Source\PSoC5/USBUART_1_std.c ****     const T_USBUART_1_LUT CYCODE *pTmp;
1034:.\Generated_Source\PSoC5/USBUART_1_std.c ****     const uint8 CYCODE *pInterfaceClass;
1035:.\Generated_Source\PSoC5/USBUART_1_std.c ****     uint8 currentInterfacesNum;
1036:.\Generated_Source\PSoC5/USBUART_1_std.c **** 
1037:.\Generated_Source\PSoC5/USBUART_1_std.c ****     pTmp = USBUART_1_GetConfigTablePtr(USBUART_1_configuration - 1u);
 529              		.loc 1 1037 0
 530 0002 064B     		ldr	r3, .L53
 531 0004 1878     		ldrb	r0, [r3]	@ zero_extendqisi2
 532 0006 0138     		subs	r0, r0, #1
 533 0008 C0B2     		uxtb	r0, r0
 534 000a FFF7FEFF 		bl	USBUART_1_GetConfigTablePtr
 535              	.LVL31:
1038:.\Generated_Source\PSoC5/USBUART_1_std.c ****     if (pTmp != NULL)
 536              		.loc 1 1038 0
 537 000e 20B1     		cbz	r0, .L51
 538              	.LVL32:
1039:.\Generated_Source\PSoC5/USBUART_1_std.c ****     {
1040:.\Generated_Source\PSoC5/USBUART_1_std.c ****         currentInterfacesNum  = ((const uint8 *) pTmp->p_list)[USBUART_1_CONFIG_DESCR_NUM_INTERFACE
 539              		.loc 1 1040 0
 540 0010 4368     		ldr	r3, [r0, #4]
1041:.\Generated_Source\PSoC5/USBUART_1_std.c ****         /* Third entry in the LUT starts the Interface Table pointers */
1042:.\Generated_Source\PSoC5/USBUART_1_std.c ****         /* The INTERFACE_CLASS table is located after all interfaces */
1043:.\Generated_Source\PSoC5/USBUART_1_std.c ****         pTmp = &pTmp[currentInterfacesNum + 2u];
 541              		.loc 1 1043 0
 542 0012 1B79     		ldrb	r3, [r3, #4]	@ zero_extendqisi2
 543              	.LVL33:
1044:.\Generated_Source\PSoC5/USBUART_1_std.c ****         pInterfaceClass = (const uint8 CYCODE *) pTmp->p_list;
 544              		.loc 1 1044 0
 545 0014 00EBC300 		add	r0, r0, r3, lsl #3
 546              	.LVL34:
 547 0018 4069     		ldr	r0, [r0, #20]
 548              	.LVL35:
 549              	.L51:
1045:.\Generated_Source\PSoC5/USBUART_1_std.c ****     }
1046:.\Generated_Source\PSoC5/USBUART_1_std.c ****     else
1047:.\Generated_Source\PSoC5/USBUART_1_std.c ****     {
1048:.\Generated_Source\PSoC5/USBUART_1_std.c ****         pInterfaceClass = (const uint8 CYCODE *) NULL;
1049:.\Generated_Source\PSoC5/USBUART_1_std.c ****     }
1050:.\Generated_Source\PSoC5/USBUART_1_std.c **** 
1051:.\Generated_Source\PSoC5/USBUART_1_std.c ****     return (pInterfaceClass);
1052:.\Generated_Source\PSoC5/USBUART_1_std.c **** }
 550              		.loc 1 1052 0
ARM GAS  C:\Users\miyag\AppData\Local\Temp\ccphtVl4.s 			page 30


 551 001a 08BD     		pop	{r3, pc}
 552              	.L54:
 553              		.align	2
 554              	.L53:
 555 001c 00000000 		.word	USBUART_1_configuration
 556              		.cfi_endproc
 557              	.LFE8:
 558              		.size	USBUART_1_GetInterfaceClassTablePtr, .-USBUART_1_GetInterfaceClassTablePtr
 559              		.section	.text.USBUART_1_Config,"ax",%progbits
 560              		.align	1
 561              		.global	USBUART_1_Config
 562              		.thumb
 563              		.thumb_func
 564              		.type	USBUART_1_Config, %function
 565              	USBUART_1_Config:
 566              	.LFB4:
 571:.\Generated_Source\PSoC5/USBUART_1_std.c ****     uint8 ep;
 567              		.loc 1 571 0
 568              		.cfi_startproc
 569              		@ args = 0, pretend = 0, frame = 0
 570              		@ frame_needed = 0, uses_anonymous_args = 0
 571              	.LVL36:
 572 0000 2DE9F047 		push	{r4, r5, r6, r7, r8, r9, r10, lr}
 573              		.cfi_def_cfa_offset 32
 574              		.cfi_offset 4, -32
 575              		.cfi_offset 5, -28
 576              		.cfi_offset 6, -24
 577              		.cfi_offset 7, -20
 578              		.cfi_offset 8, -16
 579              		.cfi_offset 9, -12
 580              		.cfi_offset 10, -8
 581              		.cfi_offset 14, -4
 571:.\Generated_Source\PSoC5/USBUART_1_std.c ****     uint8 ep;
 582              		.loc 1 571 0
 583 0004 0021     		movs	r1, #0
 584              	.LVL37:
 585              	.L56:
 588:.\Generated_Source\PSoC5/USBUART_1_std.c ****         USBUART_1_EP[ep].hwEpState  = 0u;
 586              		.loc 1 588 0 discriminator 3
 587 0006 0C24     		movs	r4, #12
 588 0008 4C43     		muls	r4, r1, r4
 589 000a 524D     		ldr	r5, .L85
 590 000c 0131     		adds	r1, r1, #1
 591              	.LVL38:
 592 000e 0023     		movs	r3, #0
 593 0010 2A19     		adds	r2, r5, r4
 586:.\Generated_Source\PSoC5/USBUART_1_std.c ****     {
 594              		.loc 1 586 0 discriminator 3
 595 0012 0929     		cmp	r1, #9
 588:.\Generated_Source\PSoC5/USBUART_1_std.c ****         USBUART_1_EP[ep].hwEpState  = 0u;
 596              		.loc 1 588 0 discriminator 3
 597 0014 2B55     		strb	r3, [r5, r4]
 589:.\Generated_Source\PSoC5/USBUART_1_std.c ****         USBUART_1_EP[ep].epToggle   = 0u;
 598              		.loc 1 589 0 discriminator 3
 599 0016 9370     		strb	r3, [r2, #2]
 590:.\Generated_Source\PSoC5/USBUART_1_std.c ****         USBUART_1_EP[ep].bufferSize = 0u;
 600              		.loc 1 590 0 discriminator 3
ARM GAS  C:\Users\miyag\AppData\Local\Temp\ccphtVl4.s 			page 31


 601 0018 D370     		strb	r3, [r2, #3]
 591:.\Generated_Source\PSoC5/USBUART_1_std.c ****         USBUART_1_EP[ep].interface  = 0u;
 602              		.loc 1 591 0 discriminator 3
 603 001a 1381     		strh	r3, [r2, #8]	@ movhi
 592:.\Generated_Source\PSoC5/USBUART_1_std.c ****         USBUART_1_EP[ep].apiEpState = USBUART_1_NO_EVENT_PENDING;
 604              		.loc 1 592 0 discriminator 3
 605 001c 9372     		strb	r3, [r2, #10]
 593:.\Generated_Source\PSoC5/USBUART_1_std.c ****         USBUART_1_EP[ep].epMode     = USBUART_1_MODE_DISABLE;   
 606              		.loc 1 593 0 discriminator 3
 607 001e 5370     		strb	r3, [r2, #1]
 594:.\Generated_Source\PSoC5/USBUART_1_std.c ****     }
 608              		.loc 1 594 0 discriminator 3
 609 0020 5371     		strb	r3, [r2, #5]
 586:.\Generated_Source\PSoC5/USBUART_1_std.c ****     {
 610              		.loc 1 586 0 discriminator 3
 611 0022 F0D1     		bne	.L56
 598:.\Generated_Source\PSoC5/USBUART_1_std.c ****     {
 612              		.loc 1 598 0
 613 0024 28B1     		cbz	r0, .L57
 614              	.LVL39:
 602:.\Generated_Source\PSoC5/USBUART_1_std.c ****             USBUART_1_interfaceSettingLast[i] = 0u;
 615              		.loc 1 602 0 discriminator 1
 616 0026 4C49     		ldr	r1, .L85+4
 603:.\Generated_Source\PSoC5/USBUART_1_std.c ****         }
 617              		.loc 1 603 0 discriminator 1
 618 0028 4C4A     		ldr	r2, .L85+8
 602:.\Generated_Source\PSoC5/USBUART_1_std.c ****             USBUART_1_interfaceSettingLast[i] = 0u;
 619              		.loc 1 602 0 discriminator 1
 620 002a 0B70     		strb	r3, [r1]
 603:.\Generated_Source\PSoC5/USBUART_1_std.c ****         }
 621              		.loc 1 603 0 discriminator 1
 622 002c 1370     		strb	r3, [r2]
 623              	.LVL40:
 602:.\Generated_Source\PSoC5/USBUART_1_std.c ****             USBUART_1_interfaceSettingLast[i] = 0u;
 624              		.loc 1 602 0 discriminator 1
 625 002e 4B70     		strb	r3, [r1, #1]
 603:.\Generated_Source\PSoC5/USBUART_1_std.c ****         }
 626              		.loc 1 603 0 discriminator 1
 627 0030 5370     		strb	r3, [r2, #1]
 628              	.LVL41:
 629              	.L57:
 608:.\Generated_Source\PSoC5/USBUART_1_std.c ****     {
 630              		.loc 1 608 0
 631 0032 4B4B     		ldr	r3, .L85+12
 632 0034 1A78     		ldrb	r2, [r3]	@ zero_extendqisi2
 633 0036 002A     		cmp	r2, #0
 634 0038 00F08980 		beq	.L55
 635              	.LVL42:
 636              	.LBB12:
 637              	.LBB13:
 638              	.LBB14:
 614:.\Generated_Source\PSoC5/USBUART_1_std.c ****         
 639              		.loc 1 614 0
 640 003c 1878     		ldrb	r0, [r3]	@ zero_extendqisi2
 641              	.LVL43:
 629:.\Generated_Source\PSoC5/USBUART_1_std.c **** 
 642              		.loc 1 629 0
ARM GAS  C:\Users\miyag\AppData\Local\Temp\ccphtVl4.s 			page 32


 643 003e 0127     		movs	r7, #1
 614:.\Generated_Source\PSoC5/USBUART_1_std.c ****         
 644              		.loc 1 614 0
 645 0040 0138     		subs	r0, r0, #1
 646 0042 C0B2     		uxtb	r0, r0
 647 0044 FFF7FEFF 		bl	USBUART_1_GetConfigTablePtr
 648              	.LVL44:
 649 0048 8046     		mov	r8, r0
 650              	.LVL45:
 618:.\Generated_Source\PSoC5/USBUART_1_std.c ****         {
 651              		.loc 1 618 0
 652 004a 4368     		ldr	r3, [r0, #4]
 653 004c 067A     		ldrb	r6, [r0, #8]	@ zero_extendqisi2
 654 004e DB79     		ldrb	r3, [r3, #7]	@ zero_extendqisi2
 655 0050 F600     		lsls	r6, r6, #3
 656 0052 13F0400F 		tst	r3, #64
 657 0056 434B     		ldr	r3, .L85+16
 620:.\Generated_Source\PSoC5/USBUART_1_std.c ****         }
 658              		.loc 1 620 0
 659 0058 1A78     		ldrb	r2, [r3]	@ zero_extendqisi2
 660 005a 14BF     		ite	ne
 661 005c 42F00102 		orrne	r2, r2, #1
 624:.\Generated_Source\PSoC5/USBUART_1_std.c ****         }
 662              		.loc 1 624 0
 663 0060 02F0FE02 		andeq	r2, r2, #254
 664 0064 1A70     		strb	r2, [r3]
 665              	.LVL46:
 611:.\Generated_Source\PSoC5/USBUART_1_std.c ****         #endif  /* (USBUART_1_ENABLE_CDC_CLASS) */  
 666              		.loc 1 611 0
 667 0066 0022     		movs	r2, #0
 668              	.LVL47:
 669              	.L69:
 690:.\Generated_Source\PSoC5/USBUART_1_std.c ****                 /* Find max length for each EP and select it (length could be different in differen
 670              		.loc 1 690 0
 671 0068 D8F80C40 		ldr	r4, [r8, #12]
 672 006c 5FFA87FA 		uxtb	r10, r7
 673              	.LVL48:
 674 0070 04EB0609 		add	r9, r4, r6
 675              	.LVL49:
 676              	.L61:
 694:.\Generated_Source\PSoC5/USBUART_1_std.c ****                 {
 677              		.loc 1 694 0
 678 0074 4C45     		cmp	r4, r9
 679 0076 3CD0     		beq	.L83
 696:.\Generated_Source\PSoC5/USBUART_1_std.c ****                     {
 680              		.loc 1 696 0
 681 0078 A078     		ldrb	r0, [r4, #2]	@ zero_extendqisi2
 682 007a 00F07F03 		and	r3, r0, #127
 683 007e 9F42     		cmp	r7, r3
 684 0080 35D1     		bne	.L62
 699:.\Generated_Source\PSoC5/USBUART_1_std.c ****                         {
 685              		.loc 1 699 0
 686 0082 0C23     		movs	r3, #12
 687 0084 03FB0753 		mla	r3, r3, r7, r5
 688 0088 1989     		ldrh	r1, [r3, #8]
 689 008a B4F804E0 		ldrh	lr, [r4, #4]
 690 008e 89B2     		uxth	r1, r1
ARM GAS  C:\Users\miyag\AppData\Local\Temp\ccphtVl4.s 			page 33


 691 0090 7145     		cmp	r1, lr
 701:.\Generated_Source\PSoC5/USBUART_1_std.c ****                         }
 692              		.loc 1 701 0
 693 0092 38BF     		it	cc
 694 0094 A3F808E0 		strhcc	lr, [r3, #8]	@ movhi
 705:.\Generated_Source\PSoC5/USBUART_1_std.c ****                         {                            
 695              		.loc 1 705 0
 696 0098 2F49     		ldr	r1, .L85+4
 697 009a 2378     		ldrb	r3, [r4]	@ zero_extendqisi2
 698 009c CB5C     		ldrb	r3, [r1, r3]	@ zero_extendqisi2
 699 009e 6178     		ldrb	r1, [r4, #1]	@ zero_extendqisi2
 700 00a0 9942     		cmp	r1, r3
 701 00a2 24D1     		bne	.L62
 707:.\Generated_Source\PSoC5/USBUART_1_std.c ****                             USBUART_1_EP[i].attrib = pEP->attributes;
 702              		.loc 1 707 0
 703 00a4 0C21     		movs	r1, #12
 704 00a6 7943     		muls	r1, r7, r1
 705 00a8 6B18     		adds	r3, r5, r1
 706 00aa 1871     		strb	r0, [r3, #4]
 708:.\Generated_Source\PSoC5/USBUART_1_std.c ****                             
 707              		.loc 1 708 0
 708 00ac E078     		ldrb	r0, [r4, #3]	@ zero_extendqisi2
 709 00ae 6854     		strb	r0, [r5, r1]
 712:.\Generated_Source\PSoC5/USBUART_1_std.c ****                             {
 710              		.loc 1 712 0
 711 00b0 94F90200 		ldrsb	r0, [r4, #2]
 710:.\Generated_Source\PSoC5/USBUART_1_std.c ****                             
 712              		.loc 1 710 0
 713 00b4 E178     		ldrb	r1, [r4, #3]	@ zero_extendqisi2
 712:.\Generated_Source\PSoC5/USBUART_1_std.c ****                             {
 714              		.loc 1 712 0
 715 00b6 0028     		cmp	r0, #0
 710:.\Generated_Source\PSoC5/USBUART_1_std.c ****                             
 716              		.loc 1 710 0
 717 00b8 01F00301 		and	r1, r1, #3
 718              	.LVL50:
 712:.\Generated_Source\PSoC5/USBUART_1_std.c ****                             {
 719              		.loc 1 712 0
 720 00bc 06DA     		bge	.L64
 715:.\Generated_Source\PSoC5/USBUART_1_std.c ****                                 USBUART_1_EP[i].apiEpState = USBUART_1_EVENT_PENDING;
 721              		.loc 1 715 0
 722 00be 0129     		cmp	r1, #1
 723 00c0 0CBF     		ite	eq
 724 00c2 0721     		moveq	r1, #7
 725              	.LVL51:
 726 00c4 0D21     		movne	r1, #13
 727 00c6 5971     		strb	r1, [r3, #5]
 728              	.LVL52:
 716:.\Generated_Source\PSoC5/USBUART_1_std.c ****                                 
 729              		.loc 1 716 0
 730 00c8 0121     		movs	r1, #1
 731 00ca 05E0     		b	.L82
 732              	.LVL53:
 733              	.L64:
 728:.\Generated_Source\PSoC5/USBUART_1_std.c ****                                 USBUART_1_EP[i].apiEpState = USBUART_1_NO_EVENT_PENDING;
 734              		.loc 1 728 0
 735 00cc 0129     		cmp	r1, #1
ARM GAS  C:\Users\miyag\AppData\Local\Temp\ccphtVl4.s 			page 34


 736 00ce 0CBF     		ite	eq
 737 00d0 0521     		moveq	r1, #5
 738              	.LVL54:
 739 00d2 0921     		movne	r1, #9
 740 00d4 5971     		strb	r1, [r3, #5]
 741              	.LVL55:
 729:.\Generated_Source\PSoC5/USBUART_1_std.c ****                                 
 742              		.loc 1 729 0
 743 00d6 0021     		movs	r1, #0
 744              	.L82:
 745 00d8 5970     		strb	r1, [r3, #1]
 740:.\Generated_Source\PSoC5/USBUART_1_std.c ****                             {
 746              		.loc 1 740 0
 747 00da A379     		ldrb	r3, [r4, #6]	@ zero_extendqisi2
 748 00dc 03F0F703 		and	r3, r3, #247
 749 00e0 022B     		cmp	r3, #2
 750 00e2 04D1     		bne	.L62
 742:.\Generated_Source\PSoC5/USBUART_1_std.c ****                             }
 751              		.loc 1 742 0
 752 00e4 2046     		mov	r0, r4
 753 00e6 5146     		mov	r1, r10
 754 00e8 FFF7FEFF 		bl	USBUART_1_Cdc_EpInit
 755              	.LVL56:
 756 00ec 0246     		mov	r2, r0
 757              	.LVL57:
 758              	.L62:
 752:.\Generated_Source\PSoC5/USBUART_1_std.c ****                 }
 759              		.loc 1 752 0
 760 00ee 0834     		adds	r4, r4, #8
 761              	.LVL58:
 762 00f0 C0E7     		b	.L61
 763              	.L83:
 764              	.LVL59:
 765 00f2 0137     		adds	r7, r7, #1
 766              	.LVL60:
 687:.\Generated_Source\PSoC5/USBUART_1_std.c ****             {
 767              		.loc 1 687 0
 768 00f4 092F     		cmp	r7, #9
 769 00f6 B7D1     		bne	.L69
 762:.\Generated_Source\PSoC5/USBUART_1_std.c ****         for (i = 0u; i < ep; i++)
 770              		.loc 1 762 0
 771 00f8 D8F80C30 		ldr	r3, [r8, #12]
 772              	.LVL61:
 773 00fc 0A36     		adds	r6, r6, #10
 774 00fe 9A1C     		adds	r2, r3, #2
 775              	.LVL62:
 776 0100 1E44     		add	r6, r6, r3
 777              	.LVL63:
 778              	.L70:
 779 0102 0832     		adds	r2, r2, #8
 780              	.LVL64:
 763:.\Generated_Source\PSoC5/USBUART_1_std.c ****         {
 781              		.loc 1 763 0
 782 0104 B242     		cmp	r2, r6
 783 0106 0AD0     		beq	.L84
 766:.\Generated_Source\PSoC5/USBUART_1_std.c ****             pEP = &pEP[1u];
 784              		.loc 1 766 0
ARM GAS  C:\Users\miyag\AppData\Local\Temp\ccphtVl4.s 			page 35


 785 0108 12F8083C 		ldrb	r3, [r2, #-8]	@ zero_extendqisi2
 786 010c 0C20     		movs	r0, #12
 787 010e 03F07F03 		and	r3, r3, #127
 788 0112 00FB0353 		mla	r3, r0, r3, r5
 789 0116 12F80A1C 		ldrb	r1, [r2, #-10]	@ zero_extendqisi2
 790 011a 9972     		strb	r1, [r3, #10]
 791              	.LVL65:
 792 011c F1E7     		b	.L70
 793              	.LVL66:
 794              	.L84:
 771:.\Generated_Source\PSoC5/USBUART_1_std.c ****         
 795              		.loc 1 771 0
 796 011e FFF7FEFF 		bl	USBUART_1_GetInterfaceClassTablePtr
 797              	.LVL67:
 798 0122 114B     		ldr	r3, .L85+20
 799 0124 0121     		movs	r1, #1
 800 0126 1860     		str	r0, [r3]
 801              	.LVL68:
 775:.\Generated_Source\PSoC5/USBUART_1_std.c ****         for (ep = USBUART_1_EP1; ep < USBUART_1_MAX_EP; ++ep)
 802              		.loc 1 775 0
 803 0128 0023     		movs	r3, #0
 804              	.LVL69:
 805              	.L72:
 778:.\Generated_Source\PSoC5/USBUART_1_std.c ****             buffCount += USBUART_1_EP[ep].bufferSize;
 806              		.loc 1 778 0
 807 012a 0C22     		movs	r2, #12
 808 012c 02FB0152 		mla	r2, r2, r1, r5
 809 0130 D380     		strh	r3, [r2, #6]	@ movhi
 779:.\Generated_Source\PSoC5/USBUART_1_std.c ****             
 810              		.loc 1 779 0
 811 0132 1289     		ldrh	r2, [r2, #8]
 812 0134 0131     		adds	r1, r1, #1
 813              	.LVL70:
 814 0136 1344     		add	r3, r3, r2
 815              	.LVL71:
 816 0138 9BB2     		uxth	r3, r3
 817              	.LVL72:
 783:.\Generated_Source\PSoC5/USBUART_1_std.c ****         #endif /* (USBUART_1_GEN_16BITS_EP_ACCESS) */            
 818              		.loc 1 783 0
 819 013a 03F00102 		and	r2, r3, #1
 820 013e 1344     		add	r3, r3, r2
 821              	.LVL73:
 776:.\Generated_Source\PSoC5/USBUART_1_std.c ****         {
 822              		.loc 1 776 0
 823 0140 0929     		cmp	r1, #9
 783:.\Generated_Source\PSoC5/USBUART_1_std.c ****         #endif /* (USBUART_1_GEN_16BITS_EP_ACCESS) */            
 824              		.loc 1 783 0
 825 0142 9BB2     		uxth	r3, r3
 826              	.LVL74:
 776:.\Generated_Source\PSoC5/USBUART_1_std.c ****         {
 827              		.loc 1 776 0
 828 0144 F1D1     		bne	.L72
 829              	.LBE14:
 830              	.LBE13:
 831              	.LBE12:
 791:.\Generated_Source\PSoC5/USBUART_1_std.c **** 
 832              		.loc 1 791 0
ARM GAS  C:\Users\miyag\AppData\Local\Temp\ccphtVl4.s 			page 36


 833 0146 BDE8F047 		pop	{r4, r5, r6, r7, r8, r9, r10, lr}
 834              		.cfi_remember_state
 835              		.cfi_restore 14
 836              		.cfi_restore 10
 837              		.cfi_restore 9
 838              		.cfi_restore 8
 839              		.cfi_restore 7
 840              		.cfi_restore 6
 841              		.cfi_restore 5
 842              		.cfi_restore 4
 843              		.cfi_def_cfa_offset 0
 844              	.LVL75:
 845              	.LBB17:
 846              	.LBB16:
 847              	.LBB15:
 789:.\Generated_Source\PSoC5/USBUART_1_std.c ****     }
 848              		.loc 1 789 0
 849 014a FFF7FEBF 		b	USBUART_1_ConfigReg
 850              	.LVL76:
 851              	.L55:
 852              		.cfi_restore_state
 853 014e BDE8F087 		pop	{r4, r5, r6, r7, r8, r9, r10, pc}
 854              	.L86:
 855 0152 00BF     		.align	2
 856              	.L85:
 857 0154 00000000 		.word	USBUART_1_EP
 858 0158 00000000 		.word	USBUART_1_interfaceSetting
 859 015c 00000000 		.word	USBUART_1_interfaceSettingLast
 860 0160 00000000 		.word	USBUART_1_configuration
 861 0164 00000000 		.word	USBUART_1_deviceStatus
 862 0168 00000000 		.word	USBUART_1_interfaceClass
 863              	.LBE15:
 864              	.LBE16:
 865              	.LBE17:
 866              		.cfi_endproc
 867              	.LFE4:
 868              		.size	USBUART_1_Config, .-USBUART_1_Config
 869              		.section	.text.USBUART_1_TerminateEP,"ax",%progbits
 870              		.align	1
 871              		.global	USBUART_1_TerminateEP
 872              		.thumb
 873              		.thumb_func
 874              		.type	USBUART_1_TerminateEP, %function
 875              	USBUART_1_TerminateEP:
 876              	.LFB9:
1053:.\Generated_Source\PSoC5/USBUART_1_std.c **** 
1054:.\Generated_Source\PSoC5/USBUART_1_std.c **** 
1055:.\Generated_Source\PSoC5/USBUART_1_std.c **** /*******************************************************************************
1056:.\Generated_Source\PSoC5/USBUART_1_std.c **** * Function Name: USBUART_1_TerminateEP
1057:.\Generated_Source\PSoC5/USBUART_1_std.c **** ****************************************************************************//**
1058:.\Generated_Source\PSoC5/USBUART_1_std.c **** *
1059:.\Generated_Source\PSoC5/USBUART_1_std.c **** *  This function terminates the specified USBFS endpoint.
1060:.\Generated_Source\PSoC5/USBUART_1_std.c **** *  This function should be used before endpoint reconfiguration.
1061:.\Generated_Source\PSoC5/USBUART_1_std.c **** *
1062:.\Generated_Source\PSoC5/USBUART_1_std.c **** *  \param ep Contains the data endpoint number.
1063:.\Generated_Source\PSoC5/USBUART_1_std.c **** *
1064:.\Generated_Source\PSoC5/USBUART_1_std.c **** *  \reentrant
ARM GAS  C:\Users\miyag\AppData\Local\Temp\ccphtVl4.s 			page 37


1065:.\Generated_Source\PSoC5/USBUART_1_std.c **** *  No.
1066:.\Generated_Source\PSoC5/USBUART_1_std.c **** *
1067:.\Generated_Source\PSoC5/USBUART_1_std.c **** * \sideeffect
1068:.\Generated_Source\PSoC5/USBUART_1_std.c **** * 
1069:.\Generated_Source\PSoC5/USBUART_1_std.c **** * The device responds with a NAK for any transactions on the selected endpoint.
1070:.\Generated_Source\PSoC5/USBUART_1_std.c **** *   
1071:.\Generated_Source\PSoC5/USBUART_1_std.c **** *******************************************************************************/
1072:.\Generated_Source\PSoC5/USBUART_1_std.c **** void USBUART_1_TerminateEP(uint8 epNumber) 
1073:.\Generated_Source\PSoC5/USBUART_1_std.c **** {
 877              		.loc 1 1073 0
 878              		.cfi_startproc
 879              		@ args = 0, pretend = 0, frame = 0
 880              		@ frame_needed = 0, uses_anonymous_args = 0
 881              		@ link register save eliminated.
 882              	.LVL77:
1074:.\Generated_Source\PSoC5/USBUART_1_std.c ****     /* Get endpoint number */
1075:.\Generated_Source\PSoC5/USBUART_1_std.c ****     epNumber &= USBUART_1_DIR_UNUSED;
 883              		.loc 1 1075 0
 884 0000 00F07F00 		and	r0, r0, #127
 885              	.LVL78:
1076:.\Generated_Source\PSoC5/USBUART_1_std.c **** 
1077:.\Generated_Source\PSoC5/USBUART_1_std.c ****     if ((epNumber > USBUART_1_EP0) && (epNumber < USBUART_1_MAX_EP))
 886              		.loc 1 1077 0
 887 0004 431E     		subs	r3, r0, #1
 888 0006 072B     		cmp	r3, #7
 889 0008 15D8     		bhi	.L87
1078:.\Generated_Source\PSoC5/USBUART_1_std.c ****     {
1079:.\Generated_Source\PSoC5/USBUART_1_std.c ****         /* Set the endpoint Halt */
1080:.\Generated_Source\PSoC5/USBUART_1_std.c ****         USBUART_1_EP[epNumber].hwEpState |= USBUART_1_ENDPOINT_STATUS_HALT;
 890              		.loc 1 1080 0
 891 000a 0B4B     		ldr	r3, .L90
 892 000c 0C21     		movs	r1, #12
 893 000e 01FB0033 		mla	r3, r1, r0, r3
 894 0012 9A78     		ldrb	r2, [r3, #2]	@ zero_extendqisi2
 895 0014 0001     		lsls	r0, r0, #4
 896              	.LVL79:
 897 0016 42F00102 		orr	r2, r2, #1
 898 001a 9A70     		strb	r2, [r3, #2]
1081:.\Generated_Source\PSoC5/USBUART_1_std.c **** 
1082:.\Generated_Source\PSoC5/USBUART_1_std.c ****         /* Clear the data toggle */
1083:.\Generated_Source\PSoC5/USBUART_1_std.c ****         USBUART_1_EP[epNumber].epToggle = 0u;
 899              		.loc 1 1083 0
 900 001c 0022     		movs	r2, #0
 901 001e DA70     		strb	r2, [r3, #3]
1084:.\Generated_Source\PSoC5/USBUART_1_std.c ****         USBUART_1_EP[epNumber].apiEpState = USBUART_1_NO_EVENT_ALLOWED;
 902              		.loc 1 1084 0
 903 0020 0222     		movs	r2, #2
 904 0022 5A70     		strb	r2, [r3, #1]
1085:.\Generated_Source\PSoC5/USBUART_1_std.c **** 
1086:.\Generated_Source\PSoC5/USBUART_1_std.c ****         if ((USBUART_1_EP[epNumber].addr & USBUART_1_DIR_IN) != 0u)
 905              		.loc 1 1086 0
 906 0024 1B79     		ldrb	r3, [r3, #4]	@ zero_extendqisi2
 907 0026 13F0800F 		tst	r3, #128
1087:.\Generated_Source\PSoC5/USBUART_1_std.c ****         {   
1088:.\Generated_Source\PSoC5/USBUART_1_std.c ****             /* IN Endpoint */
1089:.\Generated_Source\PSoC5/USBUART_1_std.c ****             USBUART_1_SIE_EP_BASE.sieEp[epNumber].epCr0 = USBUART_1_MODE_NAK_IN;
 908              		.loc 1 1089 0
ARM GAS  C:\Users\miyag\AppData\Local\Temp\ccphtVl4.s 			page 38


 909 002a 044B     		ldr	r3, .L90+4
1086:.\Generated_Source\PSoC5/USBUART_1_std.c ****         {   
 910              		.loc 1 1086 0
 911 002c 01D0     		beq	.L89
 912              		.loc 1 1089 0
 913 002e 1954     		strb	r1, [r3, r0]
 914 0030 7047     		bx	lr
 915              	.L89:
1090:.\Generated_Source\PSoC5/USBUART_1_std.c ****         }
1091:.\Generated_Source\PSoC5/USBUART_1_std.c ****         else
1092:.\Generated_Source\PSoC5/USBUART_1_std.c ****         {
1093:.\Generated_Source\PSoC5/USBUART_1_std.c ****             /* OUT Endpoint */
1094:.\Generated_Source\PSoC5/USBUART_1_std.c ****             USBUART_1_SIE_EP_BASE.sieEp[epNumber].epCr0 = USBUART_1_MODE_NAK_OUT;
 916              		.loc 1 1094 0
 917 0032 0822     		movs	r2, #8
 918 0034 1A54     		strb	r2, [r3, r0]
 919              	.L87:
 920 0036 7047     		bx	lr
 921              	.L91:
 922              		.align	2
 923              	.L90:
 924 0038 00000000 		.word	USBUART_1_EP
 925 003c FE5F0040 		.word	1073766398
 926              		.cfi_endproc
 927              	.LFE9:
 928              		.size	USBUART_1_TerminateEP, .-USBUART_1_TerminateEP
 929              		.section	.text.USBUART_1_SetEndpointHalt,"ax",%progbits
 930              		.align	1
 931              		.global	USBUART_1_SetEndpointHalt
 932              		.thumb
 933              		.thumb_func
 934              		.type	USBUART_1_SetEndpointHalt, %function
 935              	USBUART_1_SetEndpointHalt:
 936              	.LFB10:
1095:.\Generated_Source\PSoC5/USBUART_1_std.c ****         }
1096:.\Generated_Source\PSoC5/USBUART_1_std.c ****     }
1097:.\Generated_Source\PSoC5/USBUART_1_std.c **** }
1098:.\Generated_Source\PSoC5/USBUART_1_std.c **** 
1099:.\Generated_Source\PSoC5/USBUART_1_std.c **** 
1100:.\Generated_Source\PSoC5/USBUART_1_std.c **** /*******************************************************************************
1101:.\Generated_Source\PSoC5/USBUART_1_std.c **** * Function Name: USBUART_1_SetEndpointHalt
1102:.\Generated_Source\PSoC5/USBUART_1_std.c **** ****************************************************************************//**
1103:.\Generated_Source\PSoC5/USBUART_1_std.c **** *
1104:.\Generated_Source\PSoC5/USBUART_1_std.c **** *  This routine handles set endpoint halt.
1105:.\Generated_Source\PSoC5/USBUART_1_std.c **** *
1106:.\Generated_Source\PSoC5/USBUART_1_std.c **** * \return
1107:.\Generated_Source\PSoC5/USBUART_1_std.c **** *  requestHandled.
1108:.\Generated_Source\PSoC5/USBUART_1_std.c **** *
1109:.\Generated_Source\PSoC5/USBUART_1_std.c **** * \reentrant
1110:.\Generated_Source\PSoC5/USBUART_1_std.c **** *  No.
1111:.\Generated_Source\PSoC5/USBUART_1_std.c **** *
1112:.\Generated_Source\PSoC5/USBUART_1_std.c **** *******************************************************************************/
1113:.\Generated_Source\PSoC5/USBUART_1_std.c **** uint8 USBUART_1_SetEndpointHalt(void) 
1114:.\Generated_Source\PSoC5/USBUART_1_std.c **** {
 937              		.loc 1 1114 0
 938              		.cfi_startproc
 939              		@ args = 0, pretend = 0, frame = 0
ARM GAS  C:\Users\miyag\AppData\Local\Temp\ccphtVl4.s 			page 39


 940              		@ frame_needed = 0, uses_anonymous_args = 0
 941              		@ link register save eliminated.
 942              	.LVL80:
1115:.\Generated_Source\PSoC5/USBUART_1_std.c ****     uint8 requestHandled = USBUART_1_FALSE;
1116:.\Generated_Source\PSoC5/USBUART_1_std.c ****     uint8 ep;
1117:.\Generated_Source\PSoC5/USBUART_1_std.c ****     
1118:.\Generated_Source\PSoC5/USBUART_1_std.c ****     /* Set endpoint halt */
1119:.\Generated_Source\PSoC5/USBUART_1_std.c ****     ep = USBUART_1_wIndexLoReg & USBUART_1_DIR_UNUSED;
 943              		.loc 1 1119 0
 944 0000 114B     		ldr	r3, .L97
 945 0002 1B79     		ldrb	r3, [r3, #4]	@ zero_extendqisi2
 946 0004 03F07F03 		and	r3, r3, #127
 947              	.LVL81:
1120:.\Generated_Source\PSoC5/USBUART_1_std.c **** 
1121:.\Generated_Source\PSoC5/USBUART_1_std.c ****     if ((ep > USBUART_1_EP0) && (ep < USBUART_1_MAX_EP))
 948              		.loc 1 1121 0
 949 0008 5A1E     		subs	r2, r3, #1
 950 000a 072A     		cmp	r2, #7
 951 000c 19D8     		bhi	.L93
1122:.\Generated_Source\PSoC5/USBUART_1_std.c ****     {
1123:.\Generated_Source\PSoC5/USBUART_1_std.c ****         /* Set the endpoint Halt */
1124:.\Generated_Source\PSoC5/USBUART_1_std.c ****         USBUART_1_EP[ep].hwEpState |= (USBUART_1_ENDPOINT_STATUS_HALT);
 952              		.loc 1 1124 0
 953 000e 0F49     		ldr	r1, .L97+4
 954 0010 0C22     		movs	r2, #12
 955 0012 02FB0312 		mla	r2, r2, r3, r1
 956 0016 9178     		ldrb	r1, [r2, #2]	@ zero_extendqisi2
 957 0018 1B01     		lsls	r3, r3, #4
 958              	.LVL82:
 959 001a 41F00101 		orr	r1, r1, #1
 960 001e 9170     		strb	r1, [r2, #2]
1125:.\Generated_Source\PSoC5/USBUART_1_std.c **** 
1126:.\Generated_Source\PSoC5/USBUART_1_std.c ****         /* Clear the data toggle */
1127:.\Generated_Source\PSoC5/USBUART_1_std.c ****         USBUART_1_EP[ep].epToggle = 0u;
 961              		.loc 1 1127 0
 962 0020 0021     		movs	r1, #0
 963 0022 D170     		strb	r1, [r2, #3]
1128:.\Generated_Source\PSoC5/USBUART_1_std.c ****         USBUART_1_EP[ep].apiEpState |= USBUART_1_NO_EVENT_ALLOWED;
 964              		.loc 1 1128 0
 965 0024 5178     		ldrb	r1, [r2, #1]	@ zero_extendqisi2
 966 0026 41F00201 		orr	r1, r1, #2
 967 002a 5170     		strb	r1, [r2, #1]
1129:.\Generated_Source\PSoC5/USBUART_1_std.c **** 
1130:.\Generated_Source\PSoC5/USBUART_1_std.c ****         if ((USBUART_1_EP[ep].addr & USBUART_1_DIR_IN) != 0u)
 968              		.loc 1 1130 0
 969 002c 1279     		ldrb	r2, [r2, #4]	@ zero_extendqisi2
 970 002e 12F0800F 		tst	r2, #128
1131:.\Generated_Source\PSoC5/USBUART_1_std.c ****         {
1132:.\Generated_Source\PSoC5/USBUART_1_std.c ****             /* IN Endpoint */
1133:.\Generated_Source\PSoC5/USBUART_1_std.c ****             USBUART_1_SIE_EP_BASE.sieEp[ep].epCr0 = (USBUART_1_MODE_STALL_DATA_EP | 
 971              		.loc 1 1133 0
 972 0032 074A     		ldr	r2, .L97+8
 973 0034 1A44     		add	r2, r2, r3
 974 0036 14BF     		ite	ne
 975 0038 8D23     		movne	r3, #141
1134:.\Generated_Source\PSoC5/USBUART_1_std.c ****                                                             USBUART_1_MODE_ACK_IN);
1135:.\Generated_Source\PSoC5/USBUART_1_std.c ****         }
ARM GAS  C:\Users\miyag\AppData\Local\Temp\ccphtVl4.s 			page 40


1136:.\Generated_Source\PSoC5/USBUART_1_std.c ****         else
1137:.\Generated_Source\PSoC5/USBUART_1_std.c ****         {
1138:.\Generated_Source\PSoC5/USBUART_1_std.c ****             /* OUT Endpoint */
1139:.\Generated_Source\PSoC5/USBUART_1_std.c ****             USBUART_1_SIE_EP_BASE.sieEp[ep].epCr0 = (USBUART_1_MODE_STALL_DATA_EP | 
 976              		.loc 1 1139 0
 977 003a 8923     		moveq	r3, #137
 978 003c 9370     		strb	r3, [r2, #2]
1140:.\Generated_Source\PSoC5/USBUART_1_std.c ****                                                             USBUART_1_MODE_ACK_OUT);
1141:.\Generated_Source\PSoC5/USBUART_1_std.c ****         }
1142:.\Generated_Source\PSoC5/USBUART_1_std.c ****         requestHandled = USBUART_1_InitNoDataControlTransfer();
 979              		.loc 1 1142 0
 980 003e FFF7FEBF 		b	USBUART_1_InitNoDataControlTransfer
 981              	.LVL83:
 982              	.L93:
1143:.\Generated_Source\PSoC5/USBUART_1_std.c ****     }
1144:.\Generated_Source\PSoC5/USBUART_1_std.c **** 
1145:.\Generated_Source\PSoC5/USBUART_1_std.c ****     return (requestHandled);
1146:.\Generated_Source\PSoC5/USBUART_1_std.c **** }
 983              		.loc 1 1146 0
 984 0042 0020     		movs	r0, #0
 985 0044 7047     		bx	lr
 986              	.L98:
 987 0046 00BF     		.align	2
 988              	.L97:
 989 0048 00600040 		.word	1073766400
 990 004c 00000000 		.word	USBUART_1_EP
 991 0050 FC5F0040 		.word	1073766396
 992              		.cfi_endproc
 993              	.LFE10:
 994              		.size	USBUART_1_SetEndpointHalt, .-USBUART_1_SetEndpointHalt
 995              		.section	.text.USBUART_1_ClearEndpointHalt,"ax",%progbits
 996              		.align	1
 997              		.global	USBUART_1_ClearEndpointHalt
 998              		.thumb
 999              		.thumb_func
 1000              		.type	USBUART_1_ClearEndpointHalt, %function
 1001              	USBUART_1_ClearEndpointHalt:
 1002              	.LFB11:
1147:.\Generated_Source\PSoC5/USBUART_1_std.c **** 
1148:.\Generated_Source\PSoC5/USBUART_1_std.c **** 
1149:.\Generated_Source\PSoC5/USBUART_1_std.c **** /*******************************************************************************
1150:.\Generated_Source\PSoC5/USBUART_1_std.c **** * Function Name: USBUART_1_ClearEndpointHalt
1151:.\Generated_Source\PSoC5/USBUART_1_std.c **** ****************************************************************************//**
1152:.\Generated_Source\PSoC5/USBUART_1_std.c **** *
1153:.\Generated_Source\PSoC5/USBUART_1_std.c **** *  This routine handles clear endpoint halt.
1154:.\Generated_Source\PSoC5/USBUART_1_std.c **** *
1155:.\Generated_Source\PSoC5/USBUART_1_std.c **** * \return
1156:.\Generated_Source\PSoC5/USBUART_1_std.c **** *  requestHandled.
1157:.\Generated_Source\PSoC5/USBUART_1_std.c **** *
1158:.\Generated_Source\PSoC5/USBUART_1_std.c **** * \reentrant
1159:.\Generated_Source\PSoC5/USBUART_1_std.c **** *  No.
1160:.\Generated_Source\PSoC5/USBUART_1_std.c **** *
1161:.\Generated_Source\PSoC5/USBUART_1_std.c **** *******************************************************************************/
1162:.\Generated_Source\PSoC5/USBUART_1_std.c **** uint8 USBUART_1_ClearEndpointHalt(void) 
1163:.\Generated_Source\PSoC5/USBUART_1_std.c **** {
 1003              		.loc 1 1163 0
 1004              		.cfi_startproc
ARM GAS  C:\Users\miyag\AppData\Local\Temp\ccphtVl4.s 			page 41


 1005              		@ args = 0, pretend = 0, frame = 0
 1006              		@ frame_needed = 0, uses_anonymous_args = 0
 1007              	.LVL84:
 1008 0000 30B5     		push	{r4, r5, lr}
 1009              		.cfi_def_cfa_offset 12
 1010              		.cfi_offset 4, -12
 1011              		.cfi_offset 5, -8
 1012              		.cfi_offset 14, -4
1164:.\Generated_Source\PSoC5/USBUART_1_std.c ****     uint8 requestHandled = USBUART_1_FALSE;
1165:.\Generated_Source\PSoC5/USBUART_1_std.c ****     uint8 ep;
1166:.\Generated_Source\PSoC5/USBUART_1_std.c **** 
1167:.\Generated_Source\PSoC5/USBUART_1_std.c ****     /* Clear endpoint halt */
1168:.\Generated_Source\PSoC5/USBUART_1_std.c ****     ep = USBUART_1_wIndexLoReg & USBUART_1_DIR_UNUSED;
 1013              		.loc 1 1168 0
 1014 0002 184B     		ldr	r3, .L106
 1015 0004 1A79     		ldrb	r2, [r3, #4]	@ zero_extendqisi2
 1016 0006 02F07F02 		and	r2, r2, #127
 1017              	.LVL85:
1169:.\Generated_Source\PSoC5/USBUART_1_std.c **** 
1170:.\Generated_Source\PSoC5/USBUART_1_std.c ****     if ((ep > USBUART_1_EP0) && (ep < USBUART_1_MAX_EP))
 1018              		.loc 1 1170 0
 1019 000a 531E     		subs	r3, r2, #1
 1020 000c 072B     		cmp	r3, #7
 1021 000e 26D8     		bhi	.L100
1171:.\Generated_Source\PSoC5/USBUART_1_std.c ****     {
1172:.\Generated_Source\PSoC5/USBUART_1_std.c ****         /* Clear the endpoint Halt */
1173:.\Generated_Source\PSoC5/USBUART_1_std.c ****         USBUART_1_EP[ep].hwEpState &= (uint8) ~USBUART_1_ENDPOINT_STATUS_HALT;
 1022              		.loc 1 1173 0
 1023 0010 154B     		ldr	r3, .L106+4
 1024 0012 0C20     		movs	r0, #12
 1025 0014 00FB0233 		mla	r3, r0, r2, r3
 1026 0018 9978     		ldrb	r1, [r3, #2]	@ zero_extendqisi2
1174:.\Generated_Source\PSoC5/USBUART_1_std.c **** 
1175:.\Generated_Source\PSoC5/USBUART_1_std.c ****         /* Clear the data toggle */
1176:.\Generated_Source\PSoC5/USBUART_1_std.c ****         USBUART_1_EP[ep].epToggle = 0u;
1177:.\Generated_Source\PSoC5/USBUART_1_std.c ****         
1178:.\Generated_Source\PSoC5/USBUART_1_std.c ****         /* Clear toggle bit for already armed packet */
1179:.\Generated_Source\PSoC5/USBUART_1_std.c ****         USBUART_1_SIE_EP_BASE.sieEp[ep].epCnt0 = (uint8) ~(uint8)USBUART_1_EPX_CNT_DATA_TOGGLE;
 1027              		.loc 1 1179 0
 1028 001a 144C     		ldr	r4, .L106+8
1173:.\Generated_Source\PSoC5/USBUART_1_std.c **** 
 1029              		.loc 1 1173 0
 1030 001c 01F0FE01 		and	r1, r1, #254
 1031 0020 9970     		strb	r1, [r3, #2]
1176:.\Generated_Source\PSoC5/USBUART_1_std.c ****         
 1032              		.loc 1 1176 0
 1033 0022 0021     		movs	r1, #0
 1034 0024 D970     		strb	r1, [r3, #3]
 1035 0026 1201     		lsls	r2, r2, #4
 1036              	.LVL86:
 1037 0028 1049     		ldr	r1, .L106+8
 1038              		.loc 1 1179 0
 1039 002a 7F25     		movs	r5, #127
 1040 002c 1555     		strb	r5, [r2, r4]
 1041 002e 1144     		add	r1, r1, r2
1180:.\Generated_Source\PSoC5/USBUART_1_std.c ****         
1181:.\Generated_Source\PSoC5/USBUART_1_std.c ****         /* Return API State as it was defined before */
ARM GAS  C:\Users\miyag\AppData\Local\Temp\ccphtVl4.s 			page 42


1182:.\Generated_Source\PSoC5/USBUART_1_std.c ****         USBUART_1_EP[ep].apiEpState &= (uint8) ~USBUART_1_NO_EVENT_ALLOWED;
 1042              		.loc 1 1182 0
 1043 0030 5A78     		ldrb	r2, [r3, #1]	@ zero_extendqisi2
 1044 0032 02F0FD02 		and	r2, r2, #253
 1045 0036 5A70     		strb	r2, [r3, #1]
1183:.\Generated_Source\PSoC5/USBUART_1_std.c **** 
1184:.\Generated_Source\PSoC5/USBUART_1_std.c ****         if ((USBUART_1_EP[ep].addr & USBUART_1_DIR_IN) != 0u)
 1046              		.loc 1 1184 0
 1047 0038 1A79     		ldrb	r2, [r3, #4]	@ zero_extendqisi2
1185:.\Generated_Source\PSoC5/USBUART_1_std.c ****         {
1186:.\Generated_Source\PSoC5/USBUART_1_std.c ****             /* IN Endpoint */
1187:.\Generated_Source\PSoC5/USBUART_1_std.c ****             if(USBUART_1_EP[ep].apiEpState == USBUART_1_IN_BUFFER_EMPTY)
 1048              		.loc 1 1187 0
 1049 003a 5B78     		ldrb	r3, [r3, #1]	@ zero_extendqisi2
1184:.\Generated_Source\PSoC5/USBUART_1_std.c ****         {
 1050              		.loc 1 1184 0
 1051 003c 1206     		lsls	r2, r2, #24
 1052 003e 05D5     		bpl	.L101
 1053              		.loc 1 1187 0
 1054 0040 012B     		cmp	r3, #1
 1055 0042 01D1     		bne	.L102
1188:.\Generated_Source\PSoC5/USBUART_1_std.c ****             {       
1189:.\Generated_Source\PSoC5/USBUART_1_std.c ****                 /* Wait for next packet from application */
1190:.\Generated_Source\PSoC5/USBUART_1_std.c ****                 USBUART_1_SIE_EP_BASE.sieEp[ep].epCr0 = USBUART_1_MODE_NAK_IN;
 1056              		.loc 1 1190 0
 1057 0044 8870     		strb	r0, [r1, #2]
 1058 0046 06E0     		b	.L103
 1059              	.L102:
1191:.\Generated_Source\PSoC5/USBUART_1_std.c ****             }
1192:.\Generated_Source\PSoC5/USBUART_1_std.c ****             else    /* Continue armed transfer */
1193:.\Generated_Source\PSoC5/USBUART_1_std.c ****             {
1194:.\Generated_Source\PSoC5/USBUART_1_std.c ****                 USBUART_1_SIE_EP_BASE.sieEp[ep].epCr0 = USBUART_1_MODE_ACK_IN;
 1060              		.loc 1 1194 0
 1061 0048 0D23     		movs	r3, #13
 1062 004a 03E0     		b	.L105
 1063              	.L101:
1195:.\Generated_Source\PSoC5/USBUART_1_std.c ****             }
1196:.\Generated_Source\PSoC5/USBUART_1_std.c ****         }
1197:.\Generated_Source\PSoC5/USBUART_1_std.c ****         else
1198:.\Generated_Source\PSoC5/USBUART_1_std.c ****         {
1199:.\Generated_Source\PSoC5/USBUART_1_std.c ****             /* OUT Endpoint */
1200:.\Generated_Source\PSoC5/USBUART_1_std.c ****             if (USBUART_1_EP[ep].apiEpState == USBUART_1_OUT_BUFFER_FULL)
 1064              		.loc 1 1200 0
 1065 004c 012B     		cmp	r3, #1
1201:.\Generated_Source\PSoC5/USBUART_1_std.c ****             {       
1202:.\Generated_Source\PSoC5/USBUART_1_std.c ****                 /* Allow application to read full buffer */
1203:.\Generated_Source\PSoC5/USBUART_1_std.c ****                 USBUART_1_SIE_EP_BASE.sieEp[ep].epCr0 = USBUART_1_MODE_NAK_OUT;
 1066              		.loc 1 1203 0
 1067 004e 0CBF     		ite	eq
 1068 0050 0823     		moveq	r3, #8
1204:.\Generated_Source\PSoC5/USBUART_1_std.c ****             }
1205:.\Generated_Source\PSoC5/USBUART_1_std.c ****             else    /* Mark endpoint as empty, so it will be reloaded */
1206:.\Generated_Source\PSoC5/USBUART_1_std.c ****             {
1207:.\Generated_Source\PSoC5/USBUART_1_std.c ****                 USBUART_1_SIE_EP_BASE.sieEp[ep].epCr0 = USBUART_1_MODE_ACK_OUT;
 1069              		.loc 1 1207 0
 1070 0052 0923     		movne	r3, #9
 1071              	.L105:
ARM GAS  C:\Users\miyag\AppData\Local\Temp\ccphtVl4.s 			page 43


 1072 0054 8B70     		strb	r3, [r1, #2]
 1073              	.L103:
1208:.\Generated_Source\PSoC5/USBUART_1_std.c ****             }
1209:.\Generated_Source\PSoC5/USBUART_1_std.c ****         }
1210:.\Generated_Source\PSoC5/USBUART_1_std.c ****         
1211:.\Generated_Source\PSoC5/USBUART_1_std.c ****         requestHandled = USBUART_1_InitNoDataControlTransfer();
1212:.\Generated_Source\PSoC5/USBUART_1_std.c ****     }
1213:.\Generated_Source\PSoC5/USBUART_1_std.c **** 
1214:.\Generated_Source\PSoC5/USBUART_1_std.c ****     return(requestHandled);
1215:.\Generated_Source\PSoC5/USBUART_1_std.c **** }
 1074              		.loc 1 1215 0
 1075 0056 BDE83040 		pop	{r4, r5, lr}
 1076              		.cfi_remember_state
 1077              		.cfi_restore 14
 1078              		.cfi_restore 5
 1079              		.cfi_restore 4
 1080              		.cfi_def_cfa_offset 0
1211:.\Generated_Source\PSoC5/USBUART_1_std.c ****     }
 1081              		.loc 1 1211 0
 1082 005a FFF7FEBF 		b	USBUART_1_InitNoDataControlTransfer
 1083              	.LVL87:
 1084              	.L100:
 1085              		.cfi_restore_state
 1086              		.loc 1 1215 0
 1087 005e 0020     		movs	r0, #0
 1088 0060 30BD     		pop	{r4, r5, pc}
 1089              	.L107:
 1090 0062 00BF     		.align	2
 1091              	.L106:
 1092 0064 00600040 		.word	1073766400
 1093 0068 00000000 		.word	USBUART_1_EP
 1094 006c FC5F0040 		.word	1073766396
 1095              		.cfi_endproc
 1096              	.LFE11:
 1097              		.size	USBUART_1_ClearEndpointHalt, .-USBUART_1_ClearEndpointHalt
 1098              		.section	.text.USBUART_1_ValidateAlternateSetting,"ax",%progbits
 1099              		.align	1
 1100              		.global	USBUART_1_ValidateAlternateSetting
 1101              		.thumb
 1102              		.thumb_func
 1103              		.type	USBUART_1_ValidateAlternateSetting, %function
 1104              	USBUART_1_ValidateAlternateSetting:
 1105              	.LFB12:
1216:.\Generated_Source\PSoC5/USBUART_1_std.c **** 
1217:.\Generated_Source\PSoC5/USBUART_1_std.c **** 
1218:.\Generated_Source\PSoC5/USBUART_1_std.c **** /*******************************************************************************
1219:.\Generated_Source\PSoC5/USBUART_1_std.c **** * Function Name: USBUART_1_ValidateAlternateSetting
1220:.\Generated_Source\PSoC5/USBUART_1_std.c **** ****************************************************************************//**
1221:.\Generated_Source\PSoC5/USBUART_1_std.c **** *
1222:.\Generated_Source\PSoC5/USBUART_1_std.c **** *  Validates (and records) a SET INTERFACE request.
1223:.\Generated_Source\PSoC5/USBUART_1_std.c **** *
1224:.\Generated_Source\PSoC5/USBUART_1_std.c **** * \return
1225:.\Generated_Source\PSoC5/USBUART_1_std.c **** *  requestHandled.
1226:.\Generated_Source\PSoC5/USBUART_1_std.c **** *
1227:.\Generated_Source\PSoC5/USBUART_1_std.c **** * \reentrant
1228:.\Generated_Source\PSoC5/USBUART_1_std.c **** *  No.
1229:.\Generated_Source\PSoC5/USBUART_1_std.c **** *
ARM GAS  C:\Users\miyag\AppData\Local\Temp\ccphtVl4.s 			page 44


1230:.\Generated_Source\PSoC5/USBUART_1_std.c **** *******************************************************************************/
1231:.\Generated_Source\PSoC5/USBUART_1_std.c **** uint8 USBUART_1_ValidateAlternateSetting(void) 
1232:.\Generated_Source\PSoC5/USBUART_1_std.c **** {
 1106              		.loc 1 1232 0
 1107              		.cfi_startproc
 1108              		@ args = 0, pretend = 0, frame = 0
 1109              		@ frame_needed = 0, uses_anonymous_args = 0
 1110              	.LVL88:
 1111 0000 38B5     		push	{r3, r4, r5, lr}
 1112              		.cfi_def_cfa_offset 16
 1113              		.cfi_offset 3, -16
 1114              		.cfi_offset 4, -12
 1115              		.cfi_offset 5, -8
 1116              		.cfi_offset 14, -4
1233:.\Generated_Source\PSoC5/USBUART_1_std.c ****     uint8 requestHandled = USBUART_1_FALSE;
1234:.\Generated_Source\PSoC5/USBUART_1_std.c ****     
1235:.\Generated_Source\PSoC5/USBUART_1_std.c ****     uint8 interfaceNum;
1236:.\Generated_Source\PSoC5/USBUART_1_std.c ****     uint8 curInterfacesNum;
1237:.\Generated_Source\PSoC5/USBUART_1_std.c ****     const T_USBUART_1_LUT CYCODE *pTmp;
1238:.\Generated_Source\PSoC5/USBUART_1_std.c ****     
1239:.\Generated_Source\PSoC5/USBUART_1_std.c ****     /* Get interface number from the request. */
1240:.\Generated_Source\PSoC5/USBUART_1_std.c ****     interfaceNum = (uint8) USBUART_1_wIndexLoReg;
1241:.\Generated_Source\PSoC5/USBUART_1_std.c ****     
1242:.\Generated_Source\PSoC5/USBUART_1_std.c ****     /* Get number of interfaces for current configuration. */
1243:.\Generated_Source\PSoC5/USBUART_1_std.c ****     pTmp = USBUART_1_GetConfigTablePtr(USBUART_1_configuration - 1u);
 1117              		.loc 1 1243 0
 1118 0002 0D4B     		ldr	r3, .L112
1240:.\Generated_Source\PSoC5/USBUART_1_std.c ****     
 1119              		.loc 1 1240 0
 1120 0004 0D4D     		ldr	r5, .L112+4
 1121 0006 2C79     		ldrb	r4, [r5, #4]	@ zero_extendqisi2
 1122              		.loc 1 1243 0
 1123 0008 1878     		ldrb	r0, [r3]	@ zero_extendqisi2
1240:.\Generated_Source\PSoC5/USBUART_1_std.c ****     
 1124              		.loc 1 1240 0
 1125 000a E4B2     		uxtb	r4, r4
 1126              	.LVL89:
 1127              		.loc 1 1243 0
 1128 000c 0138     		subs	r0, r0, #1
 1129 000e C0B2     		uxtb	r0, r0
 1130 0010 FFF7FEFF 		bl	USBUART_1_GetConfigTablePtr
 1131              	.LVL90:
1244:.\Generated_Source\PSoC5/USBUART_1_std.c ****     curInterfacesNum  = ((const uint8 *) pTmp->p_list)[USBUART_1_CONFIG_DESCR_NUM_INTERFACES];
 1132              		.loc 1 1244 0
 1133 0014 4368     		ldr	r3, [r0, #4]
1245:.\Generated_Source\PSoC5/USBUART_1_std.c **** 
1246:.\Generated_Source\PSoC5/USBUART_1_std.c ****     /* Validate that interface number is within range. */
1247:.\Generated_Source\PSoC5/USBUART_1_std.c ****     if ((interfaceNum <= curInterfacesNum) || (interfaceNum <= USBUART_1_MAX_INTERFACES_NUMBER))
 1134              		.loc 1 1247 0
 1135 0016 1B79     		ldrb	r3, [r3, #4]	@ zero_extendqisi2
 1136 0018 A342     		cmp	r3, r4
 1137 001a 01D2     		bcs	.L109
 1138              		.loc 1 1247 0 is_stmt 0 discriminator 1
 1139 001c 022C     		cmp	r4, #2
 1140 001e 09D8     		bhi	.L111
 1141              	.L109:
1248:.\Generated_Source\PSoC5/USBUART_1_std.c ****     {
ARM GAS  C:\Users\miyag\AppData\Local\Temp\ccphtVl4.s 			page 45


1249:.\Generated_Source\PSoC5/USBUART_1_std.c ****         /* Save current and new alternate settings (come with request) to make 
1250:.\Generated_Source\PSoC5/USBUART_1_std.c ****         * desicion about following endpoint re-configuration.
1251:.\Generated_Source\PSoC5/USBUART_1_std.c ****         */
1252:.\Generated_Source\PSoC5/USBUART_1_std.c ****         USBUART_1_interfaceSettingLast[interfaceNum] = USBUART_1_interfaceSetting[interfaceNum];
 1142              		.loc 1 1252 0 is_stmt 1
 1143 0020 074A     		ldr	r2, .L112+8
 1144 0022 0849     		ldr	r1, .L112+12
 1145 0024 135D     		ldrb	r3, [r2, r4]	@ zero_extendqisi2
1253:.\Generated_Source\PSoC5/USBUART_1_std.c ****         USBUART_1_interfaceSetting[interfaceNum]     = (uint8) USBUART_1_wValueLoReg;
1254:.\Generated_Source\PSoC5/USBUART_1_std.c ****         
1255:.\Generated_Source\PSoC5/USBUART_1_std.c ****         requestHandled = USBUART_1_TRUE;
 1146              		.loc 1 1255 0
 1147 0026 0120     		movs	r0, #1
 1148              	.LVL91:
1252:.\Generated_Source\PSoC5/USBUART_1_std.c ****         USBUART_1_interfaceSetting[interfaceNum]     = (uint8) USBUART_1_wValueLoReg;
 1149              		.loc 1 1252 0
 1150 0028 DBB2     		uxtb	r3, r3
 1151 002a 0B55     		strb	r3, [r1, r4]
1253:.\Generated_Source\PSoC5/USBUART_1_std.c ****         USBUART_1_interfaceSetting[interfaceNum]     = (uint8) USBUART_1_wValueLoReg;
 1152              		.loc 1 1253 0
 1153 002c AB78     		ldrb	r3, [r5, #2]	@ zero_extendqisi2
 1154 002e DBB2     		uxtb	r3, r3
 1155 0030 1355     		strb	r3, [r2, r4]
 1156              	.LVL92:
 1157 0032 38BD     		pop	{r3, r4, r5, pc}
 1158              	.LVL93:
 1159              	.L111:
1233:.\Generated_Source\PSoC5/USBUART_1_std.c ****     
 1160              		.loc 1 1233 0
 1161 0034 0020     		movs	r0, #0
 1162              	.LVL94:
1256:.\Generated_Source\PSoC5/USBUART_1_std.c ****     }
1257:.\Generated_Source\PSoC5/USBUART_1_std.c **** 
1258:.\Generated_Source\PSoC5/USBUART_1_std.c ****     return (requestHandled);
1259:.\Generated_Source\PSoC5/USBUART_1_std.c **** }
 1163              		.loc 1 1259 0
 1164 0036 38BD     		pop	{r3, r4, r5, pc}
 1165              	.LVL95:
 1166              	.L113:
 1167              		.align	2
 1168              	.L112:
 1169 0038 00000000 		.word	USBUART_1_configuration
 1170 003c 00600040 		.word	1073766400
 1171 0040 00000000 		.word	USBUART_1_interfaceSetting
 1172 0044 00000000 		.word	USBUART_1_interfaceSettingLast
 1173              		.cfi_endproc
 1174              	.LFE12:
 1175              		.size	USBUART_1_ValidateAlternateSetting, .-USBUART_1_ValidateAlternateSetting
 1176              		.section	.text.USBUART_1_HandleStandardRqst,"ax",%progbits
 1177              		.align	1
 1178              		.global	USBUART_1_HandleStandardRqst
 1179              		.thumb
 1180              		.thumb_func
 1181              		.type	USBUART_1_HandleStandardRqst, %function
 1182              	USBUART_1_HandleStandardRqst:
 1183              	.LFB0:
  85:.\Generated_Source\PSoC5/USBUART_1_std.c ****     uint8 requestHandled = USBUART_1_FALSE;
ARM GAS  C:\Users\miyag\AppData\Local\Temp\ccphtVl4.s 			page 46


 1184              		.loc 1 85 0
 1185              		.cfi_startproc
 1186              		@ args = 0, pretend = 0, frame = 0
 1187              		@ frame_needed = 0, uses_anonymous_args = 0
 1188              	.LVL96:
 1189 0000 38B5     		push	{r3, r4, r5, lr}
 1190              		.cfi_def_cfa_offset 16
 1191              		.cfi_offset 3, -16
 1192              		.cfi_offset 4, -12
 1193              		.cfi_offset 5, -8
 1194              		.cfi_offset 14, -4
  89:.\Generated_Source\PSoC5/USBUART_1_std.c **** 
 1195              		.loc 1 89 0
 1196 0002 8A4A     		ldr	r2, .L178
 102:.\Generated_Source\PSoC5/USBUART_1_std.c **** 
 1197              		.loc 1 102 0
 1198 0004 8A4C     		ldr	r4, .L178+4
  89:.\Generated_Source\PSoC5/USBUART_1_std.c **** 
 1199              		.loc 1 89 0
 1200 0006 1378     		ldrb	r3, [r2]	@ zero_extendqisi2
 102:.\Generated_Source\PSoC5/USBUART_1_std.c **** 
 1201              		.loc 1 102 0
 1202 0008 0021     		movs	r1, #0
  89:.\Generated_Source\PSoC5/USBUART_1_std.c **** 
 1203              		.loc 1 89 0
 1204 000a DBB2     		uxtb	r3, r3
 1205              	.LVL97:
 102:.\Generated_Source\PSoC5/USBUART_1_std.c **** 
 1206              		.loc 1 102 0
 1207 000c 2180     		strh	r1, [r4]	@ movhi
 104:.\Generated_Source\PSoC5/USBUART_1_std.c ****     {
 1208              		.loc 1 104 0
 1209 000e 1806     		lsls	r0, r3, #24
 107:.\Generated_Source\PSoC5/USBUART_1_std.c ****         {
 1210              		.loc 1 107 0
 1211 0010 5178     		ldrb	r1, [r2, #1]	@ zero_extendqisi2
 104:.\Generated_Source\PSoC5/USBUART_1_std.c ****     {
 1212              		.loc 1 104 0
 1213 0012 40F18D80 		bpl	.L115
 107:.\Generated_Source\PSoC5/USBUART_1_std.c ****         {
 1214              		.loc 1 107 0
 1215 0016 0A29     		cmp	r1, #10
 1216 0018 00F20681 		bhi	.L116
 1217 001c DFE811F0 		tbh	[pc, r1, lsl #1]
 1218              	.L118:
 1219 0020 5D00     		.2byte	(.L117-.L118)/2
 1220 0022 0401     		.2byte	(.L116-.L118)/2
 1221 0024 0401     		.2byte	(.L116-.L118)/2
 1222 0026 0401     		.2byte	(.L116-.L118)/2
 1223 0028 0401     		.2byte	(.L116-.L118)/2
 1224 002a 0401     		.2byte	(.L116-.L118)/2
 1225 002c 0B00     		.2byte	(.L119-.L118)/2
 1226 002e 0401     		.2byte	(.L116-.L118)/2
 1227 0030 7E00     		.2byte	(.L120-.L118)/2
 1228 0032 0401     		.2byte	(.L116-.L118)/2
 1229 0034 8200     		.2byte	(.L121-.L118)/2
 1230              		.p2align 1
ARM GAS  C:\Users\miyag\AppData\Local\Temp\ccphtVl4.s 			page 47


 1231              	.L119:
 110:.\Generated_Source\PSoC5/USBUART_1_std.c ****                 {
 1232              		.loc 1 110 0
 1233 0036 D278     		ldrb	r2, [r2, #3]	@ zero_extendqisi2
 1234 0038 7C4B     		ldr	r3, .L178
 1235              	.LVL98:
 1236 003a 012A     		cmp	r2, #1
 1237 003c 09D1     		bne	.L122
 1238              	.LBB18:
 1239              	.LBB19:
1015:.\Generated_Source\PSoC5/USBUART_1_std.c **** }
 1240              		.loc 1 1015 0
 1241 003e 7D4B     		ldr	r3, .L178+8
 1242 0040 1A78     		ldrb	r2, [r3]	@ zero_extendqisi2
 1243              	.LBE19:
 1244              	.LBE18:
 113:.\Generated_Source\PSoC5/USBUART_1_std.c ****                     USBUART_1_currentTD.count = USBUART_1_DEVICE_DESCR_LENGTH;
 1245              		.loc 1 113 0
 1246 0042 7D4B     		ldr	r3, .L178+12
 1247 0044 03EBC203 		add	r3, r3, r2, lsl #3
 1248 0048 5B68     		ldr	r3, [r3, #4]
 1249 004a 5B68     		ldr	r3, [r3, #4]
 1250 004c 6360     		str	r3, [r4, #4]
 114:.\Generated_Source\PSoC5/USBUART_1_std.c ****                     
 1251              		.loc 1 114 0
 1252 004e 1223     		movs	r3, #18
 1253 0050 10E0     		b	.L169
 1254              	.L122:
 118:.\Generated_Source\PSoC5/USBUART_1_std.c ****                 {
 1255              		.loc 1 118 0
 1256 0052 DA78     		ldrb	r2, [r3, #3]	@ zero_extendqisi2
 1257 0054 022A     		cmp	r2, #2
 1258 0056 12D1     		bne	.L123
 120:.\Generated_Source\PSoC5/USBUART_1_std.c ****                     
 1259              		.loc 1 120 0
 1260 0058 9878     		ldrb	r0, [r3, #2]	@ zero_extendqisi2
 1261 005a FFF7FEFF 		bl	USBUART_1_GetConfigTablePtr
 1262              	.LVL99:
 123:.\Generated_Source\PSoC5/USBUART_1_std.c ****                     {
 1263              		.loc 1 123 0
 1264 005e 0028     		cmp	r0, #0
 1265 0060 00F0E280 		beq	.L116
 125:.\Generated_Source\PSoC5/USBUART_1_std.c ****                         USBUART_1_currentTD.count = (uint16)((uint16)(USBUART_1_currentTD.pData)[US
 1266              		.loc 1 125 0
 1267 0064 4368     		ldr	r3, [r0, #4]
 1268 0066 6360     		str	r3, [r4, #4]
 126:.\Generated_Source\PSoC5/USBUART_1_std.c ****                                                                             (USBUART_1_currentTD.pD
 1269              		.loc 1 126 0
 1270 0068 6368     		ldr	r3, [r4, #4]
 1271 006a DA78     		ldrb	r2, [r3, #3]	@ zero_extendqisi2
 127:.\Generated_Source\PSoC5/USBUART_1_std.c ****                         requestHandled  = USBUART_1_InitControlRead();
 1272              		.loc 1 127 0
 1273 006c 6368     		ldr	r3, [r4, #4]
 1274 006e 9B78     		ldrb	r3, [r3, #2]	@ zero_extendqisi2
 126:.\Generated_Source\PSoC5/USBUART_1_std.c ****                                                                             (USBUART_1_currentTD.pD
 1275              		.loc 1 126 0
 1276 0070 43EA0223 		orr	r3, r3, r2, lsl #8
ARM GAS  C:\Users\miyag\AppData\Local\Temp\ccphtVl4.s 			page 48


 1277              	.LVL100:
 1278              	.L169:
 1279 0074 2380     		strh	r3, [r4]	@ movhi
 1280              	.LVL101:
 1281              	.L170:
 380:.\Generated_Source\PSoC5/USBUART_1_std.c **** 
 1282              		.loc 1 380 0
 1283 0076 BDE83840 		pop	{r3, r4, r5, lr}
 1284              		.cfi_remember_state
 1285              		.cfi_restore 14
 1286              		.cfi_restore 5
 1287              		.cfi_restore 4
 1288              		.cfi_restore 3
 1289              		.cfi_def_cfa_offset 0
 128:.\Generated_Source\PSoC5/USBUART_1_std.c ****                     }
 1290              		.loc 1 128 0
 1291 007a FFF7FEBF 		b	USBUART_1_InitControlRead
 1292              	.LVL102:
 1293              	.L123:
 1294              		.cfi_restore_state
 149:.\Generated_Source\PSoC5/USBUART_1_std.c ****                 {
 1295              		.loc 1 149 0
 1296 007e DB78     		ldrb	r3, [r3, #3]	@ zero_extendqisi2
 1297 0080 032B     		cmp	r3, #3
 1298 0082 26D1     		bne	.L176
 1299 0084 6D4B     		ldr	r3, .L178+16
 1300 0086 0021     		movs	r1, #0
 1301              	.LVL103:
 1302              	.L125:
 156:.\Generated_Source\PSoC5/USBUART_1_std.c ****                     {
 1303              		.loc 1 156 0
 1304 0088 684A     		ldr	r2, .L178
 1305 008a C8B2     		uxtb	r0, r1
 1306 008c 9578     		ldrb	r5, [r2, #2]	@ zero_extendqisi2
 1307 008e 8542     		cmp	r5, r0
 1308 0090 08D8     		bhi	.L127
 1309              	.LVL104:
 1310              	.L130:
 168:.\Generated_Source\PSoC5/USBUART_1_std.c ****                     {
 1311              		.loc 1 168 0
 1312 0092 9178     		ldrb	r1, [r2, #2]	@ zero_extendqisi2
 170:.\Generated_Source\PSoC5/USBUART_1_std.c ****                     }
 1313              		.loc 1 170 0
 1314 0094 6A4A     		ldr	r2, .L178+20
 1315 0096 EE29     		cmp	r1, #238
 1316 0098 08BF     		it	eq
 1317 009a 1346     		moveq	r3, r2
 1318              	.LVL105:
 176:.\Generated_Source\PSoC5/USBUART_1_std.c ****                         (USBUART_1_wValueLoReg == USBUART_1_DEVICE0_DESCR[USBUART_1_DEVICE_DESCR_SN
 1319              		.loc 1 176 0
 1320 009c 634A     		ldr	r2, .L178
 1321 009e 9178     		ldrb	r1, [r2, #2]	@ zero_extendqisi2
 1322 00a0 81B1     		cbz	r1, .L131
 1323 00a2 06E0     		b	.L177
 1324              	.LVL106:
 1325              	.L127:
 156:.\Generated_Source\PSoC5/USBUART_1_std.c ****                     {
ARM GAS  C:\Users\miyag\AppData\Local\Temp\ccphtVl4.s 			page 49


 1326              		.loc 1 156 0 discriminator 1
 1327 00a4 1878     		ldrb	r0, [r3]	@ zero_extendqisi2
 1328 00a6 0131     		adds	r1, r1, #1
 1329              	.LVL107:
 1330 00a8 0028     		cmp	r0, #0
 1331 00aa F2D0     		beq	.L130
 159:.\Generated_Source\PSoC5/USBUART_1_std.c ****                         /* Move to next string descriptor */
 1332              		.loc 1 159 0
 1333 00ac 1A78     		ldrb	r2, [r3]	@ zero_extendqisi2
 1334              	.LVL108:
 161:.\Generated_Source\PSoC5/USBUART_1_std.c ****                         nStr++;
 1335              		.loc 1 161 0
 1336 00ae 1344     		add	r3, r3, r2
 1337              	.LVL109:
 1338 00b0 EAE7     		b	.L125
 1339              	.LVL110:
 1340              	.L177:
 177:.\Generated_Source\PSoC5/USBUART_1_std.c ****                     {
 1341              		.loc 1 177 0 discriminator 1
 1342 00b2 6449     		ldr	r1, .L178+24
 1343 00b4 9278     		ldrb	r2, [r2, #2]	@ zero_extendqisi2
 176:.\Generated_Source\PSoC5/USBUART_1_std.c ****                         (USBUART_1_wValueLoReg == USBUART_1_DEVICE0_DESCR[USBUART_1_DEVICE_DESCR_SN
 1344              		.loc 1 176 0 discriminator 1
 1345 00b6 097C     		ldrb	r1, [r1, #16]	@ zero_extendqisi2
 1346 00b8 9142     		cmp	r1, r2
 1347 00ba 03D1     		bne	.L131
 181:.\Generated_Source\PSoC5/USBUART_1_std.c ****                         pStr = USBUART_1_idSerialNumberStringDescriptor;
 1348              		.loc 1 181 0
 1349 00bc 6248     		ldr	r0, .L178+28
 1350 00be FFF7FEFF 		bl	USBUART_1_ReadDieID
 1351              	.LVL111:
 182:.\Generated_Source\PSoC5/USBUART_1_std.c ****                     #elif defined(USBUART_1_ENABLE_FWSN_STRING)
 1352              		.loc 1 182 0
 1353 00c2 614B     		ldr	r3, .L178+28
 1354              	.LVL112:
 1355              	.L131:
 199:.\Generated_Source\PSoC5/USBUART_1_std.c ****                     {
 1356              		.loc 1 199 0
 1357 00c4 1A78     		ldrb	r2, [r3]	@ zero_extendqisi2
 1358 00c6 002A     		cmp	r2, #0
 1359 00c8 00F0AE80 		beq	.L116
 201:.\Generated_Source\PSoC5/USBUART_1_std.c ****                         USBUART_1_currentTD.pData = pStr;
 1360              		.loc 1 201 0
 1361 00cc 1A78     		ldrb	r2, [r3]	@ zero_extendqisi2
 1362 00ce 2280     		strh	r2, [r4]	@ movhi
 1363 00d0 18E0     		b	.L173
 1364              	.LVL113:
 1365              	.L176:
 380:.\Generated_Source\PSoC5/USBUART_1_std.c **** 
 1366              		.loc 1 380 0
 1367 00d2 BDE83840 		pop	{r3, r4, r5, lr}
 1368              		.cfi_remember_state
 1369              		.cfi_restore 14
 1370              		.cfi_restore 5
 1371              		.cfi_restore 4
 1372              		.cfi_restore 3
 1373              		.cfi_def_cfa_offset 0
ARM GAS  C:\Users\miyag\AppData\Local\Temp\ccphtVl4.s 			page 50


 209:.\Generated_Source\PSoC5/USBUART_1_std.c ****                 }
 1374              		.loc 1 209 0
 1375 00d6 FFF7FEBF 		b	USBUART_1_DispatchClassRqst
 1376              	.LVL114:
 1377              	.L117:
 1378              		.cfi_restore_state
 214:.\Generated_Source\PSoC5/USBUART_1_std.c ****                 {
 1379              		.loc 1 214 0
 1380 00da 13F00303 		ands	r3, r3, #3
 1381              	.LVL115:
 1382 00de 13D0     		beq	.L133
 1383 00e0 022B     		cmp	r3, #2
 1384 00e2 40F0A180 		bne	.L116
 217:.\Generated_Source\PSoC5/USBUART_1_std.c ****                         USBUART_1_tBuffer[0u]     = USBUART_1_EP[USBUART_1_wIndexLoReg & USBUART_1_
 1385              		.loc 1 217 0
 1386 00e6 2380     		strh	r3, [r4]	@ movhi
 218:.\Generated_Source\PSoC5/USBUART_1_std.c ****                         USBUART_1_tBuffer[1u]     = 0u;
 1387              		.loc 1 218 0
 1388 00e8 504B     		ldr	r3, .L178
 1389 00ea 0C21     		movs	r1, #12
 1390 00ec 1B79     		ldrb	r3, [r3, #4]	@ zero_extendqisi2
 1391 00ee 03F07F02 		and	r2, r3, #127
 1392 00f2 564B     		ldr	r3, .L178+32
 1393 00f4 01FB0233 		mla	r3, r1, r2, r3
 1394 00f8 9A78     		ldrb	r2, [r3, #2]	@ zero_extendqisi2
 1395 00fa 554B     		ldr	r3, .L178+36
 1396 00fc D2B2     		uxtb	r2, r2
 1397 00fe 1A70     		strb	r2, [r3]
 219:.\Generated_Source\PSoC5/USBUART_1_std.c ****                         USBUART_1_currentTD.pData = &USBUART_1_tBuffer[0u];
 1398              		.loc 1 219 0
 1399 0100 0022     		movs	r2, #0
 1400 0102 5A70     		strb	r2, [r3, #1]
 1401              	.LVL116:
 1402              	.L173:
 220:.\Generated_Source\PSoC5/USBUART_1_std.c ****                         
 1403              		.loc 1 220 0
 1404 0104 6360     		str	r3, [r4, #4]
 1405 0106 B6E7     		b	.L170
 1406              	.LVL117:
 1407              	.L133:
 225:.\Generated_Source\PSoC5/USBUART_1_std.c ****                         USBUART_1_tBuffer[0u]     = USBUART_1_deviceStatus;
 1408              		.loc 1 225 0
 1409 0108 0222     		movs	r2, #2
 1410 010a 2280     		strh	r2, [r4]	@ movhi
 226:.\Generated_Source\PSoC5/USBUART_1_std.c ****                         USBUART_1_tBuffer[1u]     = 0u;
 1411              		.loc 1 226 0
 1412 010c 514A     		ldr	r2, .L178+40
 1413 010e 1178     		ldrb	r1, [r2]	@ zero_extendqisi2
 1414 0110 4F4A     		ldr	r2, .L178+36
 1415 0112 C9B2     		uxtb	r1, r1
 1416 0114 1170     		strb	r1, [r2]
 227:.\Generated_Source\PSoC5/USBUART_1_std.c ****                         USBUART_1_currentTD.pData = &USBUART_1_tBuffer[0u];
 1417              		.loc 1 227 0
 1418 0116 5370     		strb	r3, [r2, #1]
 228:.\Generated_Source\PSoC5/USBUART_1_std.c ****                         
 1419              		.loc 1 228 0
 1420 0118 6260     		str	r2, [r4, #4]
ARM GAS  C:\Users\miyag\AppData\Local\Temp\ccphtVl4.s 			page 51


 1421 011a ACE7     		b	.L170
 1422              	.LVL118:
 1423              	.L120:
 238:.\Generated_Source\PSoC5/USBUART_1_std.c ****                 USBUART_1_currentTD.pData = (volatile uint8 *) &USBUART_1_configuration;
 1424              		.loc 1 238 0
 1425 011c 0123     		movs	r3, #1
 1426              	.LVL119:
 1427 011e 2380     		strh	r3, [r4]	@ movhi
 239:.\Generated_Source\PSoC5/USBUART_1_std.c ****                 requestHandled  = USBUART_1_InitControlRead();
 1428              		.loc 1 239 0
 1429 0120 4D4B     		ldr	r3, .L178+44
 1430 0122 EFE7     		b	.L173
 1431              	.LVL120:
 1432              	.L121:
 244:.\Generated_Source\PSoC5/USBUART_1_std.c ****                 USBUART_1_currentTD.pData = (volatile uint8 *) &USBUART_1_interfaceSetting[USBUART_
 1433              		.loc 1 244 0
 1434 0124 0123     		movs	r3, #1
 1435              	.LVL121:
 1436 0126 2380     		strh	r3, [r4]	@ movhi
 245:.\Generated_Source\PSoC5/USBUART_1_std.c ****                 requestHandled  = USBUART_1_InitControlRead();
 1437              		.loc 1 245 0
 1438 0128 1379     		ldrb	r3, [r2, #4]	@ zero_extendqisi2
 1439 012a 4C4A     		ldr	r2, .L178+48
 1440 012c 1344     		add	r3, r3, r2
 1441 012e E9E7     		b	.L173
 1442              	.LVL122:
 1443              	.L115:
 256:.\Generated_Source\PSoC5/USBUART_1_std.c ****         {
 1444              		.loc 1 256 0
 1445 0130 0139     		subs	r1, r1, #1
 1446 0132 0A29     		cmp	r1, #10
 1447 0134 78D8     		bhi	.L116
 1448 0136 DFE801F0 		tbb	[pc, r1]
 1449              	.L136:
 1450 013a 37       		.byte	(.L135-.L136)/2
 1451 013b 77       		.byte	(.L116-.L136)/2
 1452 013c 4F       		.byte	(.L137-.L136)/2
 1453 013d 77       		.byte	(.L116-.L136)/2
 1454 013e 06       		.byte	(.L138-.L136)/2
 1455 013f 77       		.byte	(.L116-.L136)/2
 1456 0140 77       		.byte	(.L116-.L136)/2
 1457 0141 77       		.byte	(.L116-.L136)/2
 1458 0142 0A       		.byte	(.L139-.L136)/2
 1459 0143 77       		.byte	(.L116-.L136)/2
 1460 0144 20       		.byte	(.L140-.L136)/2
 1461 0145 00       		.p2align 1
 1462              	.L138:
 260:.\Generated_Source\PSoC5/USBUART_1_std.c ****                 requestHandled = USBUART_1_InitNoDataControlTransfer();
 1463              		.loc 1 260 0
 1464 0146 9378     		ldrb	r3, [r2, #2]	@ zero_extendqisi2
 1465              	.LVL123:
 1466 0148 454A     		ldr	r2, .L178+52
 1467 014a DBB2     		uxtb	r3, r3
 1468 014c 5AE0     		b	.L175
 1469              	.LVL124:
 1470              	.L139:
 265:.\Generated_Source\PSoC5/USBUART_1_std.c ****                 
ARM GAS  C:\Users\miyag\AppData\Local\Temp\ccphtVl4.s 			page 52


 1471              		.loc 1 265 0
 1472 014e 9378     		ldrb	r3, [r2, #2]	@ zero_extendqisi2
 1473              	.LVL125:
 268:.\Generated_Source\PSoC5/USBUART_1_std.c ****                 {
 1474              		.loc 1 268 0
 1475 0150 03F0FF04 		and	r4, r3, #255
 1476 0154 53B9     		cbnz	r3, .L141
 1477              	.LVL126:
 1478              	.L144:
 277:.\Generated_Source\PSoC5/USBUART_1_std.c ****                     {
 1479              		.loc 1 277 0
 1480 0156 404B     		ldr	r3, .L178+44
 1481 0158 1A78     		ldrb	r2, [r3]	@ zero_extendqisi2
 1482 015a 9442     		cmp	r4, r2
 1483 015c 60D0     		beq	.L171
 279:.\Generated_Source\PSoC5/USBUART_1_std.c ****                         USBUART_1_configurationChanged = USBUART_1_TRUE;
 1484              		.loc 1 279 0
 1485 015e 1C70     		strb	r4, [r3]
 280:.\Generated_Source\PSoC5/USBUART_1_std.c ****                         USBUART_1_Config(USBUART_1_TRUE);
 1486              		.loc 1 280 0
 1487 0160 404B     		ldr	r3, .L178+56
 1488 0162 0120     		movs	r0, #1
 1489 0164 1870     		strb	r0, [r3]
 281:.\Generated_Source\PSoC5/USBUART_1_std.c ****                     }
 1490              		.loc 1 281 0
 1491 0166 FFF7FEFF 		bl	USBUART_1_Config
 1492              	.LVL127:
 1493 016a 59E0     		b	.L171
 1494              	.LVL128:
 1495              	.L141:
 270:.\Generated_Source\PSoC5/USBUART_1_std.c ****                 }
 1496              		.loc 1 270 0
 1497 016c 601E     		subs	r0, r4, #1
 1498 016e C0B2     		uxtb	r0, r0
 1499 0170 FFF7FEFF 		bl	USBUART_1_GetConfigTablePtr
 1500              	.LVL129:
 274:.\Generated_Source\PSoC5/USBUART_1_std.c ****                 {
 1501              		.loc 1 274 0
 1502 0174 0028     		cmp	r0, #0
 1503 0176 EED1     		bne	.L144
 1504 0178 56E0     		b	.L116
 1505              	.LVL130:
 1506              	.L140:
 288:.\Generated_Source\PSoC5/USBUART_1_std.c ****                 {
 1507              		.loc 1 288 0
 1508 017a FFF7FEFF 		bl	USBUART_1_ValidateAlternateSetting
 1509              	.LVL131:
 1510 017e 0028     		cmp	r0, #0
 1511 0180 52D0     		beq	.L116
 291:.\Generated_Source\PSoC5/USBUART_1_std.c ****                     USBUART_1_interfaceNumber = (uint8) USBUART_1_wIndexLoReg;
 1512              		.loc 1 291 0
 1513 0182 2A4A     		ldr	r2, .L178
 292:.\Generated_Source\PSoC5/USBUART_1_std.c ****                      
 1514              		.loc 1 292 0
 1515 0184 3849     		ldr	r1, .L178+60
 291:.\Generated_Source\PSoC5/USBUART_1_std.c ****                     USBUART_1_interfaceNumber = (uint8) USBUART_1_wIndexLoReg;
 1516              		.loc 1 291 0
ARM GAS  C:\Users\miyag\AppData\Local\Temp\ccphtVl4.s 			page 53


 1517 0186 1379     		ldrb	r3, [r2, #4]	@ zero_extendqisi2
 292:.\Generated_Source\PSoC5/USBUART_1_std.c ****                      
 1518              		.loc 1 292 0
 1519 0188 1279     		ldrb	r2, [r2, #4]	@ zero_extendqisi2
 291:.\Generated_Source\PSoC5/USBUART_1_std.c ****                     USBUART_1_interfaceNumber = (uint8) USBUART_1_wIndexLoReg;
 1520              		.loc 1 291 0
 1521 018a DBB2     		uxtb	r3, r3
 1522              	.LVL132:
 292:.\Generated_Source\PSoC5/USBUART_1_std.c ****                      
 1523              		.loc 1 292 0
 1524 018c D2B2     		uxtb	r2, r2
 1525 018e 0A70     		strb	r2, [r1]
 295:.\Generated_Source\PSoC5/USBUART_1_std.c ****                     {
 1526              		.loc 1 295 0
 1527 0190 364A     		ldr	r2, .L178+64
 1528 0192 3249     		ldr	r1, .L178+48
 1529 0194 D25C     		ldrb	r2, [r2, r3]	@ zero_extendqisi2
 1530 0196 CB5C     		ldrb	r3, [r1, r3]	@ zero_extendqisi2
 1531              	.LVL133:
 1532 0198 9A42     		cmp	r2, r3
 1533 019a 41D0     		beq	.L171
 297:.\Generated_Source\PSoC5/USBUART_1_std.c ****                     
 1534              		.loc 1 297 0
 1535 019c 314B     		ldr	r3, .L178+56
 1536 019e 0122     		movs	r2, #1
 1537 01a0 1A70     		strb	r2, [r3]
 303:.\Generated_Source\PSoC5/USBUART_1_std.c ****                     #endif /* (USBUART_1_EP_MANAGEMENT_MANUAL && USBUART_1_EP_ALLOC_DYNAMIC) */
 1538              		.loc 1 303 0
 1539 01a2 FFF7FEFF 		bl	USBUART_1_ConfigAltChanged
 1540              	.LVL134:
 1541 01a6 3BE0     		b	.L171
 1542              	.LVL135:
 1543              	.L135:
 312:.\Generated_Source\PSoC5/USBUART_1_std.c ****                 {
 1544              		.loc 1 312 0
 1545 01a8 03F00303 		and	r3, r3, #3
 1546              	.LVL136:
 1547 01ac 012B     		cmp	r3, #1
 1548 01ae 2BD0     		beq	.L149
 1549 01b0 09D3     		bcc	.L147
 1550 01b2 022B     		cmp	r3, #2
 1551 01b4 38D1     		bne	.L116
 315:.\Generated_Source\PSoC5/USBUART_1_std.c ****                         {
 1552              		.loc 1 315 0
 1553 01b6 1D4B     		ldr	r3, .L178
 1554 01b8 9B78     		ldrb	r3, [r3, #2]	@ zero_extendqisi2
 1555 01ba 002B     		cmp	r3, #0
 1556 01bc 34D1     		bne	.L116
 380:.\Generated_Source\PSoC5/USBUART_1_std.c **** 
 1557              		.loc 1 380 0
 1558 01be BDE83840 		pop	{r3, r4, r5, lr}
 1559              		.cfi_remember_state
 1560              		.cfi_restore 14
 1561              		.cfi_restore 5
 1562              		.cfi_restore 4
 1563              		.cfi_restore 3
 1564              		.cfi_def_cfa_offset 0
ARM GAS  C:\Users\miyag\AppData\Local\Temp\ccphtVl4.s 			page 54


 317:.\Generated_Source\PSoC5/USBUART_1_std.c ****                         }
 1565              		.loc 1 317 0
 1566 01c2 FFF7FEBF 		b	USBUART_1_ClearEndpointHalt
 1567              	.LVL137:
 1568              	.L147:
 1569              		.cfi_restore_state
 322:.\Generated_Source\PSoC5/USBUART_1_std.c ****                         {
 1570              		.loc 1 322 0
 1571 01c6 194B     		ldr	r3, .L178
 1572 01c8 9B78     		ldrb	r3, [r3, #2]	@ zero_extendqisi2
 1573 01ca 012B     		cmp	r3, #1
 1574 01cc 2CD1     		bne	.L116
 324:.\Generated_Source\PSoC5/USBUART_1_std.c ****                             requestHandled = USBUART_1_InitNoDataControlTransfer();
 1575              		.loc 1 324 0
 1576 01ce 214A     		ldr	r2, .L178+40
 1577 01d0 1378     		ldrb	r3, [r2]	@ zero_extendqisi2
 1578 01d2 03F0FD03 		and	r3, r3, #253
 1579 01d6 15E0     		b	.L175
 1580              	.LVL138:
 1581              	.L137:
 342:.\Generated_Source\PSoC5/USBUART_1_std.c ****                 {
 1582              		.loc 1 342 0
 1583 01d8 03F00303 		and	r3, r3, #3
 1584              	.LVL139:
 1585 01dc 012B     		cmp	r3, #1
 1586 01de 13D0     		beq	.L149
 1587 01e0 08D3     		bcc	.L150
 1588 01e2 022B     		cmp	r3, #2
 1589 01e4 20D1     		bne	.L116
 345:.\Generated_Source\PSoC5/USBUART_1_std.c ****                         {
 1590              		.loc 1 345 0
 1591 01e6 114B     		ldr	r3, .L178
 1592 01e8 9B78     		ldrb	r3, [r3, #2]	@ zero_extendqisi2
 1593 01ea EBB9     		cbnz	r3, .L116
 380:.\Generated_Source\PSoC5/USBUART_1_std.c **** 
 1594              		.loc 1 380 0
 1595 01ec BDE83840 		pop	{r3, r4, r5, lr}
 1596              		.cfi_remember_state
 1597              		.cfi_restore 14
 1598              		.cfi_restore 5
 1599              		.cfi_restore 4
 1600              		.cfi_restore 3
 1601              		.cfi_def_cfa_offset 0
 347:.\Generated_Source\PSoC5/USBUART_1_std.c ****                         }
 1602              		.loc 1 347 0
 1603 01f0 FFF7FEBF 		b	USBUART_1_SetEndpointHalt
 1604              	.LVL140:
 1605              	.L150:
 1606              		.cfi_restore_state
 353:.\Generated_Source\PSoC5/USBUART_1_std.c ****                         {
 1607              		.loc 1 353 0
 1608 01f4 0D4B     		ldr	r3, .L178
 1609 01f6 9B78     		ldrb	r3, [r3, #2]	@ zero_extendqisi2
 1610 01f8 012B     		cmp	r3, #1
 1611 01fa 15D1     		bne	.L116
 355:.\Generated_Source\PSoC5/USBUART_1_std.c ****                             requestHandled = USBUART_1_InitNoDataControlTransfer();
 1612              		.loc 1 355 0
ARM GAS  C:\Users\miyag\AppData\Local\Temp\ccphtVl4.s 			page 55


 1613 01fc 154A     		ldr	r2, .L178+40
 1614 01fe 1378     		ldrb	r3, [r2]	@ zero_extendqisi2
 1615 0200 43F00203 		orr	r3, r3, #2
 1616              	.L175:
 1617 0204 1370     		strb	r3, [r2]
 1618 0206 0BE0     		b	.L171
 1619              	.L149:
 362:.\Generated_Source\PSoC5/USBUART_1_std.c ****                         {
 1620              		.loc 1 362 0
 1621 0208 084B     		ldr	r3, .L178
 1622 020a 1A79     		ldrb	r2, [r3, #4]	@ zero_extendqisi2
 1623 020c 012A     		cmp	r2, #1
 1624 020e 0BD8     		bhi	.L116
 364:.\Generated_Source\PSoC5/USBUART_1_std.c ****                             requestHandled = USBUART_1_InitNoDataControlTransfer();
 1625              		.loc 1 364 0
 1626 0210 9878     		ldrb	r0, [r3, #2]	@ zero_extendqisi2
 1627 0212 1B79     		ldrb	r3, [r3, #4]	@ zero_extendqisi2
 1628 0214 1649     		ldr	r1, .L178+68
 1629 0216 DBB2     		uxtb	r3, r3
 1630 0218 CA5C     		ldrb	r2, [r1, r3]	@ zero_extendqisi2
 1631 021a 22EA0002 		bic	r2, r2, r0
 1632 021e CA54     		strb	r2, [r1, r3]
 1633              	.L171:
 380:.\Generated_Source\PSoC5/USBUART_1_std.c **** 
 1634              		.loc 1 380 0
 1635 0220 BDE83840 		pop	{r3, r4, r5, lr}
 1636              		.cfi_remember_state
 1637              		.cfi_restore 14
 1638              		.cfi_restore 5
 1639              		.cfi_restore 4
 1640              		.cfi_restore 3
 1641              		.cfi_def_cfa_offset 0
 365:.\Generated_Source\PSoC5/USBUART_1_std.c ****                         }
 1642              		.loc 1 365 0
 1643 0224 FFF7FEBF 		b	USBUART_1_InitNoDataControlTransfer
 1644              	.LVL141:
 1645              	.L116:
 1646              		.cfi_restore_state
 380:.\Generated_Source\PSoC5/USBUART_1_std.c **** 
 1647              		.loc 1 380 0
 1648 0228 0020     		movs	r0, #0
 1649 022a 38BD     		pop	{r3, r4, r5, pc}
 1650              	.L179:
 1651              		.align	2
 1652              	.L178:
 1653 022c 00600040 		.word	1073766400
 1654 0230 00000000 		.word	USBUART_1_currentTD
 1655 0234 00000000 		.word	USBUART_1_device
 1656 0238 00000000 		.word	USBUART_1_TABLE
 1657 023c 00000000 		.word	USBUART_1_STRING_DESCRIPTORS
 1658 0240 00000000 		.word	USBUART_1_MSOS_DESCRIPTOR
 1659 0244 00000000 		.word	USBUART_1_DEVICE0_DESCR
 1660 0248 00000000 		.word	USBUART_1_idSerialNumberStringDescriptor
 1661 024c 00000000 		.word	USBUART_1_EP
 1662 0250 00000000 		.word	.LANCHOR0
 1663 0254 00000000 		.word	USBUART_1_deviceStatus
 1664 0258 00000000 		.word	USBUART_1_configuration
ARM GAS  C:\Users\miyag\AppData\Local\Temp\ccphtVl4.s 			page 56


 1665 025c 00000000 		.word	USBUART_1_interfaceSetting
 1666 0260 00000000 		.word	USBUART_1_deviceAddress
 1667 0264 00000000 		.word	USBUART_1_configurationChanged
 1668 0268 00000000 		.word	USBUART_1_interfaceNumber
 1669 026c 00000000 		.word	USBUART_1_interfaceSettingLast
 1670 0270 00000000 		.word	USBUART_1_interfaceStatus
 1671              		.cfi_endproc
 1672              	.LFE0:
 1673              		.size	USBUART_1_HandleStandardRqst, .-USBUART_1_HandleStandardRqst
 1674              		.section	.rodata.str1.1,"aMS",%progbits,1
 1675              	.LC0:
 1676 0000 30313233 		.ascii	"0123456789ABCDEF\000"
 1676      34353637 
 1676      38394142 
 1676      43444546 
 1676      00
 1677              		.bss
 1678              		.set	.LANCHOR0,. + 0
 1679              		.type	USBUART_1_tBuffer.5117, %object
 1680              		.size	USBUART_1_tBuffer.5117, 2
 1681              	USBUART_1_tBuffer.5117:
 1682 0000 0000     		.space	2
 1683              		.text
 1684              	.Letext0:
 1685              		.file 2 ".\\Generated_Source\\PSoC5\\cytypes.h"
 1686              		.file 3 ".\\Generated_Source\\PSoC5\\USBUART_1.h"
 1687              		.file 4 ".\\Generated_Source\\PSoC5\\USBUART_1_pvt.h"
 1688              		.file 5 ".\\Generated_Source\\PSoC5\\CyLib.h"
 1689              		.section	.debug_info,"",%progbits
 1690              	.Ldebug_info0:
 1691 0000 A40B0000 		.4byte	0xba4
 1692 0004 0400     		.2byte	0x4
 1693 0006 00000000 		.4byte	.Ldebug_abbrev0
 1694 000a 04       		.byte	0x4
 1695 000b 01       		.uleb128 0x1
 1696 000c C0020000 		.4byte	.LASF117
 1697 0010 01       		.byte	0x1
 1698 0011 56040000 		.4byte	.LASF118
 1699 0015 C2070000 		.4byte	.LASF119
 1700 0019 18000000 		.4byte	.Ldebug_ranges0+0x18
 1701 001d 00000000 		.4byte	0
 1702 0021 00000000 		.4byte	.Ldebug_line0
 1703 0025 02       		.uleb128 0x2
 1704 0026 01       		.byte	0x1
 1705 0027 06       		.byte	0x6
 1706 0028 BA000000 		.4byte	.LASF0
 1707 002c 02       		.uleb128 0x2
 1708 002d 01       		.byte	0x1
 1709 002e 08       		.byte	0x8
 1710 002f 9F050000 		.4byte	.LASF1
 1711 0033 02       		.uleb128 0x2
 1712 0034 02       		.byte	0x2
 1713 0035 05       		.byte	0x5
 1714 0036 E1050000 		.4byte	.LASF2
 1715 003a 02       		.uleb128 0x2
 1716 003b 02       		.byte	0x2
 1717 003c 07       		.byte	0x7
ARM GAS  C:\Users\miyag\AppData\Local\Temp\ccphtVl4.s 			page 57


 1718 003d B3030000 		.4byte	.LASF3
 1719 0041 02       		.uleb128 0x2
 1720 0042 04       		.byte	0x4
 1721 0043 05       		.byte	0x5
 1722 0044 5D010000 		.4byte	.LASF4
 1723 0048 02       		.uleb128 0x2
 1724 0049 04       		.byte	0x4
 1725 004a 07       		.byte	0x7
 1726 004b 72030000 		.4byte	.LASF5
 1727 004f 02       		.uleb128 0x2
 1728 0050 08       		.byte	0x8
 1729 0051 05       		.byte	0x5
 1730 0052 AC000000 		.4byte	.LASF6
 1731 0056 02       		.uleb128 0x2
 1732 0057 08       		.byte	0x8
 1733 0058 07       		.byte	0x7
 1734 0059 49000000 		.4byte	.LASF7
 1735 005d 03       		.uleb128 0x3
 1736 005e 04       		.byte	0x4
 1737 005f 05       		.byte	0x5
 1738 0060 696E7400 		.ascii	"int\000"
 1739 0064 02       		.uleb128 0x2
 1740 0065 04       		.byte	0x4
 1741 0066 07       		.byte	0x7
 1742 0067 B3020000 		.4byte	.LASF8
 1743 006b 04       		.uleb128 0x4
 1744 006c 9B010000 		.4byte	.LASF9
 1745 0070 02       		.byte	0x2
 1746 0071 9201     		.2byte	0x192
 1747 0073 2C000000 		.4byte	0x2c
 1748 0077 04       		.uleb128 0x4
 1749 0078 13000000 		.4byte	.LASF10
 1750 007c 02       		.byte	0x2
 1751 007d 9301     		.2byte	0x193
 1752 007f 3A000000 		.4byte	0x3a
 1753 0083 04       		.uleb128 0x4
 1754 0084 CF010000 		.4byte	.LASF11
 1755 0088 02       		.byte	0x2
 1756 0089 9401     		.2byte	0x194
 1757 008b 48000000 		.4byte	0x48
 1758 008f 02       		.uleb128 0x2
 1759 0090 04       		.byte	0x4
 1760 0091 04       		.byte	0x4
 1761 0092 55050000 		.4byte	.LASF12
 1762 0096 02       		.uleb128 0x2
 1763 0097 08       		.byte	0x8
 1764 0098 04       		.byte	0x4
 1765 0099 AF010000 		.4byte	.LASF13
 1766 009d 04       		.uleb128 0x4
 1767 009e C2060000 		.4byte	.LASF14
 1768 00a2 02       		.byte	0x2
 1769 00a3 A301     		.2byte	0x1a3
 1770 00a5 A9000000 		.4byte	0xa9
 1771 00a9 02       		.uleb128 0x2
 1772 00aa 01       		.byte	0x1
 1773 00ab 08       		.byte	0x8
 1774 00ac 83060000 		.4byte	.LASF15
ARM GAS  C:\Users\miyag\AppData\Local\Temp\ccphtVl4.s 			page 58


 1775 00b0 04       		.uleb128 0x4
 1776 00b1 7A050000 		.4byte	.LASF16
 1777 00b5 02       		.byte	0x2
 1778 00b6 3C02     		.2byte	0x23c
 1779 00b8 BC000000 		.4byte	0xbc
 1780 00bc 05       		.uleb128 0x5
 1781 00bd 6B000000 		.4byte	0x6b
 1782 00c1 02       		.uleb128 0x2
 1783 00c2 04       		.byte	0x4
 1784 00c3 07       		.byte	0x7
 1785 00c4 9B040000 		.4byte	.LASF17
 1786 00c8 06       		.uleb128 0x6
 1787 00c9 0C       		.byte	0xc
 1788 00ca 03       		.byte	0x3
 1789 00cb 8E       		.byte	0x8e
 1790 00cc 3D010000 		.4byte	0x13d
 1791 00d0 07       		.uleb128 0x7
 1792 00d1 C0040000 		.4byte	.LASF18
 1793 00d5 03       		.byte	0x3
 1794 00d6 90       		.byte	0x90
 1795 00d7 6B000000 		.4byte	0x6b
 1796 00db 00       		.byte	0
 1797 00dc 07       		.uleb128 0x7
 1798 00dd 5B050000 		.4byte	.LASF19
 1799 00e1 03       		.byte	0x3
 1800 00e2 91       		.byte	0x91
 1801 00e3 6B000000 		.4byte	0x6b
 1802 00e7 01       		.byte	0x1
 1803 00e8 07       		.uleb128 0x7
 1804 00e9 85040000 		.4byte	.LASF20
 1805 00ed 03       		.byte	0x3
 1806 00ee 92       		.byte	0x92
 1807 00ef 6B000000 		.4byte	0x6b
 1808 00f3 02       		.byte	0x2
 1809 00f4 07       		.uleb128 0x7
 1810 00f5 A1010000 		.4byte	.LASF21
 1811 00f9 03       		.byte	0x3
 1812 00fa 93       		.byte	0x93
 1813 00fb 6B000000 		.4byte	0x6b
 1814 00ff 03       		.byte	0x3
 1815 0100 07       		.uleb128 0x7
 1816 0101 60000000 		.4byte	.LASF22
 1817 0105 03       		.byte	0x3
 1818 0106 94       		.byte	0x94
 1819 0107 6B000000 		.4byte	0x6b
 1820 010b 04       		.byte	0x4
 1821 010c 07       		.uleb128 0x7
 1822 010d 09020000 		.4byte	.LASF23
 1823 0111 03       		.byte	0x3
 1824 0112 95       		.byte	0x95
 1825 0113 6B000000 		.4byte	0x6b
 1826 0117 05       		.byte	0x5
 1827 0118 07       		.uleb128 0x7
 1828 0119 B7060000 		.4byte	.LASF24
 1829 011d 03       		.byte	0x3
 1830 011e 96       		.byte	0x96
 1831 011f 77000000 		.4byte	0x77
ARM GAS  C:\Users\miyag\AppData\Local\Temp\ccphtVl4.s 			page 59


 1832 0123 06       		.byte	0x6
 1833 0124 07       		.uleb128 0x7
 1834 0125 88060000 		.4byte	.LASF25
 1835 0129 03       		.byte	0x3
 1836 012a 97       		.byte	0x97
 1837 012b 77000000 		.4byte	0x77
 1838 012f 08       		.byte	0x8
 1839 0130 07       		.uleb128 0x7
 1840 0131 2F040000 		.4byte	.LASF26
 1841 0135 03       		.byte	0x3
 1842 0136 98       		.byte	0x98
 1843 0137 6B000000 		.4byte	0x6b
 1844 013b 0A       		.byte	0xa
 1845 013c 00       		.byte	0
 1846 013d 08       		.uleb128 0x8
 1847 013e 47020000 		.4byte	.LASF27
 1848 0142 03       		.byte	0x3
 1849 0143 99       		.byte	0x99
 1850 0144 C8000000 		.4byte	0xc8
 1851 0148 06       		.uleb128 0x6
 1852 0149 08       		.byte	0x8
 1853 014a 03       		.byte	0x3
 1854 014b 9B       		.byte	0x9b
 1855 014c 99010000 		.4byte	0x199
 1856 0150 07       		.uleb128 0x7
 1857 0151 2F040000 		.4byte	.LASF26
 1858 0155 03       		.byte	0x3
 1859 0156 9D       		.byte	0x9d
 1860 0157 6B000000 		.4byte	0x6b
 1861 015b 00       		.byte	0
 1862 015c 07       		.uleb128 0x7
 1863 015d 5A060000 		.4byte	.LASF28
 1864 0161 03       		.byte	0x3
 1865 0162 9E       		.byte	0x9e
 1866 0163 6B000000 		.4byte	0x6b
 1867 0167 01       		.byte	0x1
 1868 0168 07       		.uleb128 0x7
 1869 0169 60000000 		.4byte	.LASF22
 1870 016d 03       		.byte	0x3
 1871 016e 9F       		.byte	0x9f
 1872 016f 6B000000 		.4byte	0x6b
 1873 0173 02       		.byte	0x2
 1874 0174 07       		.uleb128 0x7
 1875 0175 2C060000 		.4byte	.LASF29
 1876 0179 03       		.byte	0x3
 1877 017a A0       		.byte	0xa0
 1878 017b 6B000000 		.4byte	0x6b
 1879 017f 03       		.byte	0x3
 1880 0180 07       		.uleb128 0x7
 1881 0181 88060000 		.4byte	.LASF25
 1882 0185 03       		.byte	0x3
 1883 0186 A1       		.byte	0xa1
 1884 0187 77000000 		.4byte	0x77
 1885 018b 04       		.byte	0x4
 1886 018c 07       		.uleb128 0x7
 1887 018d 7E070000 		.4byte	.LASF30
 1888 0191 03       		.byte	0x3
ARM GAS  C:\Users\miyag\AppData\Local\Temp\ccphtVl4.s 			page 60


 1889 0192 A2       		.byte	0xa2
 1890 0193 6B000000 		.4byte	0x6b
 1891 0197 06       		.byte	0x6
 1892 0198 00       		.byte	0
 1893 0199 08       		.uleb128 0x8
 1894 019a 8E000000 		.4byte	.LASF31
 1895 019e 03       		.byte	0x3
 1896 019f A3       		.byte	0xa3
 1897 01a0 48010000 		.4byte	0x148
 1898 01a4 06       		.uleb128 0x6
 1899 01a5 04       		.byte	0x4
 1900 01a6 03       		.byte	0x3
 1901 01a7 A5       		.byte	0xa5
 1902 01a8 C5010000 		.4byte	0x1c5
 1903 01ac 07       		.uleb128 0x7
 1904 01ad 5A070000 		.4byte	.LASF32
 1905 01b1 03       		.byte	0x3
 1906 01b2 A7       		.byte	0xa7
 1907 01b3 6B000000 		.4byte	0x6b
 1908 01b7 00       		.byte	0
 1909 01b8 07       		.uleb128 0x7
 1910 01b9 15070000 		.4byte	.LASF33
 1911 01bd 03       		.byte	0x3
 1912 01be A8       		.byte	0xa8
 1913 01bf 77000000 		.4byte	0x77
 1914 01c3 02       		.byte	0x2
 1915 01c4 00       		.byte	0
 1916 01c5 08       		.uleb128 0x8
 1917 01c6 65060000 		.4byte	.LASF34
 1918 01ca 03       		.byte	0x3
 1919 01cb A9       		.byte	0xa9
 1920 01cc A4010000 		.4byte	0x1a4
 1921 01d0 06       		.uleb128 0x6
 1922 01d1 0C       		.byte	0xc
 1923 01d2 03       		.byte	0x3
 1924 01d3 AB       		.byte	0xab
 1925 01d4 FD010000 		.4byte	0x1fd
 1926 01d8 07       		.uleb128 0x7
 1927 01d9 0D000000 		.4byte	.LASF35
 1928 01dd 03       		.byte	0x3
 1929 01de AD       		.byte	0xad
 1930 01df 77000000 		.4byte	0x77
 1931 01e3 00       		.byte	0
 1932 01e4 07       		.uleb128 0x7
 1933 01e5 F1010000 		.4byte	.LASF36
 1934 01e9 03       		.byte	0x3
 1935 01ea AE       		.byte	0xae
 1936 01eb FD010000 		.4byte	0x1fd
 1937 01ef 04       		.byte	0x4
 1938 01f0 07       		.uleb128 0x7
 1939 01f1 00000000 		.4byte	.LASF37
 1940 01f5 03       		.byte	0x3
 1941 01f6 AF       		.byte	0xaf
 1942 01f7 03020000 		.4byte	0x203
 1943 01fb 08       		.byte	0x8
 1944 01fc 00       		.byte	0
 1945 01fd 09       		.uleb128 0x9
ARM GAS  C:\Users\miyag\AppData\Local\Temp\ccphtVl4.s 			page 61


 1946 01fe 04       		.byte	0x4
 1947 01ff BC000000 		.4byte	0xbc
 1948 0203 09       		.uleb128 0x9
 1949 0204 04       		.byte	0x4
 1950 0205 C5010000 		.4byte	0x1c5
 1951 0209 08       		.uleb128 0x8
 1952 020a 84070000 		.4byte	.LASF38
 1953 020e 03       		.byte	0x3
 1954 020f B0       		.byte	0xb0
 1955 0210 D0010000 		.4byte	0x1d0
 1956 0214 06       		.uleb128 0x6
 1957 0215 08       		.byte	0x8
 1958 0216 03       		.byte	0x3
 1959 0217 B2       		.byte	0xb2
 1960 0218 33020000 		.4byte	0x233
 1961 021c 0A       		.uleb128 0xa
 1962 021d 6300     		.ascii	"c\000"
 1963 021f 03       		.byte	0x3
 1964 0220 B4       		.byte	0xb4
 1965 0221 6B000000 		.4byte	0x6b
 1966 0225 00       		.byte	0
 1967 0226 07       		.uleb128 0x7
 1968 0227 AF040000 		.4byte	.LASF39
 1969 022b 03       		.byte	0x3
 1970 022c B5       		.byte	0xb5
 1971 022d 33020000 		.4byte	0x233
 1972 0231 04       		.byte	0x4
 1973 0232 00       		.byte	0
 1974 0233 09       		.uleb128 0x9
 1975 0234 04       		.byte	0x4
 1976 0235 39020000 		.4byte	0x239
 1977 0239 0B       		.uleb128 0xb
 1978 023a 08       		.uleb128 0x8
 1979 023b 3C010000 		.4byte	.LASF40
 1980 023f 03       		.byte	0x3
 1981 0240 B6       		.byte	0xb6
 1982 0241 14020000 		.4byte	0x214
 1983 0245 06       		.uleb128 0x6
 1984 0246 08       		.byte	0x8
 1985 0247 03       		.byte	0x3
 1986 0248 C6       		.byte	0xc6
 1987 0249 5A020000 		.4byte	0x25a
 1988 024d 07       		.uleb128 0x7
 1989 024e 77070000 		.4byte	.LASF41
 1990 0252 03       		.byte	0x3
 1991 0253 C8       		.byte	0xc8
 1992 0254 5A020000 		.4byte	0x25a
 1993 0258 00       		.byte	0
 1994 0259 00       		.byte	0
 1995 025a 0C       		.uleb128 0xc
 1996 025b 6B000000 		.4byte	0x6b
 1997 025f 6A020000 		.4byte	0x26a
 1998 0263 0D       		.uleb128 0xd
 1999 0264 C1000000 		.4byte	0xc1
 2000 0268 07       		.byte	0x7
 2001 0269 00       		.byte	0
 2002 026a 08       		.uleb128 0x8
ARM GAS  C:\Users\miyag\AppData\Local\Temp\ccphtVl4.s 			page 62


 2003 026b D1060000 		.4byte	.LASF42
 2004 026f 03       		.byte	0x3
 2005 0270 C9       		.byte	0xc9
 2006 0271 45020000 		.4byte	0x245
 2007 0275 06       		.uleb128 0x6
 2008 0276 10       		.byte	0x10
 2009 0277 03       		.byte	0x3
 2010 0278 D5       		.byte	0xd5
 2011 0279 AE020000 		.4byte	0x2ae
 2012 027d 07       		.uleb128 0x7
 2013 027e 34050000 		.4byte	.LASF43
 2014 0282 03       		.byte	0x3
 2015 0283 D7       		.byte	0xd7
 2016 0284 6B000000 		.4byte	0x6b
 2017 0288 00       		.byte	0
 2018 0289 07       		.uleb128 0x7
 2019 028a 3B050000 		.4byte	.LASF44
 2020 028e 03       		.byte	0x3
 2021 028f D8       		.byte	0xd8
 2022 0290 6B000000 		.4byte	0x6b
 2023 0294 01       		.byte	0x1
 2024 0295 07       		.uleb128 0x7
 2025 0296 42050000 		.4byte	.LASF45
 2026 029a 03       		.byte	0x3
 2027 029b D9       		.byte	0xd9
 2028 029c 6B000000 		.4byte	0x6b
 2029 02a0 02       		.byte	0x2
 2030 02a1 0A       		.uleb128 0xa
 2031 02a2 67617000 		.ascii	"gap\000"
 2032 02a6 03       		.byte	0x3
 2033 02a7 DA       		.byte	0xda
 2034 02a8 AE020000 		.4byte	0x2ae
 2035 02ac 03       		.byte	0x3
 2036 02ad 00       		.byte	0
 2037 02ae 0C       		.uleb128 0xc
 2038 02af 6B000000 		.4byte	0x6b
 2039 02b3 BE020000 		.4byte	0x2be
 2040 02b7 0D       		.uleb128 0xd
 2041 02b8 C1000000 		.4byte	0xc1
 2042 02bc 0C       		.byte	0xc
 2043 02bd 00       		.byte	0
 2044 02be 08       		.uleb128 0x8
 2045 02bf EB050000 		.4byte	.LASF46
 2046 02c3 03       		.byte	0x3
 2047 02c4 DB       		.byte	0xdb
 2048 02c5 75020000 		.4byte	0x275
 2049 02c9 06       		.uleb128 0x6
 2050 02ca 10       		.byte	0x10
 2051 02cb 03       		.byte	0x3
 2052 02cc E7       		.byte	0xe7
 2053 02cd 4A030000 		.4byte	0x34a
 2054 02d1 07       		.uleb128 0x7
 2055 02d2 7F000000 		.4byte	.LASF47
 2056 02d6 03       		.byte	0x3
 2057 02d7 E9       		.byte	0xe9
 2058 02d8 6B000000 		.4byte	0x6b
 2059 02dc 00       		.byte	0
ARM GAS  C:\Users\miyag\AppData\Local\Temp\ccphtVl4.s 			page 63


 2060 02dd 07       		.uleb128 0x7
 2061 02de 93070000 		.4byte	.LASF48
 2062 02e2 03       		.byte	0x3
 2063 02e3 EA       		.byte	0xea
 2064 02e4 6B000000 		.4byte	0x6b
 2065 02e8 01       		.byte	0x1
 2066 02e9 07       		.uleb128 0x7
 2067 02ea B6010000 		.4byte	.LASF49
 2068 02ee 03       		.byte	0x3
 2069 02ef EB       		.byte	0xeb
 2070 02f0 6B000000 		.4byte	0x6b
 2071 02f4 02       		.byte	0x2
 2072 02f5 07       		.uleb128 0x7
 2073 02f6 25020000 		.4byte	.LASF50
 2074 02fa 03       		.byte	0x3
 2075 02fb EC       		.byte	0xec
 2076 02fc 6B000000 		.4byte	0x6b
 2077 0300 03       		.byte	0x3
 2078 0301 07       		.uleb128 0x7
 2079 0302 AA010000 		.4byte	.LASF51
 2080 0306 03       		.byte	0x3
 2081 0307 ED       		.byte	0xed
 2082 0308 6B000000 		.4byte	0x6b
 2083 030c 04       		.byte	0x4
 2084 030d 07       		.uleb128 0x7
 2085 030e 24060000 		.4byte	.LASF52
 2086 0312 03       		.byte	0x3
 2087 0313 EE       		.byte	0xee
 2088 0314 6B000000 		.4byte	0x6b
 2089 0318 05       		.byte	0x5
 2090 0319 07       		.uleb128 0x7
 2091 031a 03060000 		.4byte	.LASF53
 2092 031e 03       		.byte	0x3
 2093 031f EF       		.byte	0xef
 2094 0320 6B000000 		.4byte	0x6b
 2095 0324 06       		.byte	0x6
 2096 0325 07       		.uleb128 0x7
 2097 0326 2C050000 		.4byte	.LASF54
 2098 032a 03       		.byte	0x3
 2099 032b F0       		.byte	0xf0
 2100 032c 6B000000 		.4byte	0x6b
 2101 0330 07       		.byte	0x7
 2102 0331 07       		.uleb128 0x7
 2103 0332 61070000 		.4byte	.LASF55
 2104 0336 03       		.byte	0x3
 2105 0337 F1       		.byte	0xf1
 2106 0338 6B000000 		.4byte	0x6b
 2107 033c 08       		.byte	0x8
 2108 033d 0A       		.uleb128 0xa
 2109 033e 67617000 		.ascii	"gap\000"
 2110 0342 03       		.byte	0x3
 2111 0343 F2       		.byte	0xf2
 2112 0344 4A030000 		.4byte	0x34a
 2113 0348 09       		.byte	0x9
 2114 0349 00       		.byte	0
 2115 034a 0C       		.uleb128 0xc
 2116 034b 6B000000 		.4byte	0x6b
ARM GAS  C:\Users\miyag\AppData\Local\Temp\ccphtVl4.s 			page 64


 2117 034f 5A030000 		.4byte	0x35a
 2118 0353 0D       		.uleb128 0xd
 2119 0354 C1000000 		.4byte	0xc1
 2120 0358 06       		.byte	0x6
 2121 0359 00       		.byte	0
 2122 035a 08       		.uleb128 0x8
 2123 035b F5030000 		.4byte	.LASF56
 2124 035f 03       		.byte	0x3
 2125 0360 F3       		.byte	0xf3
 2126 0361 C9020000 		.4byte	0x2c9
 2127 0365 0E       		.uleb128 0xe
 2128 0366 90       		.byte	0x90
 2129 0367 03       		.byte	0x3
 2130 0368 0F01     		.2byte	0x10f
 2131 036a 7C030000 		.4byte	0x37c
 2132 036e 0F       		.uleb128 0xf
 2133 036f A4040000 		.4byte	.LASF57
 2134 0373 03       		.byte	0x3
 2135 0374 1101     		.2byte	0x111
 2136 0376 7C030000 		.4byte	0x37c
 2137 037a 00       		.byte	0
 2138 037b 00       		.byte	0
 2139 037c 0C       		.uleb128 0xc
 2140 037d BE020000 		.4byte	0x2be
 2141 0381 8C030000 		.4byte	0x38c
 2142 0385 0D       		.uleb128 0xd
 2143 0386 C1000000 		.4byte	0xc1
 2144 038a 08       		.byte	0x8
 2145 038b 00       		.byte	0
 2146 038c 04       		.uleb128 0x4
 2147 038d 2E020000 		.4byte	.LASF58
 2148 0391 03       		.byte	0x3
 2149 0392 1201     		.2byte	0x112
 2150 0394 65030000 		.4byte	0x365
 2151 0398 0E       		.uleb128 0xe
 2152 0399 90       		.byte	0x90
 2153 039a 03       		.byte	0x3
 2154 039b 1501     		.2byte	0x115
 2155 039d AF030000 		.4byte	0x3af
 2156 03a1 0F       		.uleb128 0xf
 2157 03a2 29040000 		.4byte	.LASF59
 2158 03a6 03       		.byte	0x3
 2159 03a7 1701     		.2byte	0x117
 2160 03a9 AF030000 		.4byte	0x3af
 2161 03ad 00       		.byte	0
 2162 03ae 00       		.byte	0
 2163 03af 0C       		.uleb128 0xc
 2164 03b0 5A030000 		.4byte	0x35a
 2165 03b4 BF030000 		.4byte	0x3bf
 2166 03b8 0D       		.uleb128 0xd
 2167 03b9 C1000000 		.4byte	0xc1
 2168 03bd 08       		.byte	0x8
 2169 03be 00       		.byte	0
 2170 03bf 04       		.uleb128 0x4
 2171 03c0 75020000 		.4byte	.LASF60
 2172 03c4 03       		.byte	0x3
 2173 03c5 1801     		.2byte	0x118
ARM GAS  C:\Users\miyag\AppData\Local\Temp\ccphtVl4.s 			page 65


 2174 03c7 98030000 		.4byte	0x398
 2175 03cb 10       		.uleb128 0x10
 2176 03cc D6010000 		.4byte	.LASF65
 2177 03d0 01       		.byte	0x1
 2178 03d1 2503     		.2byte	0x325
 2179 03d3 01       		.byte	0x1
 2180 03d4 2A040000 		.4byte	0x42a
 2181 03d8 11       		.uleb128 0x11
 2182 03d9 657000   		.ascii	"ep\000"
 2183 03dc 01       		.byte	0x1
 2184 03dd 2703     		.2byte	0x327
 2185 03df 6B000000 		.4byte	0x6b
 2186 03e3 12       		.uleb128 0x12
 2187 03e4 7F040000 		.4byte	.LASF61
 2188 03e8 01       		.byte	0x1
 2189 03e9 2803     		.2byte	0x328
 2190 03eb 6B000000 		.4byte	0x6b
 2191 03ef 12       		.uleb128 0x12
 2192 03f0 10020000 		.4byte	.LASF62
 2193 03f4 01       		.byte	0x1
 2194 03f5 2903     		.2byte	0x329
 2195 03f7 6B000000 		.4byte	0x6b
 2196 03fb 11       		.uleb128 0x11
 2197 03fc 6900     		.ascii	"i\000"
 2198 03fe 01       		.byte	0x1
 2199 03ff 2A03     		.2byte	0x32a
 2200 0401 6B000000 		.4byte	0x6b
 2201 0405 12       		.uleb128 0x12
 2202 0406 48050000 		.4byte	.LASF63
 2203 040a 01       		.byte	0x1
 2204 040b 2B03     		.2byte	0x32b
 2205 040d 6B000000 		.4byte	0x6b
 2206 0411 12       		.uleb128 0x12
 2207 0412 AA040000 		.4byte	.LASF64
 2208 0416 01       		.byte	0x1
 2209 0417 2D03     		.2byte	0x32d
 2210 0419 2A040000 		.4byte	0x42a
 2211 041d 11       		.uleb128 0x11
 2212 041e 70455000 		.ascii	"pEP\000"
 2213 0422 01       		.byte	0x1
 2214 0423 2E03     		.2byte	0x32e
 2215 0425 35040000 		.4byte	0x435
 2216 0429 00       		.byte	0
 2217 042a 09       		.uleb128 0x9
 2218 042b 04       		.byte	0x4
 2219 042c 30040000 		.4byte	0x430
 2220 0430 13       		.uleb128 0x13
 2221 0431 3A020000 		.4byte	0x23a
 2222 0435 09       		.uleb128 0x9
 2223 0436 04       		.byte	0x4
 2224 0437 3B040000 		.4byte	0x43b
 2225 043b 13       		.uleb128 0x13
 2226 043c 99010000 		.4byte	0x199
 2227 0440 10       		.uleb128 0x10
 2228 0441 4C010000 		.4byte	.LASF66
 2229 0445 01       		.byte	0x1
 2230 0446 3A02     		.2byte	0x23a
ARM GAS  C:\Users\miyag\AppData\Local\Temp\ccphtVl4.s 			page 66


 2231 0448 01       		.byte	0x1
 2232 0449 C5040000 		.4byte	0x4c5
 2233 044d 14       		.uleb128 0x14
 2234 044e FA000000 		.4byte	.LASF120
 2235 0452 01       		.byte	0x1
 2236 0453 3A02     		.2byte	0x23a
 2237 0455 6B000000 		.4byte	0x6b
 2238 0459 11       		.uleb128 0x11
 2239 045a 657000   		.ascii	"ep\000"
 2240 045d 01       		.byte	0x1
 2241 045e 3C02     		.2byte	0x23c
 2242 0460 6B000000 		.4byte	0x6b
 2243 0464 12       		.uleb128 0x12
 2244 0465 7F040000 		.4byte	.LASF61
 2245 0469 01       		.byte	0x1
 2246 046a 3D02     		.2byte	0x23d
 2247 046c 6B000000 		.4byte	0x6b
 2248 0470 11       		.uleb128 0x11
 2249 0471 6900     		.ascii	"i\000"
 2250 0473 01       		.byte	0x1
 2251 0474 3E02     		.2byte	0x23e
 2252 0476 6B000000 		.4byte	0x6b
 2253 047a 12       		.uleb128 0x12
 2254 047b 10020000 		.4byte	.LASF62
 2255 047f 01       		.byte	0x1
 2256 0480 3F02     		.2byte	0x23f
 2257 0482 6B000000 		.4byte	0x6b
 2258 0486 12       		.uleb128 0x12
 2259 0487 C6030000 		.4byte	.LASF67
 2260 048b 01       		.byte	0x1
 2261 048c 4002     		.2byte	0x240
 2262 048e C5040000 		.4byte	0x4c5
 2263 0492 12       		.uleb128 0x12
 2264 0493 B6040000 		.4byte	.LASF68
 2265 0497 01       		.byte	0x1
 2266 0498 4302     		.2byte	0x243
 2267 049a 77000000 		.4byte	0x77
 2268 049e 12       		.uleb128 0x12
 2269 049f AA040000 		.4byte	.LASF64
 2270 04a3 01       		.byte	0x1
 2271 04a4 4602     		.2byte	0x246
 2272 04a6 2A040000 		.4byte	0x42a
 2273 04aa 11       		.uleb128 0x11
 2274 04ab 70455000 		.ascii	"pEP\000"
 2275 04af 01       		.byte	0x1
 2276 04b0 4702     		.2byte	0x247
 2277 04b2 35040000 		.4byte	0x435
 2278 04b6 15       		.uleb128 0x15
 2279 04b7 12       		.uleb128 0x12
 2280 04b8 66010000 		.4byte	.LASF69
 2281 04bc 01       		.byte	0x1
 2282 04bd 6302     		.2byte	0x263
 2283 04bf 6B000000 		.4byte	0x6b
 2284 04c3 00       		.byte	0
 2285 04c4 00       		.byte	0
 2286 04c5 09       		.uleb128 0x9
 2287 04c6 04       		.byte	0x4
ARM GAS  C:\Users\miyag\AppData\Local\Temp\ccphtVl4.s 			page 67


 2288 04c7 CB040000 		.4byte	0x4cb
 2289 04cb 13       		.uleb128 0x13
 2290 04cc 6B000000 		.4byte	0x6b
 2291 04d0 16       		.uleb128 0x16
 2292 04d1 0D040000 		.4byte	.LASF113
 2293 04d5 01       		.byte	0x1
 2294 04d6 F303     		.2byte	0x3f3
 2295 04d8 2A040000 		.4byte	0x42a
 2296 04dc 01       		.byte	0x1
 2297 04dd 17       		.uleb128 0x17
 2298 04de 1A000000 		.4byte	.LASF71
 2299 04e2 01       		.byte	0x1
 2300 04e3 8E01     		.2byte	0x18e
 2301 04e5 00000000 		.4byte	.LFB1
 2302 04e9 70000000 		.4byte	.LFE1-.LFB1
 2303 04ed 01       		.uleb128 0x1
 2304 04ee 9C       		.byte	0x9c
 2305 04ef 4E050000 		.4byte	0x54e
 2306 04f3 18       		.uleb128 0x18
 2307 04f4 99050000 		.4byte	.LASF74
 2308 04f8 01       		.byte	0x1
 2309 04f9 8E01     		.2byte	0x18e
 2310 04fb 4E050000 		.4byte	0x54e
 2311 04ff 00000000 		.4byte	.LLST0
 2312 0503 19       		.uleb128 0x19
 2313 0504 68657800 		.ascii	"hex\000"
 2314 0508 01       		.byte	0x1
 2315 0509 9001     		.2byte	0x190
 2316 050b 64050000 		.4byte	0x564
 2317 050f 02       		.uleb128 0x2
 2318 0510 91       		.byte	0x91
 2319 0511 5C       		.sleb128 -36
 2320 0512 1A       		.uleb128 0x1a
 2321 0513 6900     		.ascii	"i\000"
 2322 0515 01       		.byte	0x1
 2323 0516 9101     		.2byte	0x191
 2324 0518 6B000000 		.4byte	0x6b
 2325 051c 2C000000 		.4byte	.LLST1
 2326 0520 1A       		.uleb128 0x1a
 2327 0521 6A00     		.ascii	"j\000"
 2328 0523 01       		.byte	0x1
 2329 0524 9201     		.2byte	0x192
 2330 0526 6B000000 		.4byte	0x6b
 2331 052a 66000000 		.4byte	.LLST2
 2332 052e 1B       		.uleb128 0x1b
 2333 052f C8060000 		.4byte	.LASF70
 2334 0533 01       		.byte	0x1
 2335 0534 9301     		.2byte	0x193
 2336 0536 5A020000 		.4byte	0x25a
 2337 053a 02       		.uleb128 0x2
 2338 053b 91       		.byte	0x91
 2339 053c 54       		.sleb128 -44
 2340 053d 1C       		.uleb128 0x1c
 2341 053e 34000000 		.4byte	.LVL3
 2342 0542 4E0B0000 		.4byte	0xb4e
 2343 0546 1D       		.uleb128 0x1d
 2344 0547 01       		.uleb128 0x1
ARM GAS  C:\Users\miyag\AppData\Local\Temp\ccphtVl4.s 			page 68


 2345 0548 50       		.byte	0x50
 2346 0549 02       		.uleb128 0x2
 2347 054a 75       		.byte	0x75
 2348 054b 00       		.sleb128 0
 2349 054c 00       		.byte	0
 2350 054d 00       		.byte	0
 2351 054e 09       		.uleb128 0x9
 2352 054f 04       		.byte	0x4
 2353 0550 6B000000 		.4byte	0x6b
 2354 0554 0C       		.uleb128 0xc
 2355 0555 9D000000 		.4byte	0x9d
 2356 0559 64050000 		.4byte	0x564
 2357 055d 0D       		.uleb128 0xd
 2358 055e C1000000 		.4byte	0xc1
 2359 0562 10       		.byte	0x10
 2360 0563 00       		.byte	0
 2361 0564 13       		.uleb128 0x13
 2362 0565 54050000 		.4byte	0x554
 2363 0569 17       		.uleb128 0x17
 2364 056a BB010000 		.4byte	.LASF72
 2365 056e 01       		.byte	0x1
 2366 056f B501     		.2byte	0x1b5
 2367 0571 00000000 		.4byte	.LFB2
 2368 0575 70000000 		.4byte	.LFE2-.LFB2
 2369 0579 01       		.uleb128 0x1
 2370 057a 9C       		.byte	0x9c
 2371 057b 8F050000 		.4byte	0x58f
 2372 057f 1A       		.uleb128 0x1a
 2373 0580 657000   		.ascii	"ep\000"
 2374 0583 01       		.byte	0x1
 2375 0584 B701     		.2byte	0x1b7
 2376 0586 6B000000 		.4byte	0x6b
 2377 058a 85000000 		.4byte	.LLST3
 2378 058e 00       		.byte	0
 2379 058f 17       		.uleb128 0x17
 2380 0590 26010000 		.4byte	.LASF73
 2381 0594 01       		.byte	0x1
 2382 0595 1402     		.2byte	0x214
 2383 0597 00000000 		.4byte	.LFB3
 2384 059b 24000000 		.4byte	.LFE3-.LFB3
 2385 059f 01       		.uleb128 0x1
 2386 05a0 9C       		.byte	0x9c
 2387 05a1 B4050000 		.4byte	0x5b4
 2388 05a5 1A       		.uleb128 0x1a
 2389 05a6 6900     		.ascii	"i\000"
 2390 05a8 01       		.byte	0x1
 2391 05a9 1602     		.2byte	0x216
 2392 05ab 6B000000 		.4byte	0x6b
 2393 05af A4000000 		.4byte	.LLST4
 2394 05b3 00       		.byte	0
 2395 05b4 1E       		.uleb128 0x1e
 2396 05b5 DE000000 		.4byte	.LASF76
 2397 05b9 01       		.byte	0x1
 2398 05ba AE03     		.2byte	0x3ae
 2399 05bc 2A040000 		.4byte	0x42a
 2400 05c0 00000000 		.4byte	.LFB6
 2401 05c4 24000000 		.4byte	.LFE6-.LFB6
ARM GAS  C:\Users\miyag\AppData\Local\Temp\ccphtVl4.s 			page 69


 2402 05c8 01       		.uleb128 0x1
 2403 05c9 9C       		.byte	0x9c
 2404 05ca EF050000 		.4byte	0x5ef
 2405 05ce 18       		.uleb128 0x18
 2406 05cf 3F000000 		.4byte	.LASF75
 2407 05d3 01       		.byte	0x1
 2408 05d4 AE03     		.2byte	0x3ae
 2409 05d6 6B000000 		.4byte	0x6b
 2410 05da C3000000 		.4byte	.LLST5
 2411 05de 1F       		.uleb128 0x1f
 2412 05df AA040000 		.4byte	.LASF64
 2413 05e3 01       		.byte	0x1
 2414 05e4 B203     		.2byte	0x3b2
 2415 05e6 2A040000 		.4byte	0x42a
 2416 05ea E4000000 		.4byte	.LLST6
 2417 05ee 00       		.byte	0
 2418 05ef 20       		.uleb128 0x20
 2419 05f0 CB030000 		.4byte	0x3cb
 2420 05f4 00000000 		.4byte	.LFB5
 2421 05f8 E8000000 		.4byte	.LFE5-.LFB5
 2422 05fc 01       		.uleb128 0x1
 2423 05fd 9C       		.byte	0x9c
 2424 05fe 78060000 		.4byte	0x678
 2425 0602 21       		.uleb128 0x21
 2426 0603 D8030000 		.4byte	0x3d8
 2427 0607 21       		.uleb128 0x21
 2428 0608 E3030000 		.4byte	0x3e3
 2429 060c 21       		.uleb128 0x21
 2430 060d EF030000 		.4byte	0x3ef
 2431 0611 21       		.uleb128 0x21
 2432 0612 FB030000 		.4byte	0x3fb
 2433 0616 21       		.uleb128 0x21
 2434 0617 05040000 		.4byte	0x405
 2435 061b 21       		.uleb128 0x21
 2436 061c 11040000 		.4byte	0x411
 2437 0620 21       		.uleb128 0x21
 2438 0621 1D040000 		.4byte	0x41d
 2439 0625 22       		.uleb128 0x22
 2440 0626 0A000000 		.4byte	.LBB8
 2441 062a DE000000 		.4byte	.LBE8-.LBB8
 2442 062e 23       		.uleb128 0x23
 2443 062f D8030000 		.4byte	0x3d8
 2444 0633 04010000 		.4byte	.LLST7
 2445 0637 23       		.uleb128 0x23
 2446 0638 E3030000 		.4byte	0x3e3
 2447 063c 18010000 		.4byte	.LLST8
 2448 0640 23       		.uleb128 0x23
 2449 0641 EF030000 		.4byte	0x3ef
 2450 0645 2B010000 		.4byte	.LLST9
 2451 0649 23       		.uleb128 0x23
 2452 064a FB030000 		.4byte	0x3fb
 2453 064e 49010000 		.4byte	.LLST10
 2454 0652 23       		.uleb128 0x23
 2455 0653 05040000 		.4byte	0x405
 2456 0657 5D010000 		.4byte	.LLST11
 2457 065b 23       		.uleb128 0x23
 2458 065c 11040000 		.4byte	0x411
ARM GAS  C:\Users\miyag\AppData\Local\Temp\ccphtVl4.s 			page 70


 2459 0660 70010000 		.4byte	.LLST12
 2460 0664 23       		.uleb128 0x23
 2461 0665 1D040000 		.4byte	0x41d
 2462 0669 85010000 		.4byte	.LLST13
 2463 066d 24       		.uleb128 0x24
 2464 066e 14000000 		.4byte	.LVL19
 2465 0672 B4050000 		.4byte	0x5b4
 2466 0676 00       		.byte	0
 2467 0677 00       		.byte	0
 2468 0678 25       		.uleb128 0x25
 2469 0679 D0040000 		.4byte	0x4d0
 2470 067d 00000000 		.4byte	.LFB7
 2471 0681 18000000 		.4byte	.LFE7-.LFB7
 2472 0685 01       		.uleb128 0x1
 2473 0686 9C       		.byte	0x9c
 2474 0687 1E       		.uleb128 0x1e
 2475 0688 08050000 		.4byte	.LASF77
 2476 068c 01       		.byte	0x1
 2477 068d 0604     		.2byte	0x406
 2478 068f C5040000 		.4byte	0x4c5
 2479 0693 00000000 		.4byte	.LFB8
 2480 0697 20000000 		.4byte	.LFE8-.LFB8
 2481 069b 01       		.uleb128 0x1
 2482 069c 9C       		.byte	0x9c
 2483 069d D9060000 		.4byte	0x6d9
 2484 06a1 1F       		.uleb128 0x1f
 2485 06a2 AA040000 		.4byte	.LASF64
 2486 06a6 01       		.byte	0x1
 2487 06a7 0904     		.2byte	0x409
 2488 06a9 2A040000 		.4byte	0x42a
 2489 06ad 98010000 		.4byte	.LLST14
 2490 06b1 1B       		.uleb128 0x1b
 2491 06b2 CD030000 		.4byte	.LASF78
 2492 06b6 01       		.byte	0x1
 2493 06b7 0A04     		.2byte	0x40a
 2494 06b9 C5040000 		.4byte	0x4c5
 2495 06bd 01       		.uleb128 0x1
 2496 06be 50       		.byte	0x50
 2497 06bf 1F       		.uleb128 0x1f
 2498 06c0 A2060000 		.4byte	.LASF79
 2499 06c4 01       		.byte	0x1
 2500 06c5 0B04     		.2byte	0x40b
 2501 06c7 6B000000 		.4byte	0x6b
 2502 06cb BD010000 		.4byte	.LLST15
 2503 06cf 24       		.uleb128 0x24
 2504 06d0 0E000000 		.4byte	.LVL31
 2505 06d4 B4050000 		.4byte	0x5b4
 2506 06d8 00       		.byte	0
 2507 06d9 20       		.uleb128 0x20
 2508 06da 40040000 		.4byte	0x440
 2509 06de 00000000 		.4byte	.LFB4
 2510 06e2 6C010000 		.4byte	.LFE4-.LFB4
 2511 06e6 01       		.uleb128 0x1
 2512 06e7 9C       		.byte	0x9c
 2513 06e8 C8070000 		.4byte	0x7c8
 2514 06ec 26       		.uleb128 0x26
 2515 06ed 4D040000 		.4byte	0x44d
ARM GAS  C:\Users\miyag\AppData\Local\Temp\ccphtVl4.s 			page 71


 2516 06f1 DF010000 		.4byte	.LLST16
 2517 06f5 23       		.uleb128 0x23
 2518 06f6 59040000 		.4byte	0x459
 2519 06fa 0B020000 		.4byte	.LLST17
 2520 06fe 21       		.uleb128 0x21
 2521 06ff 64040000 		.4byte	0x464
 2522 0703 23       		.uleb128 0x23
 2523 0704 70040000 		.4byte	0x470
 2524 0708 2A020000 		.4byte	.LLST18
 2525 070c 21       		.uleb128 0x21
 2526 070d 7A040000 		.4byte	0x47a
 2527 0711 21       		.uleb128 0x21
 2528 0712 86040000 		.4byte	0x486
 2529 0716 27       		.uleb128 0x27
 2530 0717 92040000 		.4byte	0x492
 2531 071b 00       		.byte	0
 2532 071c 21       		.uleb128 0x21
 2533 071d 9E040000 		.4byte	0x49e
 2534 0721 21       		.uleb128 0x21
 2535 0722 AA040000 		.4byte	0x4aa
 2536 0726 28       		.uleb128 0x28
 2537 0727 00000000 		.4byte	.Ldebug_ranges0+0
 2538 072b 26       		.uleb128 0x26
 2539 072c 4D040000 		.4byte	0x44d
 2540 0730 4A020000 		.4byte	.LLST19
 2541 0734 28       		.uleb128 0x28
 2542 0735 00000000 		.4byte	.Ldebug_ranges0+0
 2543 0739 23       		.uleb128 0x23
 2544 073a 59040000 		.4byte	0x459
 2545 073e 5D020000 		.4byte	.LLST20
 2546 0742 23       		.uleb128 0x23
 2547 0743 64040000 		.4byte	0x464
 2548 0747 88020000 		.4byte	.LLST21
 2549 074b 23       		.uleb128 0x23
 2550 074c 70040000 		.4byte	0x470
 2551 0750 9C020000 		.4byte	.LLST22
 2552 0754 23       		.uleb128 0x23
 2553 0755 7A040000 		.4byte	0x47a
 2554 0759 E1020000 		.4byte	.LLST23
 2555 075d 23       		.uleb128 0x23
 2556 075e 86040000 		.4byte	0x486
 2557 0762 21030000 		.4byte	.LLST24
 2558 0766 23       		.uleb128 0x23
 2559 0767 92040000 		.4byte	0x492
 2560 076b 35030000 		.4byte	.LLST25
 2561 076f 23       		.uleb128 0x23
 2562 0770 9E040000 		.4byte	0x49e
 2563 0774 7D030000 		.4byte	.LLST26
 2564 0778 23       		.uleb128 0x23
 2565 0779 AA040000 		.4byte	0x4aa
 2566 077d AA030000 		.4byte	.LLST27
 2567 0781 28       		.uleb128 0x28
 2568 0782 00000000 		.4byte	.Ldebug_ranges0+0
 2569 0786 23       		.uleb128 0x23
 2570 0787 B7040000 		.4byte	0x4b7
 2571 078b FC030000 		.4byte	.LLST28
 2572 078f 24       		.uleb128 0x24
ARM GAS  C:\Users\miyag\AppData\Local\Temp\ccphtVl4.s 			page 72


 2573 0790 48000000 		.4byte	.LVL44
 2574 0794 B4050000 		.4byte	0x5b4
 2575 0798 29       		.uleb128 0x29
 2576 0799 EC000000 		.4byte	.LVL56
 2577 079d 650B0000 		.4byte	0xb65
 2578 07a1 B2070000 		.4byte	0x7b2
 2579 07a5 1D       		.uleb128 0x1d
 2580 07a6 01       		.uleb128 0x1
 2581 07a7 51       		.byte	0x51
 2582 07a8 02       		.uleb128 0x2
 2583 07a9 7A       		.byte	0x7a
 2584 07aa 00       		.sleb128 0
 2585 07ab 1D       		.uleb128 0x1d
 2586 07ac 01       		.uleb128 0x1
 2587 07ad 50       		.byte	0x50
 2588 07ae 02       		.uleb128 0x2
 2589 07af 74       		.byte	0x74
 2590 07b0 00       		.sleb128 0
 2591 07b1 00       		.byte	0
 2592 07b2 24       		.uleb128 0x24
 2593 07b3 22010000 		.4byte	.LVL67
 2594 07b7 87060000 		.4byte	0x687
 2595 07bb 2A       		.uleb128 0x2a
 2596 07bc 4E010000 		.4byte	.LVL76
 2597 07c0 69050000 		.4byte	0x569
 2598 07c4 00       		.byte	0
 2599 07c5 00       		.byte	0
 2600 07c6 00       		.byte	0
 2601 07c7 00       		.byte	0
 2602 07c8 17       		.uleb128 0x17
 2603 07c9 71010000 		.4byte	.LASF80
 2604 07cd 01       		.byte	0x1
 2605 07ce 3004     		.2byte	0x430
 2606 07d0 00000000 		.4byte	.LFB9
 2607 07d4 40000000 		.4byte	.LFE9-.LFB9
 2608 07d8 01       		.uleb128 0x1
 2609 07d9 9C       		.byte	0x9c
 2610 07da EF070000 		.4byte	0x7ef
 2611 07de 18       		.uleb128 0x18
 2612 07df 85000000 		.4byte	.LASF81
 2613 07e3 01       		.byte	0x1
 2614 07e4 3004     		.2byte	0x430
 2615 07e6 6B000000 		.4byte	0x6b
 2616 07ea 26040000 		.4byte	.LLST29
 2617 07ee 00       		.byte	0
 2618 07ef 1E       		.uleb128 0x1e
 2619 07f0 9B070000 		.4byte	.LASF82
 2620 07f4 01       		.byte	0x1
 2621 07f5 5904     		.2byte	0x459
 2622 07f7 6B000000 		.4byte	0x6b
 2623 07fb 00000000 		.4byte	.LFB10
 2624 07ff 54000000 		.4byte	.LFE10-.LFB10
 2625 0803 01       		.uleb128 0x1
 2626 0804 9C       		.byte	0x9c
 2627 0805 2F080000 		.4byte	0x82f
 2628 0809 2B       		.uleb128 0x2b
 2629 080a 93060000 		.4byte	.LASF83
ARM GAS  C:\Users\miyag\AppData\Local\Temp\ccphtVl4.s 			page 73


 2630 080e 01       		.byte	0x1
 2631 080f 5B04     		.2byte	0x45b
 2632 0811 6B000000 		.4byte	0x6b
 2633 0815 00       		.byte	0
 2634 0816 1A       		.uleb128 0x1a
 2635 0817 657000   		.ascii	"ep\000"
 2636 081a 01       		.byte	0x1
 2637 081b 5C04     		.2byte	0x45c
 2638 081d 6B000000 		.4byte	0x6b
 2639 0821 44040000 		.4byte	.LLST30
 2640 0825 2A       		.uleb128 0x2a
 2641 0826 42000000 		.4byte	.LVL83
 2642 082a 850B0000 		.4byte	0xb85
 2643 082e 00       		.byte	0
 2644 082f 1E       		.uleb128 0x1e
 2645 0830 08060000 		.4byte	.LASF84
 2646 0834 01       		.byte	0x1
 2647 0835 8A04     		.2byte	0x48a
 2648 0837 6B000000 		.4byte	0x6b
 2649 083b 00000000 		.4byte	.LFB11
 2650 083f 70000000 		.4byte	.LFE11-.LFB11
 2651 0843 01       		.uleb128 0x1
 2652 0844 9C       		.byte	0x9c
 2653 0845 6F080000 		.4byte	0x86f
 2654 0849 2B       		.uleb128 0x2b
 2655 084a 93060000 		.4byte	.LASF83
 2656 084e 01       		.byte	0x1
 2657 084f 8C04     		.2byte	0x48c
 2658 0851 6B000000 		.4byte	0x6b
 2659 0855 00       		.byte	0
 2660 0856 1A       		.uleb128 0x1a
 2661 0857 657000   		.ascii	"ep\000"
 2662 085a 01       		.byte	0x1
 2663 085b 8D04     		.2byte	0x48d
 2664 085d 6B000000 		.4byte	0x6b
 2665 0861 62040000 		.4byte	.LLST31
 2666 0865 2A       		.uleb128 0x2a
 2667 0866 5E000000 		.4byte	.LVL87
 2668 086a 850B0000 		.4byte	0xb85
 2669 086e 00       		.byte	0
 2670 086f 1E       		.uleb128 0x1e
 2671 0870 37060000 		.4byte	.LASF85
 2672 0874 01       		.byte	0x1
 2673 0875 CF04     		.2byte	0x4cf
 2674 0877 6B000000 		.4byte	0x6b
 2675 087b 00000000 		.4byte	.LFB12
 2676 087f 48000000 		.4byte	.LFE12-.LFB12
 2677 0883 01       		.uleb128 0x1
 2678 0884 9C       		.byte	0x9c
 2679 0885 D3080000 		.4byte	0x8d3
 2680 0889 1F       		.uleb128 0x1f
 2681 088a 93060000 		.4byte	.LASF83
 2682 088e 01       		.byte	0x1
 2683 088f D104     		.2byte	0x4d1
 2684 0891 6B000000 		.4byte	0x6b
 2685 0895 80040000 		.4byte	.LLST32
 2686 0899 1F       		.uleb128 0x1f
ARM GAS  C:\Users\miyag\AppData\Local\Temp\ccphtVl4.s 			page 74


 2687 089a 48050000 		.4byte	.LASF63
 2688 089e 01       		.byte	0x1
 2689 089f D304     		.2byte	0x4d3
 2690 08a1 6B000000 		.4byte	0x6b
 2691 08a5 B7040000 		.4byte	.LLST33
 2692 08a9 1F       		.uleb128 0x1f
 2693 08aa 66070000 		.4byte	.LASF86
 2694 08ae 01       		.byte	0x1
 2695 08af D404     		.2byte	0x4d4
 2696 08b1 6B000000 		.4byte	0x6b
 2697 08b5 CA040000 		.4byte	.LLST34
 2698 08b9 1F       		.uleb128 0x1f
 2699 08ba AA040000 		.4byte	.LASF64
 2700 08be 01       		.byte	0x1
 2701 08bf D504     		.2byte	0x4d5
 2702 08c1 2A040000 		.4byte	0x42a
 2703 08c5 FB040000 		.4byte	.LLST35
 2704 08c9 24       		.uleb128 0x24
 2705 08ca 14000000 		.4byte	.LVL90
 2706 08ce B4050000 		.4byte	0x5b4
 2707 08d2 00       		.byte	0
 2708 08d3 2C       		.uleb128 0x2c
 2709 08d4 39040000 		.4byte	.LASF87
 2710 08d8 01       		.byte	0x1
 2711 08d9 54       		.byte	0x54
 2712 08da 6B000000 		.4byte	0x6b
 2713 08de 00000000 		.4byte	.LFB0
 2714 08e2 74020000 		.4byte	.LFE0-.LFB0
 2715 08e6 01       		.uleb128 0x1
 2716 08e7 9C       		.byte	0x9c
 2717 08e8 FD090000 		.4byte	0x9fd
 2718 08ec 2D       		.uleb128 0x2d
 2719 08ed 93060000 		.4byte	.LASF83
 2720 08f1 01       		.byte	0x1
 2721 08f2 56       		.byte	0x56
 2722 08f3 6B000000 		.4byte	0x6b
 2723 08f7 19050000 		.4byte	.LLST36
 2724 08fb 2D       		.uleb128 0x2d
 2725 08fc EB060000 		.4byte	.LASF88
 2726 0900 01       		.byte	0x1
 2727 0901 57       		.byte	0x57
 2728 0902 6B000000 		.4byte	0x6b
 2729 0906 2D050000 		.4byte	.LLST37
 2730 090a 2D       		.uleb128 0x2d
 2731 090b 66050000 		.4byte	.LASF89
 2732 090f 01       		.byte	0x1
 2733 0910 58       		.byte	0x58
 2734 0911 6B000000 		.4byte	0x6b
 2735 0915 40050000 		.4byte	.LLST38
 2736 0919 2D       		.uleb128 0x2d
 2737 091a 17020000 		.4byte	.LASF90
 2738 091e 01       		.byte	0x1
 2739 091f 59       		.byte	0x59
 2740 0920 6B000000 		.4byte	0x6b
 2741 0924 5E050000 		.4byte	.LLST39
 2742 0928 2D       		.uleb128 0x2d
 2743 0929 75050000 		.4byte	.LASF91
ARM GAS  C:\Users\miyag\AppData\Local\Temp\ccphtVl4.s 			page 75


 2744 092d 01       		.byte	0x1
 2745 092e 5C       		.byte	0x5c
 2746 092f FD010000 		.4byte	0x1fd
 2747 0933 C9050000 		.4byte	.LLST40
 2748 0937 2D       		.uleb128 0x2d
 2749 0938 1C070000 		.4byte	.LASF92
 2750 093c 01       		.byte	0x1
 2751 093d 5E       		.byte	0x5e
 2752 093e 6B000000 		.4byte	0x6b
 2753 0942 17060000 		.4byte	.LLST41
 2754 0946 2D       		.uleb128 0x2d
 2755 0947 8F040000 		.4byte	.LASF93
 2756 094b 01       		.byte	0x1
 2757 094c 5F       		.byte	0x5f
 2758 094d 6B000000 		.4byte	0x6b
 2759 0951 40060000 		.4byte	.LLST42
 2760 0955 2E       		.uleb128 0x2e
 2761 0956 F7010000 		.4byte	.LASF94
 2762 095a 01       		.byte	0x1
 2763 095b 63       		.byte	0x63
 2764 095c 0D0A0000 		.4byte	0xa0d
 2765 0960 05       		.uleb128 0x5
 2766 0961 03       		.byte	0x3
 2767 0962 00000000 		.4byte	USBUART_1_tBuffer.5117
 2768 0966 2D       		.uleb128 0x2d
 2769 0967 AA040000 		.4byte	.LASF64
 2770 096b 01       		.byte	0x1
 2771 096c 64       		.byte	0x64
 2772 096d 2A040000 		.4byte	0x42a
 2773 0971 53060000 		.4byte	.LLST43
 2774 0975 2F       		.uleb128 0x2f
 2775 0976 D0040000 		.4byte	0x4d0
 2776 097a 3E000000 		.4byte	.LBB18
 2777 097e 04000000 		.4byte	.LBE18-.LBB18
 2778 0982 01       		.byte	0x1
 2779 0983 70       		.byte	0x70
 2780 0984 24       		.uleb128 0x24
 2781 0985 5E000000 		.4byte	.LVL99
 2782 0989 B4050000 		.4byte	0x5b4
 2783 098d 2A       		.uleb128 0x2a
 2784 098e 7E000000 		.4byte	.LVL102
 2785 0992 900B0000 		.4byte	0xb90
 2786 0996 24       		.uleb128 0x24
 2787 0997 C2000000 		.4byte	.LVL111
 2788 099b DD040000 		.4byte	0x4dd
 2789 099f 2A       		.uleb128 0x2a
 2790 09a0 DA000000 		.4byte	.LVL114
 2791 09a4 9B0B0000 		.4byte	0xb9b
 2792 09a8 29       		.uleb128 0x29
 2793 09a9 6A010000 		.4byte	.LVL127
 2794 09ad 40040000 		.4byte	0x440
 2795 09b1 BB090000 		.4byte	0x9bb
 2796 09b5 1D       		.uleb128 0x1d
 2797 09b6 01       		.uleb128 0x1
 2798 09b7 50       		.byte	0x50
 2799 09b8 01       		.uleb128 0x1
 2800 09b9 31       		.byte	0x31
ARM GAS  C:\Users\miyag\AppData\Local\Temp\ccphtVl4.s 			page 76


 2801 09ba 00       		.byte	0
 2802 09bb 29       		.uleb128 0x29
 2803 09bc 74010000 		.4byte	.LVL129
 2804 09c0 B4050000 		.4byte	0x5b4
 2805 09c4 CF090000 		.4byte	0x9cf
 2806 09c8 1D       		.uleb128 0x1d
 2807 09c9 01       		.uleb128 0x1
 2808 09ca 50       		.byte	0x50
 2809 09cb 02       		.uleb128 0x2
 2810 09cc 74       		.byte	0x74
 2811 09cd 7F       		.sleb128 -1
 2812 09ce 00       		.byte	0
 2813 09cf 24       		.uleb128 0x24
 2814 09d0 7E010000 		.4byte	.LVL131
 2815 09d4 6F080000 		.4byte	0x86f
 2816 09d8 24       		.uleb128 0x24
 2817 09d9 A6010000 		.4byte	.LVL134
 2818 09dd CB030000 		.4byte	0x3cb
 2819 09e1 2A       		.uleb128 0x2a
 2820 09e2 C6010000 		.4byte	.LVL137
 2821 09e6 2F080000 		.4byte	0x82f
 2822 09ea 2A       		.uleb128 0x2a
 2823 09eb F4010000 		.4byte	.LVL140
 2824 09ef EF070000 		.4byte	0x7ef
 2825 09f3 2A       		.uleb128 0x2a
 2826 09f4 28020000 		.4byte	.LVL141
 2827 09f8 850B0000 		.4byte	0xb85
 2828 09fc 00       		.byte	0
 2829 09fd 0C       		.uleb128 0xc
 2830 09fe 6B000000 		.4byte	0x6b
 2831 0a02 0D0A0000 		.4byte	0xa0d
 2832 0a06 0D       		.uleb128 0xd
 2833 0a07 C1000000 		.4byte	0xc1
 2834 0a0b 01       		.byte	0x1
 2835 0a0c 00       		.byte	0
 2836 0a0d 05       		.uleb128 0x5
 2837 0a0e FD090000 		.4byte	0x9fd
 2838 0a12 30       		.uleb128 0x30
 2839 0a13 2E000000 		.4byte	.LASF95
 2840 0a17 03       		.byte	0x3
 2841 0a18 D302     		.2byte	0x2d3
 2842 0a1a BC000000 		.4byte	0xbc
 2843 0a1e 30       		.uleb128 0x30
 2844 0a1f C7040000 		.4byte	.LASF96
 2845 0a23 03       		.byte	0x3
 2846 0a24 D502     		.2byte	0x2d5
 2847 0a26 BC000000 		.4byte	0xbc
 2848 0a2a 30       		.uleb128 0x30
 2849 0a2b 94030000 		.4byte	.LASF97
 2850 0a2f 03       		.byte	0x3
 2851 0a30 D602     		.2byte	0x2d6
 2852 0a32 BC000000 		.4byte	0xbc
 2853 0a36 30       		.uleb128 0x30
 2854 0a37 8E020000 		.4byte	.LASF98
 2855 0a3b 03       		.byte	0x3
 2856 0a3c D702     		.2byte	0x2d7
 2857 0a3e BC000000 		.4byte	0xbc
ARM GAS  C:\Users\miyag\AppData\Local\Temp\ccphtVl4.s 			page 77


 2858 0a42 0C       		.uleb128 0xc
 2859 0a43 6B000000 		.4byte	0x6b
 2860 0a47 520A0000 		.4byte	0xa52
 2861 0a4b 0D       		.uleb128 0xd
 2862 0a4c C1000000 		.4byte	0xc1
 2863 0a50 11       		.byte	0x11
 2864 0a51 00       		.byte	0
 2865 0a52 31       		.uleb128 0x31
 2866 0a53 C6000000 		.4byte	.LASF99
 2867 0a57 04       		.byte	0x4
 2868 0a58 61       		.byte	0x61
 2869 0a59 5D0A0000 		.4byte	0xa5d
 2870 0a5d 13       		.uleb128 0x13
 2871 0a5e 420A0000 		.4byte	0xa42
 2872 0a62 0C       		.uleb128 0xc
 2873 0a63 3A020000 		.4byte	0x23a
 2874 0a67 720A0000 		.4byte	0xa72
 2875 0a6b 0D       		.uleb128 0xd
 2876 0a6c C1000000 		.4byte	0xc1
 2877 0a70 00       		.byte	0
 2878 0a71 00       		.byte	0
 2879 0a72 31       		.uleb128 0x31
 2880 0a73 84030000 		.4byte	.LASF100
 2881 0a77 04       		.byte	0x4
 2882 0a78 67       		.byte	0x67
 2883 0a79 7D0A0000 		.4byte	0xa7d
 2884 0a7d 13       		.uleb128 0x13
 2885 0a7e 620A0000 		.4byte	0xa62
 2886 0a82 0C       		.uleb128 0xc
 2887 0a83 6B000000 		.4byte	0x6b
 2888 0a87 920A0000 		.4byte	0xa92
 2889 0a8b 0D       		.uleb128 0xd
 2890 0a8c C1000000 		.4byte	0xc1
 2891 0a90 9E       		.byte	0x9e
 2892 0a91 00       		.byte	0
 2893 0a92 31       		.uleb128 0x31
 2894 0a93 05080000 		.4byte	.LASF101
 2895 0a97 04       		.byte	0x4
 2896 0a98 69       		.byte	0x69
 2897 0a99 9D0A0000 		.4byte	0xa9d
 2898 0a9d 13       		.uleb128 0x13
 2899 0a9e 820A0000 		.4byte	0xa82
 2900 0aa2 31       		.uleb128 0x31
 2901 0aa3 65000000 		.4byte	.LASF102
 2902 0aa7 04       		.byte	0x4
 2903 0aa8 6C       		.byte	0x6c
 2904 0aa9 AD0A0000 		.4byte	0xaad
 2905 0aad 13       		.uleb128 0x13
 2906 0aae 420A0000 		.4byte	0xa42
 2907 0ab2 0C       		.uleb128 0xc
 2908 0ab3 6B000000 		.4byte	0x6b
 2909 0ab7 C20A0000 		.4byte	0xac2
 2910 0abb 0D       		.uleb128 0xd
 2911 0abc C1000000 		.4byte	0xc1
 2912 0ac0 21       		.byte	0x21
 2913 0ac1 00       		.byte	0
 2914 0ac2 31       		.uleb128 0x31
ARM GAS  C:\Users\miyag\AppData\Local\Temp\ccphtVl4.s 			page 78


 2915 0ac3 DF040000 		.4byte	.LASF103
 2916 0ac7 04       		.byte	0x4
 2917 0ac8 6F       		.byte	0x6f
 2918 0ac9 B20A0000 		.4byte	0xab2
 2919 0acd 31       		.uleb128 0x31
 2920 0ace 21070000 		.4byte	.LASF104
 2921 0ad2 04       		.byte	0x4
 2922 0ad3 72       		.byte	0x72
 2923 0ad4 BC000000 		.4byte	0xbc
 2924 0ad8 31       		.uleb128 0x31
 2925 0ad9 AD050000 		.4byte	.LASF105
 2926 0add 04       		.byte	0x4
 2927 0ade 73       		.byte	0x73
 2928 0adf E30A0000 		.4byte	0xae3
 2929 0ae3 05       		.uleb128 0x5
 2930 0ae4 FD090000 		.4byte	0x9fd
 2931 0ae8 31       		.uleb128 0x31
 2932 0ae9 3B070000 		.4byte	.LASF106
 2933 0aed 04       		.byte	0x4
 2934 0aee 74       		.byte	0x74
 2935 0aef F30A0000 		.4byte	0xaf3
 2936 0af3 05       		.uleb128 0x5
 2937 0af4 FD090000 		.4byte	0x9fd
 2938 0af8 31       		.uleb128 0x31
 2939 0af9 DD030000 		.4byte	.LASF107
 2940 0afd 04       		.byte	0x4
 2941 0afe 75       		.byte	0x75
 2942 0aff BC000000 		.4byte	0xbc
 2943 0b03 31       		.uleb128 0x31
 2944 0b04 7F050000 		.4byte	.LASF108
 2945 0b08 04       		.byte	0x4
 2946 0b09 76       		.byte	0x76
 2947 0b0a 0E0B0000 		.4byte	0xb0e
 2948 0b0e 05       		.uleb128 0x5
 2949 0b0f FD090000 		.4byte	0x9fd
 2950 0b13 31       		.uleb128 0x31
 2951 0b14 C8050000 		.4byte	.LASF109
 2952 0b18 04       		.byte	0x4
 2953 0b19 77       		.byte	0x77
 2954 0b1a C5040000 		.4byte	0x4c5
 2955 0b1e 0C       		.uleb128 0xc
 2956 0b1f 3D010000 		.4byte	0x13d
 2957 0b23 2E0B0000 		.4byte	0xb2e
 2958 0b27 0D       		.uleb128 0xd
 2959 0b28 C1000000 		.4byte	0xc1
 2960 0b2c 08       		.byte	0x8
 2961 0b2d 00       		.byte	0
 2962 0b2e 31       		.uleb128 0x31
 2963 0b2f B5070000 		.4byte	.LASF110
 2964 0b33 04       		.byte	0x4
 2965 0b34 79       		.byte	0x79
 2966 0b35 390B0000 		.4byte	0xb39
 2967 0b39 05       		.uleb128 0x5
 2968 0b3a 1E0B0000 		.4byte	0xb1e
 2969 0b3e 31       		.uleb128 0x31
 2970 0b3f 87010000 		.4byte	.LASF111
 2971 0b43 04       		.byte	0x4
ARM GAS  C:\Users\miyag\AppData\Local\Temp\ccphtVl4.s 			page 79


 2972 0b44 7A       		.byte	0x7a
 2973 0b45 490B0000 		.4byte	0xb49
 2974 0b49 05       		.uleb128 0x5
 2975 0b4a 09020000 		.4byte	0x209
 2976 0b4e 32       		.uleb128 0x32
 2977 0b4f A5020000 		.4byte	.LASF112
 2978 0b53 05       		.byte	0x5
 2979 0b54 BE       		.byte	0xbe
 2980 0b55 5F0B0000 		.4byte	0xb5f
 2981 0b59 33       		.uleb128 0x33
 2982 0b5a 5F0B0000 		.4byte	0xb5f
 2983 0b5e 00       		.byte	0
 2984 0b5f 09       		.uleb128 0x9
 2985 0b60 04       		.byte	0x4
 2986 0b61 83000000 		.4byte	0x83
 2987 0b65 34       		.uleb128 0x34
 2988 0b66 60020000 		.4byte	.LASF121
 2989 0b6a 04       		.byte	0x4
 2990 0b6b 7B01     		.2byte	0x17b
 2991 0b6d 6B000000 		.4byte	0x6b
 2992 0b71 850B0000 		.4byte	0xb85
 2993 0b75 33       		.uleb128 0x33
 2994 0b76 35040000 		.4byte	0x435
 2995 0b7a 33       		.uleb128 0x33
 2996 0b7b 6B000000 		.4byte	0x6b
 2997 0b7f 33       		.uleb128 0x33
 2998 0b80 6B000000 		.4byte	0x6b
 2999 0b84 00       		.byte	0
 3000 0b85 35       		.uleb128 0x35
 3001 0b86 4E030000 		.4byte	.LASF114
 3002 0b8a 04       		.byte	0x4
 3003 0b8b B3       		.byte	0xb3
 3004 0b8c 6B000000 		.4byte	0x6b
 3005 0b90 35       		.uleb128 0x35
 3006 0b91 FB060000 		.4byte	.LASF115
 3007 0b95 04       		.byte	0x4
 3008 0b96 A9       		.byte	0xa9
 3009 0b97 6B000000 		.4byte	0x6b
 3010 0b9b 36       		.uleb128 0x36
 3011 0b9c 0A010000 		.4byte	.LASF116
 3012 0ba0 04       		.byte	0x4
 3013 0ba1 4E01     		.2byte	0x14e
 3014 0ba3 6B000000 		.4byte	0x6b
 3015 0ba7 00       		.byte	0
 3016              		.section	.debug_abbrev,"",%progbits
 3017              	.Ldebug_abbrev0:
 3018 0000 01       		.uleb128 0x1
 3019 0001 11       		.uleb128 0x11
 3020 0002 01       		.byte	0x1
 3021 0003 25       		.uleb128 0x25
 3022 0004 0E       		.uleb128 0xe
 3023 0005 13       		.uleb128 0x13
 3024 0006 0B       		.uleb128 0xb
 3025 0007 03       		.uleb128 0x3
 3026 0008 0E       		.uleb128 0xe
 3027 0009 1B       		.uleb128 0x1b
 3028 000a 0E       		.uleb128 0xe
ARM GAS  C:\Users\miyag\AppData\Local\Temp\ccphtVl4.s 			page 80


 3029 000b 55       		.uleb128 0x55
 3030 000c 17       		.uleb128 0x17
 3031 000d 11       		.uleb128 0x11
 3032 000e 01       		.uleb128 0x1
 3033 000f 10       		.uleb128 0x10
 3034 0010 17       		.uleb128 0x17
 3035 0011 00       		.byte	0
 3036 0012 00       		.byte	0
 3037 0013 02       		.uleb128 0x2
 3038 0014 24       		.uleb128 0x24
 3039 0015 00       		.byte	0
 3040 0016 0B       		.uleb128 0xb
 3041 0017 0B       		.uleb128 0xb
 3042 0018 3E       		.uleb128 0x3e
 3043 0019 0B       		.uleb128 0xb
 3044 001a 03       		.uleb128 0x3
 3045 001b 0E       		.uleb128 0xe
 3046 001c 00       		.byte	0
 3047 001d 00       		.byte	0
 3048 001e 03       		.uleb128 0x3
 3049 001f 24       		.uleb128 0x24
 3050 0020 00       		.byte	0
 3051 0021 0B       		.uleb128 0xb
 3052 0022 0B       		.uleb128 0xb
 3053 0023 3E       		.uleb128 0x3e
 3054 0024 0B       		.uleb128 0xb
 3055 0025 03       		.uleb128 0x3
 3056 0026 08       		.uleb128 0x8
 3057 0027 00       		.byte	0
 3058 0028 00       		.byte	0
 3059 0029 04       		.uleb128 0x4
 3060 002a 16       		.uleb128 0x16
 3061 002b 00       		.byte	0
 3062 002c 03       		.uleb128 0x3
 3063 002d 0E       		.uleb128 0xe
 3064 002e 3A       		.uleb128 0x3a
 3065 002f 0B       		.uleb128 0xb
 3066 0030 3B       		.uleb128 0x3b
 3067 0031 05       		.uleb128 0x5
 3068 0032 49       		.uleb128 0x49
 3069 0033 13       		.uleb128 0x13
 3070 0034 00       		.byte	0
 3071 0035 00       		.byte	0
 3072 0036 05       		.uleb128 0x5
 3073 0037 35       		.uleb128 0x35
 3074 0038 00       		.byte	0
 3075 0039 49       		.uleb128 0x49
 3076 003a 13       		.uleb128 0x13
 3077 003b 00       		.byte	0
 3078 003c 00       		.byte	0
 3079 003d 06       		.uleb128 0x6
 3080 003e 13       		.uleb128 0x13
 3081 003f 01       		.byte	0x1
 3082 0040 0B       		.uleb128 0xb
 3083 0041 0B       		.uleb128 0xb
 3084 0042 3A       		.uleb128 0x3a
 3085 0043 0B       		.uleb128 0xb
ARM GAS  C:\Users\miyag\AppData\Local\Temp\ccphtVl4.s 			page 81


 3086 0044 3B       		.uleb128 0x3b
 3087 0045 0B       		.uleb128 0xb
 3088 0046 01       		.uleb128 0x1
 3089 0047 13       		.uleb128 0x13
 3090 0048 00       		.byte	0
 3091 0049 00       		.byte	0
 3092 004a 07       		.uleb128 0x7
 3093 004b 0D       		.uleb128 0xd
 3094 004c 00       		.byte	0
 3095 004d 03       		.uleb128 0x3
 3096 004e 0E       		.uleb128 0xe
 3097 004f 3A       		.uleb128 0x3a
 3098 0050 0B       		.uleb128 0xb
 3099 0051 3B       		.uleb128 0x3b
 3100 0052 0B       		.uleb128 0xb
 3101 0053 49       		.uleb128 0x49
 3102 0054 13       		.uleb128 0x13
 3103 0055 38       		.uleb128 0x38
 3104 0056 0B       		.uleb128 0xb
 3105 0057 00       		.byte	0
 3106 0058 00       		.byte	0
 3107 0059 08       		.uleb128 0x8
 3108 005a 16       		.uleb128 0x16
 3109 005b 00       		.byte	0
 3110 005c 03       		.uleb128 0x3
 3111 005d 0E       		.uleb128 0xe
 3112 005e 3A       		.uleb128 0x3a
 3113 005f 0B       		.uleb128 0xb
 3114 0060 3B       		.uleb128 0x3b
 3115 0061 0B       		.uleb128 0xb
 3116 0062 49       		.uleb128 0x49
 3117 0063 13       		.uleb128 0x13
 3118 0064 00       		.byte	0
 3119 0065 00       		.byte	0
 3120 0066 09       		.uleb128 0x9
 3121 0067 0F       		.uleb128 0xf
 3122 0068 00       		.byte	0
 3123 0069 0B       		.uleb128 0xb
 3124 006a 0B       		.uleb128 0xb
 3125 006b 49       		.uleb128 0x49
 3126 006c 13       		.uleb128 0x13
 3127 006d 00       		.byte	0
 3128 006e 00       		.byte	0
 3129 006f 0A       		.uleb128 0xa
 3130 0070 0D       		.uleb128 0xd
 3131 0071 00       		.byte	0
 3132 0072 03       		.uleb128 0x3
 3133 0073 08       		.uleb128 0x8
 3134 0074 3A       		.uleb128 0x3a
 3135 0075 0B       		.uleb128 0xb
 3136 0076 3B       		.uleb128 0x3b
 3137 0077 0B       		.uleb128 0xb
 3138 0078 49       		.uleb128 0x49
 3139 0079 13       		.uleb128 0x13
 3140 007a 38       		.uleb128 0x38
 3141 007b 0B       		.uleb128 0xb
 3142 007c 00       		.byte	0
ARM GAS  C:\Users\miyag\AppData\Local\Temp\ccphtVl4.s 			page 82


 3143 007d 00       		.byte	0
 3144 007e 0B       		.uleb128 0xb
 3145 007f 26       		.uleb128 0x26
 3146 0080 00       		.byte	0
 3147 0081 00       		.byte	0
 3148 0082 00       		.byte	0
 3149 0083 0C       		.uleb128 0xc
 3150 0084 01       		.uleb128 0x1
 3151 0085 01       		.byte	0x1
 3152 0086 49       		.uleb128 0x49
 3153 0087 13       		.uleb128 0x13
 3154 0088 01       		.uleb128 0x1
 3155 0089 13       		.uleb128 0x13
 3156 008a 00       		.byte	0
 3157 008b 00       		.byte	0
 3158 008c 0D       		.uleb128 0xd
 3159 008d 21       		.uleb128 0x21
 3160 008e 00       		.byte	0
 3161 008f 49       		.uleb128 0x49
 3162 0090 13       		.uleb128 0x13
 3163 0091 2F       		.uleb128 0x2f
 3164 0092 0B       		.uleb128 0xb
 3165 0093 00       		.byte	0
 3166 0094 00       		.byte	0
 3167 0095 0E       		.uleb128 0xe
 3168 0096 13       		.uleb128 0x13
 3169 0097 01       		.byte	0x1
 3170 0098 0B       		.uleb128 0xb
 3171 0099 0B       		.uleb128 0xb
 3172 009a 3A       		.uleb128 0x3a
 3173 009b 0B       		.uleb128 0xb
 3174 009c 3B       		.uleb128 0x3b
 3175 009d 05       		.uleb128 0x5
 3176 009e 01       		.uleb128 0x1
 3177 009f 13       		.uleb128 0x13
 3178 00a0 00       		.byte	0
 3179 00a1 00       		.byte	0
 3180 00a2 0F       		.uleb128 0xf
 3181 00a3 0D       		.uleb128 0xd
 3182 00a4 00       		.byte	0
 3183 00a5 03       		.uleb128 0x3
 3184 00a6 0E       		.uleb128 0xe
 3185 00a7 3A       		.uleb128 0x3a
 3186 00a8 0B       		.uleb128 0xb
 3187 00a9 3B       		.uleb128 0x3b
 3188 00aa 05       		.uleb128 0x5
 3189 00ab 49       		.uleb128 0x49
 3190 00ac 13       		.uleb128 0x13
 3191 00ad 38       		.uleb128 0x38
 3192 00ae 0B       		.uleb128 0xb
 3193 00af 00       		.byte	0
 3194 00b0 00       		.byte	0
 3195 00b1 10       		.uleb128 0x10
 3196 00b2 2E       		.uleb128 0x2e
 3197 00b3 01       		.byte	0x1
 3198 00b4 3F       		.uleb128 0x3f
 3199 00b5 19       		.uleb128 0x19
ARM GAS  C:\Users\miyag\AppData\Local\Temp\ccphtVl4.s 			page 83


 3200 00b6 03       		.uleb128 0x3
 3201 00b7 0E       		.uleb128 0xe
 3202 00b8 3A       		.uleb128 0x3a
 3203 00b9 0B       		.uleb128 0xb
 3204 00ba 3B       		.uleb128 0x3b
 3205 00bb 05       		.uleb128 0x5
 3206 00bc 27       		.uleb128 0x27
 3207 00bd 19       		.uleb128 0x19
 3208 00be 20       		.uleb128 0x20
 3209 00bf 0B       		.uleb128 0xb
 3210 00c0 01       		.uleb128 0x1
 3211 00c1 13       		.uleb128 0x13
 3212 00c2 00       		.byte	0
 3213 00c3 00       		.byte	0
 3214 00c4 11       		.uleb128 0x11
 3215 00c5 34       		.uleb128 0x34
 3216 00c6 00       		.byte	0
 3217 00c7 03       		.uleb128 0x3
 3218 00c8 08       		.uleb128 0x8
 3219 00c9 3A       		.uleb128 0x3a
 3220 00ca 0B       		.uleb128 0xb
 3221 00cb 3B       		.uleb128 0x3b
 3222 00cc 05       		.uleb128 0x5
 3223 00cd 49       		.uleb128 0x49
 3224 00ce 13       		.uleb128 0x13
 3225 00cf 00       		.byte	0
 3226 00d0 00       		.byte	0
 3227 00d1 12       		.uleb128 0x12
 3228 00d2 34       		.uleb128 0x34
 3229 00d3 00       		.byte	0
 3230 00d4 03       		.uleb128 0x3
 3231 00d5 0E       		.uleb128 0xe
 3232 00d6 3A       		.uleb128 0x3a
 3233 00d7 0B       		.uleb128 0xb
 3234 00d8 3B       		.uleb128 0x3b
 3235 00d9 05       		.uleb128 0x5
 3236 00da 49       		.uleb128 0x49
 3237 00db 13       		.uleb128 0x13
 3238 00dc 00       		.byte	0
 3239 00dd 00       		.byte	0
 3240 00de 13       		.uleb128 0x13
 3241 00df 26       		.uleb128 0x26
 3242 00e0 00       		.byte	0
 3243 00e1 49       		.uleb128 0x49
 3244 00e2 13       		.uleb128 0x13
 3245 00e3 00       		.byte	0
 3246 00e4 00       		.byte	0
 3247 00e5 14       		.uleb128 0x14
 3248 00e6 05       		.uleb128 0x5
 3249 00e7 00       		.byte	0
 3250 00e8 03       		.uleb128 0x3
 3251 00e9 0E       		.uleb128 0xe
 3252 00ea 3A       		.uleb128 0x3a
 3253 00eb 0B       		.uleb128 0xb
 3254 00ec 3B       		.uleb128 0x3b
 3255 00ed 05       		.uleb128 0x5
 3256 00ee 49       		.uleb128 0x49
ARM GAS  C:\Users\miyag\AppData\Local\Temp\ccphtVl4.s 			page 84


 3257 00ef 13       		.uleb128 0x13
 3258 00f0 00       		.byte	0
 3259 00f1 00       		.byte	0
 3260 00f2 15       		.uleb128 0x15
 3261 00f3 0B       		.uleb128 0xb
 3262 00f4 01       		.byte	0x1
 3263 00f5 00       		.byte	0
 3264 00f6 00       		.byte	0
 3265 00f7 16       		.uleb128 0x16
 3266 00f8 2E       		.uleb128 0x2e
 3267 00f9 00       		.byte	0
 3268 00fa 3F       		.uleb128 0x3f
 3269 00fb 19       		.uleb128 0x19
 3270 00fc 03       		.uleb128 0x3
 3271 00fd 0E       		.uleb128 0xe
 3272 00fe 3A       		.uleb128 0x3a
 3273 00ff 0B       		.uleb128 0xb
 3274 0100 3B       		.uleb128 0x3b
 3275 0101 05       		.uleb128 0x5
 3276 0102 27       		.uleb128 0x27
 3277 0103 19       		.uleb128 0x19
 3278 0104 49       		.uleb128 0x49
 3279 0105 13       		.uleb128 0x13
 3280 0106 20       		.uleb128 0x20
 3281 0107 0B       		.uleb128 0xb
 3282 0108 00       		.byte	0
 3283 0109 00       		.byte	0
 3284 010a 17       		.uleb128 0x17
 3285 010b 2E       		.uleb128 0x2e
 3286 010c 01       		.byte	0x1
 3287 010d 3F       		.uleb128 0x3f
 3288 010e 19       		.uleb128 0x19
 3289 010f 03       		.uleb128 0x3
 3290 0110 0E       		.uleb128 0xe
 3291 0111 3A       		.uleb128 0x3a
 3292 0112 0B       		.uleb128 0xb
 3293 0113 3B       		.uleb128 0x3b
 3294 0114 05       		.uleb128 0x5
 3295 0115 27       		.uleb128 0x27
 3296 0116 19       		.uleb128 0x19
 3297 0117 11       		.uleb128 0x11
 3298 0118 01       		.uleb128 0x1
 3299 0119 12       		.uleb128 0x12
 3300 011a 06       		.uleb128 0x6
 3301 011b 40       		.uleb128 0x40
 3302 011c 18       		.uleb128 0x18
 3303 011d 9742     		.uleb128 0x2117
 3304 011f 19       		.uleb128 0x19
 3305 0120 01       		.uleb128 0x1
 3306 0121 13       		.uleb128 0x13
 3307 0122 00       		.byte	0
 3308 0123 00       		.byte	0
 3309 0124 18       		.uleb128 0x18
 3310 0125 05       		.uleb128 0x5
 3311 0126 00       		.byte	0
 3312 0127 03       		.uleb128 0x3
 3313 0128 0E       		.uleb128 0xe
ARM GAS  C:\Users\miyag\AppData\Local\Temp\ccphtVl4.s 			page 85


 3314 0129 3A       		.uleb128 0x3a
 3315 012a 0B       		.uleb128 0xb
 3316 012b 3B       		.uleb128 0x3b
 3317 012c 05       		.uleb128 0x5
 3318 012d 49       		.uleb128 0x49
 3319 012e 13       		.uleb128 0x13
 3320 012f 02       		.uleb128 0x2
 3321 0130 17       		.uleb128 0x17
 3322 0131 00       		.byte	0
 3323 0132 00       		.byte	0
 3324 0133 19       		.uleb128 0x19
 3325 0134 34       		.uleb128 0x34
 3326 0135 00       		.byte	0
 3327 0136 03       		.uleb128 0x3
 3328 0137 08       		.uleb128 0x8
 3329 0138 3A       		.uleb128 0x3a
 3330 0139 0B       		.uleb128 0xb
 3331 013a 3B       		.uleb128 0x3b
 3332 013b 05       		.uleb128 0x5
 3333 013c 49       		.uleb128 0x49
 3334 013d 13       		.uleb128 0x13
 3335 013e 02       		.uleb128 0x2
 3336 013f 18       		.uleb128 0x18
 3337 0140 00       		.byte	0
 3338 0141 00       		.byte	0
 3339 0142 1A       		.uleb128 0x1a
 3340 0143 34       		.uleb128 0x34
 3341 0144 00       		.byte	0
 3342 0145 03       		.uleb128 0x3
 3343 0146 08       		.uleb128 0x8
 3344 0147 3A       		.uleb128 0x3a
 3345 0148 0B       		.uleb128 0xb
 3346 0149 3B       		.uleb128 0x3b
 3347 014a 05       		.uleb128 0x5
 3348 014b 49       		.uleb128 0x49
 3349 014c 13       		.uleb128 0x13
 3350 014d 02       		.uleb128 0x2
 3351 014e 17       		.uleb128 0x17
 3352 014f 00       		.byte	0
 3353 0150 00       		.byte	0
 3354 0151 1B       		.uleb128 0x1b
 3355 0152 34       		.uleb128 0x34
 3356 0153 00       		.byte	0
 3357 0154 03       		.uleb128 0x3
 3358 0155 0E       		.uleb128 0xe
 3359 0156 3A       		.uleb128 0x3a
 3360 0157 0B       		.uleb128 0xb
 3361 0158 3B       		.uleb128 0x3b
 3362 0159 05       		.uleb128 0x5
 3363 015a 49       		.uleb128 0x49
 3364 015b 13       		.uleb128 0x13
 3365 015c 02       		.uleb128 0x2
 3366 015d 18       		.uleb128 0x18
 3367 015e 00       		.byte	0
 3368 015f 00       		.byte	0
 3369 0160 1C       		.uleb128 0x1c
 3370 0161 898201   		.uleb128 0x4109
ARM GAS  C:\Users\miyag\AppData\Local\Temp\ccphtVl4.s 			page 86


 3371 0164 01       		.byte	0x1
 3372 0165 11       		.uleb128 0x11
 3373 0166 01       		.uleb128 0x1
 3374 0167 31       		.uleb128 0x31
 3375 0168 13       		.uleb128 0x13
 3376 0169 00       		.byte	0
 3377 016a 00       		.byte	0
 3378 016b 1D       		.uleb128 0x1d
 3379 016c 8A8201   		.uleb128 0x410a
 3380 016f 00       		.byte	0
 3381 0170 02       		.uleb128 0x2
 3382 0171 18       		.uleb128 0x18
 3383 0172 9142     		.uleb128 0x2111
 3384 0174 18       		.uleb128 0x18
 3385 0175 00       		.byte	0
 3386 0176 00       		.byte	0
 3387 0177 1E       		.uleb128 0x1e
 3388 0178 2E       		.uleb128 0x2e
 3389 0179 01       		.byte	0x1
 3390 017a 3F       		.uleb128 0x3f
 3391 017b 19       		.uleb128 0x19
 3392 017c 03       		.uleb128 0x3
 3393 017d 0E       		.uleb128 0xe
 3394 017e 3A       		.uleb128 0x3a
 3395 017f 0B       		.uleb128 0xb
 3396 0180 3B       		.uleb128 0x3b
 3397 0181 05       		.uleb128 0x5
 3398 0182 27       		.uleb128 0x27
 3399 0183 19       		.uleb128 0x19
 3400 0184 49       		.uleb128 0x49
 3401 0185 13       		.uleb128 0x13
 3402 0186 11       		.uleb128 0x11
 3403 0187 01       		.uleb128 0x1
 3404 0188 12       		.uleb128 0x12
 3405 0189 06       		.uleb128 0x6
 3406 018a 40       		.uleb128 0x40
 3407 018b 18       		.uleb128 0x18
 3408 018c 9742     		.uleb128 0x2117
 3409 018e 19       		.uleb128 0x19
 3410 018f 01       		.uleb128 0x1
 3411 0190 13       		.uleb128 0x13
 3412 0191 00       		.byte	0
 3413 0192 00       		.byte	0
 3414 0193 1F       		.uleb128 0x1f
 3415 0194 34       		.uleb128 0x34
 3416 0195 00       		.byte	0
 3417 0196 03       		.uleb128 0x3
 3418 0197 0E       		.uleb128 0xe
 3419 0198 3A       		.uleb128 0x3a
 3420 0199 0B       		.uleb128 0xb
 3421 019a 3B       		.uleb128 0x3b
 3422 019b 05       		.uleb128 0x5
 3423 019c 49       		.uleb128 0x49
 3424 019d 13       		.uleb128 0x13
 3425 019e 02       		.uleb128 0x2
 3426 019f 17       		.uleb128 0x17
 3427 01a0 00       		.byte	0
ARM GAS  C:\Users\miyag\AppData\Local\Temp\ccphtVl4.s 			page 87


 3428 01a1 00       		.byte	0
 3429 01a2 20       		.uleb128 0x20
 3430 01a3 2E       		.uleb128 0x2e
 3431 01a4 01       		.byte	0x1
 3432 01a5 31       		.uleb128 0x31
 3433 01a6 13       		.uleb128 0x13
 3434 01a7 11       		.uleb128 0x11
 3435 01a8 01       		.uleb128 0x1
 3436 01a9 12       		.uleb128 0x12
 3437 01aa 06       		.uleb128 0x6
 3438 01ab 40       		.uleb128 0x40
 3439 01ac 18       		.uleb128 0x18
 3440 01ad 9742     		.uleb128 0x2117
 3441 01af 19       		.uleb128 0x19
 3442 01b0 01       		.uleb128 0x1
 3443 01b1 13       		.uleb128 0x13
 3444 01b2 00       		.byte	0
 3445 01b3 00       		.byte	0
 3446 01b4 21       		.uleb128 0x21
 3447 01b5 34       		.uleb128 0x34
 3448 01b6 00       		.byte	0
 3449 01b7 31       		.uleb128 0x31
 3450 01b8 13       		.uleb128 0x13
 3451 01b9 00       		.byte	0
 3452 01ba 00       		.byte	0
 3453 01bb 22       		.uleb128 0x22
 3454 01bc 0B       		.uleb128 0xb
 3455 01bd 01       		.byte	0x1
 3456 01be 11       		.uleb128 0x11
 3457 01bf 01       		.uleb128 0x1
 3458 01c0 12       		.uleb128 0x12
 3459 01c1 06       		.uleb128 0x6
 3460 01c2 00       		.byte	0
 3461 01c3 00       		.byte	0
 3462 01c4 23       		.uleb128 0x23
 3463 01c5 34       		.uleb128 0x34
 3464 01c6 00       		.byte	0
 3465 01c7 31       		.uleb128 0x31
 3466 01c8 13       		.uleb128 0x13
 3467 01c9 02       		.uleb128 0x2
 3468 01ca 17       		.uleb128 0x17
 3469 01cb 00       		.byte	0
 3470 01cc 00       		.byte	0
 3471 01cd 24       		.uleb128 0x24
 3472 01ce 898201   		.uleb128 0x4109
 3473 01d1 00       		.byte	0
 3474 01d2 11       		.uleb128 0x11
 3475 01d3 01       		.uleb128 0x1
 3476 01d4 31       		.uleb128 0x31
 3477 01d5 13       		.uleb128 0x13
 3478 01d6 00       		.byte	0
 3479 01d7 00       		.byte	0
 3480 01d8 25       		.uleb128 0x25
 3481 01d9 2E       		.uleb128 0x2e
 3482 01da 00       		.byte	0
 3483 01db 31       		.uleb128 0x31
 3484 01dc 13       		.uleb128 0x13
ARM GAS  C:\Users\miyag\AppData\Local\Temp\ccphtVl4.s 			page 88


 3485 01dd 11       		.uleb128 0x11
 3486 01de 01       		.uleb128 0x1
 3487 01df 12       		.uleb128 0x12
 3488 01e0 06       		.uleb128 0x6
 3489 01e1 40       		.uleb128 0x40
 3490 01e2 18       		.uleb128 0x18
 3491 01e3 9742     		.uleb128 0x2117
 3492 01e5 19       		.uleb128 0x19
 3493 01e6 00       		.byte	0
 3494 01e7 00       		.byte	0
 3495 01e8 26       		.uleb128 0x26
 3496 01e9 05       		.uleb128 0x5
 3497 01ea 00       		.byte	0
 3498 01eb 31       		.uleb128 0x31
 3499 01ec 13       		.uleb128 0x13
 3500 01ed 02       		.uleb128 0x2
 3501 01ee 17       		.uleb128 0x17
 3502 01ef 00       		.byte	0
 3503 01f0 00       		.byte	0
 3504 01f1 27       		.uleb128 0x27
 3505 01f2 34       		.uleb128 0x34
 3506 01f3 00       		.byte	0
 3507 01f4 31       		.uleb128 0x31
 3508 01f5 13       		.uleb128 0x13
 3509 01f6 1C       		.uleb128 0x1c
 3510 01f7 0B       		.uleb128 0xb
 3511 01f8 00       		.byte	0
 3512 01f9 00       		.byte	0
 3513 01fa 28       		.uleb128 0x28
 3514 01fb 0B       		.uleb128 0xb
 3515 01fc 01       		.byte	0x1
 3516 01fd 55       		.uleb128 0x55
 3517 01fe 17       		.uleb128 0x17
 3518 01ff 00       		.byte	0
 3519 0200 00       		.byte	0
 3520 0201 29       		.uleb128 0x29
 3521 0202 898201   		.uleb128 0x4109
 3522 0205 01       		.byte	0x1
 3523 0206 11       		.uleb128 0x11
 3524 0207 01       		.uleb128 0x1
 3525 0208 31       		.uleb128 0x31
 3526 0209 13       		.uleb128 0x13
 3527 020a 01       		.uleb128 0x1
 3528 020b 13       		.uleb128 0x13
 3529 020c 00       		.byte	0
 3530 020d 00       		.byte	0
 3531 020e 2A       		.uleb128 0x2a
 3532 020f 898201   		.uleb128 0x4109
 3533 0212 00       		.byte	0
 3534 0213 11       		.uleb128 0x11
 3535 0214 01       		.uleb128 0x1
 3536 0215 9542     		.uleb128 0x2115
 3537 0217 19       		.uleb128 0x19
 3538 0218 31       		.uleb128 0x31
 3539 0219 13       		.uleb128 0x13
 3540 021a 00       		.byte	0
 3541 021b 00       		.byte	0
ARM GAS  C:\Users\miyag\AppData\Local\Temp\ccphtVl4.s 			page 89


 3542 021c 2B       		.uleb128 0x2b
 3543 021d 34       		.uleb128 0x34
 3544 021e 00       		.byte	0
 3545 021f 03       		.uleb128 0x3
 3546 0220 0E       		.uleb128 0xe
 3547 0221 3A       		.uleb128 0x3a
 3548 0222 0B       		.uleb128 0xb
 3549 0223 3B       		.uleb128 0x3b
 3550 0224 05       		.uleb128 0x5
 3551 0225 49       		.uleb128 0x49
 3552 0226 13       		.uleb128 0x13
 3553 0227 1C       		.uleb128 0x1c
 3554 0228 0B       		.uleb128 0xb
 3555 0229 00       		.byte	0
 3556 022a 00       		.byte	0
 3557 022b 2C       		.uleb128 0x2c
 3558 022c 2E       		.uleb128 0x2e
 3559 022d 01       		.byte	0x1
 3560 022e 3F       		.uleb128 0x3f
 3561 022f 19       		.uleb128 0x19
 3562 0230 03       		.uleb128 0x3
 3563 0231 0E       		.uleb128 0xe
 3564 0232 3A       		.uleb128 0x3a
 3565 0233 0B       		.uleb128 0xb
 3566 0234 3B       		.uleb128 0x3b
 3567 0235 0B       		.uleb128 0xb
 3568 0236 27       		.uleb128 0x27
 3569 0237 19       		.uleb128 0x19
 3570 0238 49       		.uleb128 0x49
 3571 0239 13       		.uleb128 0x13
 3572 023a 11       		.uleb128 0x11
 3573 023b 01       		.uleb128 0x1
 3574 023c 12       		.uleb128 0x12
 3575 023d 06       		.uleb128 0x6
 3576 023e 40       		.uleb128 0x40
 3577 023f 18       		.uleb128 0x18
 3578 0240 9742     		.uleb128 0x2117
 3579 0242 19       		.uleb128 0x19
 3580 0243 01       		.uleb128 0x1
 3581 0244 13       		.uleb128 0x13
 3582 0245 00       		.byte	0
 3583 0246 00       		.byte	0
 3584 0247 2D       		.uleb128 0x2d
 3585 0248 34       		.uleb128 0x34
 3586 0249 00       		.byte	0
 3587 024a 03       		.uleb128 0x3
 3588 024b 0E       		.uleb128 0xe
 3589 024c 3A       		.uleb128 0x3a
 3590 024d 0B       		.uleb128 0xb
 3591 024e 3B       		.uleb128 0x3b
 3592 024f 0B       		.uleb128 0xb
 3593 0250 49       		.uleb128 0x49
 3594 0251 13       		.uleb128 0x13
 3595 0252 02       		.uleb128 0x2
 3596 0253 17       		.uleb128 0x17
 3597 0254 00       		.byte	0
 3598 0255 00       		.byte	0
ARM GAS  C:\Users\miyag\AppData\Local\Temp\ccphtVl4.s 			page 90


 3599 0256 2E       		.uleb128 0x2e
 3600 0257 34       		.uleb128 0x34
 3601 0258 00       		.byte	0
 3602 0259 03       		.uleb128 0x3
 3603 025a 0E       		.uleb128 0xe
 3604 025b 3A       		.uleb128 0x3a
 3605 025c 0B       		.uleb128 0xb
 3606 025d 3B       		.uleb128 0x3b
 3607 025e 0B       		.uleb128 0xb
 3608 025f 49       		.uleb128 0x49
 3609 0260 13       		.uleb128 0x13
 3610 0261 02       		.uleb128 0x2
 3611 0262 18       		.uleb128 0x18
 3612 0263 00       		.byte	0
 3613 0264 00       		.byte	0
 3614 0265 2F       		.uleb128 0x2f
 3615 0266 1D       		.uleb128 0x1d
 3616 0267 00       		.byte	0
 3617 0268 31       		.uleb128 0x31
 3618 0269 13       		.uleb128 0x13
 3619 026a 11       		.uleb128 0x11
 3620 026b 01       		.uleb128 0x1
 3621 026c 12       		.uleb128 0x12
 3622 026d 06       		.uleb128 0x6
 3623 026e 58       		.uleb128 0x58
 3624 026f 0B       		.uleb128 0xb
 3625 0270 59       		.uleb128 0x59
 3626 0271 0B       		.uleb128 0xb
 3627 0272 00       		.byte	0
 3628 0273 00       		.byte	0
 3629 0274 30       		.uleb128 0x30
 3630 0275 34       		.uleb128 0x34
 3631 0276 00       		.byte	0
 3632 0277 03       		.uleb128 0x3
 3633 0278 0E       		.uleb128 0xe
 3634 0279 3A       		.uleb128 0x3a
 3635 027a 0B       		.uleb128 0xb
 3636 027b 3B       		.uleb128 0x3b
 3637 027c 05       		.uleb128 0x5
 3638 027d 49       		.uleb128 0x49
 3639 027e 13       		.uleb128 0x13
 3640 027f 3F       		.uleb128 0x3f
 3641 0280 19       		.uleb128 0x19
 3642 0281 3C       		.uleb128 0x3c
 3643 0282 19       		.uleb128 0x19
 3644 0283 00       		.byte	0
 3645 0284 00       		.byte	0
 3646 0285 31       		.uleb128 0x31
 3647 0286 34       		.uleb128 0x34
 3648 0287 00       		.byte	0
 3649 0288 03       		.uleb128 0x3
 3650 0289 0E       		.uleb128 0xe
 3651 028a 3A       		.uleb128 0x3a
 3652 028b 0B       		.uleb128 0xb
 3653 028c 3B       		.uleb128 0x3b
 3654 028d 0B       		.uleb128 0xb
 3655 028e 49       		.uleb128 0x49
ARM GAS  C:\Users\miyag\AppData\Local\Temp\ccphtVl4.s 			page 91


 3656 028f 13       		.uleb128 0x13
 3657 0290 3F       		.uleb128 0x3f
 3658 0291 19       		.uleb128 0x19
 3659 0292 3C       		.uleb128 0x3c
 3660 0293 19       		.uleb128 0x19
 3661 0294 00       		.byte	0
 3662 0295 00       		.byte	0
 3663 0296 32       		.uleb128 0x32
 3664 0297 2E       		.uleb128 0x2e
 3665 0298 01       		.byte	0x1
 3666 0299 3F       		.uleb128 0x3f
 3667 029a 19       		.uleb128 0x19
 3668 029b 03       		.uleb128 0x3
 3669 029c 0E       		.uleb128 0xe
 3670 029d 3A       		.uleb128 0x3a
 3671 029e 0B       		.uleb128 0xb
 3672 029f 3B       		.uleb128 0x3b
 3673 02a0 0B       		.uleb128 0xb
 3674 02a1 27       		.uleb128 0x27
 3675 02a2 19       		.uleb128 0x19
 3676 02a3 3C       		.uleb128 0x3c
 3677 02a4 19       		.uleb128 0x19
 3678 02a5 01       		.uleb128 0x1
 3679 02a6 13       		.uleb128 0x13
 3680 02a7 00       		.byte	0
 3681 02a8 00       		.byte	0
 3682 02a9 33       		.uleb128 0x33
 3683 02aa 05       		.uleb128 0x5
 3684 02ab 00       		.byte	0
 3685 02ac 49       		.uleb128 0x49
 3686 02ad 13       		.uleb128 0x13
 3687 02ae 00       		.byte	0
 3688 02af 00       		.byte	0
 3689 02b0 34       		.uleb128 0x34
 3690 02b1 2E       		.uleb128 0x2e
 3691 02b2 01       		.byte	0x1
 3692 02b3 3F       		.uleb128 0x3f
 3693 02b4 19       		.uleb128 0x19
 3694 02b5 03       		.uleb128 0x3
 3695 02b6 0E       		.uleb128 0xe
 3696 02b7 3A       		.uleb128 0x3a
 3697 02b8 0B       		.uleb128 0xb
 3698 02b9 3B       		.uleb128 0x3b
 3699 02ba 05       		.uleb128 0x5
 3700 02bb 27       		.uleb128 0x27
 3701 02bc 19       		.uleb128 0x19
 3702 02bd 49       		.uleb128 0x49
 3703 02be 13       		.uleb128 0x13
 3704 02bf 3C       		.uleb128 0x3c
 3705 02c0 19       		.uleb128 0x19
 3706 02c1 01       		.uleb128 0x1
 3707 02c2 13       		.uleb128 0x13
 3708 02c3 00       		.byte	0
 3709 02c4 00       		.byte	0
 3710 02c5 35       		.uleb128 0x35
 3711 02c6 2E       		.uleb128 0x2e
 3712 02c7 00       		.byte	0
ARM GAS  C:\Users\miyag\AppData\Local\Temp\ccphtVl4.s 			page 92


 3713 02c8 3F       		.uleb128 0x3f
 3714 02c9 19       		.uleb128 0x19
 3715 02ca 03       		.uleb128 0x3
 3716 02cb 0E       		.uleb128 0xe
 3717 02cc 3A       		.uleb128 0x3a
 3718 02cd 0B       		.uleb128 0xb
 3719 02ce 3B       		.uleb128 0x3b
 3720 02cf 0B       		.uleb128 0xb
 3721 02d0 27       		.uleb128 0x27
 3722 02d1 19       		.uleb128 0x19
 3723 02d2 49       		.uleb128 0x49
 3724 02d3 13       		.uleb128 0x13
 3725 02d4 3C       		.uleb128 0x3c
 3726 02d5 19       		.uleb128 0x19
 3727 02d6 00       		.byte	0
 3728 02d7 00       		.byte	0
 3729 02d8 36       		.uleb128 0x36
 3730 02d9 2E       		.uleb128 0x2e
 3731 02da 00       		.byte	0
 3732 02db 3F       		.uleb128 0x3f
 3733 02dc 19       		.uleb128 0x19
 3734 02dd 03       		.uleb128 0x3
 3735 02de 0E       		.uleb128 0xe
 3736 02df 3A       		.uleb128 0x3a
 3737 02e0 0B       		.uleb128 0xb
 3738 02e1 3B       		.uleb128 0x3b
 3739 02e2 05       		.uleb128 0x5
 3740 02e3 27       		.uleb128 0x27
 3741 02e4 19       		.uleb128 0x19
 3742 02e5 49       		.uleb128 0x49
 3743 02e6 13       		.uleb128 0x13
 3744 02e7 3C       		.uleb128 0x3c
 3745 02e8 19       		.uleb128 0x19
 3746 02e9 00       		.byte	0
 3747 02ea 00       		.byte	0
 3748 02eb 00       		.byte	0
 3749              		.section	.debug_loc,"",%progbits
 3750              	.Ldebug_loc0:
 3751              	.LLST0:
 3752 0000 00000000 		.4byte	.LVL0
 3753 0004 0E000000 		.4byte	.LVL1
 3754 0008 0100     		.2byte	0x1
 3755 000a 50       		.byte	0x50
 3756 000b 0E000000 		.4byte	.LVL1
 3757 000f 38000000 		.4byte	.LVL4
 3758 0013 0100     		.2byte	0x1
 3759 0015 54       		.byte	0x54
 3760 0016 38000000 		.4byte	.LVL4
 3761 001a 70000000 		.4byte	.LFE1
 3762 001e 0400     		.2byte	0x4
 3763 0020 F3       		.byte	0xf3
 3764 0021 01       		.uleb128 0x1
 3765 0022 50       		.byte	0x50
 3766 0023 9F       		.byte	0x9f
 3767 0024 00000000 		.4byte	0
 3768 0028 00000000 		.4byte	0
 3769              	.LLST1:
ARM GAS  C:\Users\miyag\AppData\Local\Temp\ccphtVl4.s 			page 93


 3770 002c 34000000 		.4byte	.LVL3
 3771 0030 38000000 		.4byte	.LVL4
 3772 0034 0200     		.2byte	0x2
 3773 0036 32       		.byte	0x32
 3774 0037 9F       		.byte	0x9f
 3775 0038 38000000 		.4byte	.LVL4
 3776 003c 60000000 		.4byte	.LVL6
 3777 0040 0900     		.2byte	0x9
 3778 0042 70       		.byte	0x70
 3779 0043 00       		.sleb128 0
 3780 0044 F3       		.byte	0xf3
 3781 0045 01       		.uleb128 0x1
 3782 0046 50       		.byte	0x50
 3783 0047 1C       		.byte	0x1c
 3784 0048 23       		.byte	0x23
 3785 0049 02       		.uleb128 0x2
 3786 004a 9F       		.byte	0x9f
 3787 004b 60000000 		.4byte	.LVL6
 3788 004f 64000000 		.4byte	.LVL7
 3789 0053 0900     		.2byte	0x9
 3790 0055 70       		.byte	0x70
 3791 0056 00       		.sleb128 0
 3792 0057 F3       		.byte	0xf3
 3793 0058 01       		.uleb128 0x1
 3794 0059 50       		.byte	0x50
 3795 005a 1C       		.byte	0x1c
 3796 005b 23       		.byte	0x23
 3797 005c 06       		.uleb128 0x6
 3798 005d 9F       		.byte	0x9f
 3799 005e 00000000 		.4byte	0
 3800 0062 00000000 		.4byte	0
 3801              	.LLST2:
 3802 0066 22000000 		.4byte	.LVL2
 3803 006a 38000000 		.4byte	.LVL4
 3804 006e 0200     		.2byte	0x2
 3805 0070 30       		.byte	0x30
 3806 0071 9F       		.byte	0x9f
 3807 0072 38000000 		.4byte	.LVL4
 3808 0076 52000000 		.4byte	.LVL5
 3809 007a 0100     		.2byte	0x1
 3810 007c 52       		.byte	0x52
 3811 007d 00000000 		.4byte	0
 3812 0081 00000000 		.4byte	0
 3813              	.LLST3:
 3814 0085 00000000 		.4byte	.LVL8
 3815 0089 04000000 		.4byte	.LVL9
 3816 008d 0200     		.2byte	0x2
 3817 008f 31       		.byte	0x31
 3818 0090 9F       		.byte	0x9f
 3819 0091 04000000 		.4byte	.LVL9
 3820 0095 38000000 		.4byte	.LVL10
 3821 0099 0100     		.2byte	0x1
 3822 009b 52       		.byte	0x52
 3823 009c 00000000 		.4byte	0
 3824 00a0 00000000 		.4byte	0
 3825              	.LLST4:
 3826 00a4 00000000 		.4byte	.LVL11
ARM GAS  C:\Users\miyag\AppData\Local\Temp\ccphtVl4.s 			page 94


 3827 00a8 02000000 		.4byte	.LVL12
 3828 00ac 0200     		.2byte	0x2
 3829 00ae 31       		.byte	0x31
 3830 00af 9F       		.byte	0x9f
 3831 00b0 02000000 		.4byte	.LVL12
 3832 00b4 0E000000 		.4byte	.LVL13
 3833 00b8 0100     		.2byte	0x1
 3834 00ba 52       		.byte	0x52
 3835 00bb 00000000 		.4byte	0
 3836 00bf 00000000 		.4byte	0
 3837              	.LLST5:
 3838 00c3 00000000 		.4byte	.LVL14
 3839 00c7 18000000 		.4byte	.LVL17
 3840 00cb 0100     		.2byte	0x1
 3841 00cd 50       		.byte	0x50
 3842 00ce 18000000 		.4byte	.LVL17
 3843 00d2 24000000 		.4byte	.LFE6
 3844 00d6 0400     		.2byte	0x4
 3845 00d8 F3       		.byte	0xf3
 3846 00d9 01       		.uleb128 0x1
 3847 00da 50       		.byte	0x50
 3848 00db 9F       		.byte	0x9f
 3849 00dc 00000000 		.4byte	0
 3850 00e0 00000000 		.4byte	0
 3851              	.LLST6:
 3852 00e4 0C000000 		.4byte	.LVL15
 3853 00e8 16000000 		.4byte	.LVL16
 3854 00ec 0300     		.2byte	0x3
 3855 00ee 73       		.byte	0x73
 3856 00ef 10       		.sleb128 16
 3857 00f0 9F       		.byte	0x9f
 3858 00f1 18000000 		.4byte	.LVL17
 3859 00f5 24000000 		.4byte	.LFE6
 3860 00f9 0100     		.2byte	0x1
 3861 00fb 50       		.byte	0x50
 3862 00fc 00000000 		.4byte	0
 3863 0100 00000000 		.4byte	0
 3864              	.LLST7:
 3865 0104 14000000 		.4byte	.LVL19
 3866 0108 22000000 		.4byte	.LVL22
 3867 010c 0200     		.2byte	0x2
 3868 010e 70       		.byte	0x70
 3869 010f 08       		.sleb128 8
 3870 0110 00000000 		.4byte	0
 3871 0114 00000000 		.4byte	0
 3872              	.LLST8:
 3873 0118 3E000000 		.4byte	.LVL23
 3874 011c CA000000 		.4byte	.LVL28
 3875 0120 0100     		.2byte	0x1
 3876 0122 57       		.byte	0x57
 3877 0123 00000000 		.4byte	0
 3878 0127 00000000 		.4byte	0
 3879              	.LLST9:
 3880 012b 56000000 		.4byte	.LVL24
 3881 012f 74000000 		.4byte	.LVL25
 3882 0133 0100     		.2byte	0x1
 3883 0135 50       		.byte	0x50
ARM GAS  C:\Users\miyag\AppData\Local\Temp\ccphtVl4.s 			page 95


 3884 0136 7E000000 		.4byte	.LVL26
 3885 013a 84000000 		.4byte	.LVL27
 3886 013e 0100     		.2byte	0x1
 3887 0140 50       		.byte	0x50
 3888 0141 00000000 		.4byte	0
 3889 0145 00000000 		.4byte	0
 3890              	.LLST10:
 3891 0149 1E000000 		.4byte	.LVL21
 3892 014d 22000000 		.4byte	.LVL22
 3893 0151 0200     		.2byte	0x2
 3894 0153 30       		.byte	0x30
 3895 0154 9F       		.byte	0x9f
 3896 0155 00000000 		.4byte	0
 3897 0159 00000000 		.4byte	0
 3898              	.LLST11:
 3899 015d 1E000000 		.4byte	.LVL21
 3900 0161 CE000000 		.4byte	.LVL30
 3901 0165 0100     		.2byte	0x1
 3902 0167 54       		.byte	0x54
 3903 0168 00000000 		.4byte	0
 3904 016c 00000000 		.4byte	0
 3905              	.LLST12:
 3906 0170 14000000 		.4byte	.LVL19
 3907 0174 22000000 		.4byte	.LVL22
 3908 0178 0300     		.2byte	0x3
 3909 017a 70       		.byte	0x70
 3910 017b 08       		.sleb128 8
 3911 017c 9F       		.byte	0x9f
 3912 017d 00000000 		.4byte	0
 3913 0181 00000000 		.4byte	0
 3914              	.LLST13:
 3915 0185 18000000 		.4byte	.LVL20
 3916 0189 CE000000 		.4byte	.LVL30
 3917 018d 0100     		.2byte	0x1
 3918 018f 53       		.byte	0x53
 3919 0190 00000000 		.4byte	0
 3920 0194 00000000 		.4byte	0
 3921              	.LLST14:
 3922 0198 0E000000 		.4byte	.LVL31
 3923 019c 14000000 		.4byte	.LVL33
 3924 01a0 0100     		.2byte	0x1
 3925 01a2 50       		.byte	0x50
 3926 01a3 14000000 		.4byte	.LVL33
 3927 01a7 18000000 		.4byte	.LVL34
 3928 01ab 0800     		.2byte	0x8
 3929 01ad 73       		.byte	0x73
 3930 01ae 02       		.sleb128 2
 3931 01af 33       		.byte	0x33
 3932 01b0 24       		.byte	0x24
 3933 01b1 70       		.byte	0x70
 3934 01b2 00       		.sleb128 0
 3935 01b3 22       		.byte	0x22
 3936 01b4 9F       		.byte	0x9f
 3937 01b5 00000000 		.4byte	0
 3938 01b9 00000000 		.4byte	0
 3939              	.LLST15:
 3940 01bd 10000000 		.4byte	.LVL32
ARM GAS  C:\Users\miyag\AppData\Local\Temp\ccphtVl4.s 			page 96


 3941 01c1 18000000 		.4byte	.LVL34
 3942 01c5 0500     		.2byte	0x5
 3943 01c7 70       		.byte	0x70
 3944 01c8 04       		.sleb128 4
 3945 01c9 06       		.byte	0x6
 3946 01ca 23       		.byte	0x23
 3947 01cb 04       		.uleb128 0x4
 3948 01cc 18000000 		.4byte	.LVL34
 3949 01d0 1A000000 		.4byte	.LVL35
 3950 01d4 0100     		.2byte	0x1
 3951 01d6 53       		.byte	0x53
 3952 01d7 00000000 		.4byte	0
 3953 01db 00000000 		.4byte	0
 3954              	.LLST16:
 3955 01df 00000000 		.4byte	.LVL36
 3956 01e3 3E000000 		.4byte	.LVL43
 3957 01e7 0100     		.2byte	0x1
 3958 01e9 50       		.byte	0x50
 3959 01ea 3E000000 		.4byte	.LVL43
 3960 01ee 4E010000 		.4byte	.LVL76
 3961 01f2 0400     		.2byte	0x4
 3962 01f4 F3       		.byte	0xf3
 3963 01f5 01       		.uleb128 0x1
 3964 01f6 50       		.byte	0x50
 3965 01f7 9F       		.byte	0x9f
 3966 01f8 4E010000 		.4byte	.LVL76
 3967 01fc 6C010000 		.4byte	.LFE4
 3968 0200 0100     		.2byte	0x1
 3969 0202 50       		.byte	0x50
 3970 0203 00000000 		.4byte	0
 3971 0207 00000000 		.4byte	0
 3972              	.LLST17:
 3973 020b 00000000 		.4byte	.LVL36
 3974 020f 06000000 		.4byte	.LVL37
 3975 0213 0200     		.2byte	0x2
 3976 0215 30       		.byte	0x30
 3977 0216 9F       		.byte	0x9f
 3978 0217 06000000 		.4byte	.LVL37
 3979 021b 0E000000 		.4byte	.LVL38
 3980 021f 0100     		.2byte	0x1
 3981 0221 51       		.byte	0x51
 3982 0222 00000000 		.4byte	0
 3983 0226 00000000 		.4byte	0
 3984              	.LLST18:
 3985 022a 26000000 		.4byte	.LVL39
 3986 022e 2E000000 		.4byte	.LVL40
 3987 0232 0200     		.2byte	0x2
 3988 0234 30       		.byte	0x30
 3989 0235 9F       		.byte	0x9f
 3990 0236 2E000000 		.4byte	.LVL40
 3991 023a 32000000 		.4byte	.LVL41
 3992 023e 0200     		.2byte	0x2
 3993 0240 31       		.byte	0x31
 3994 0241 9F       		.byte	0x9f
 3995 0242 00000000 		.4byte	0
 3996 0246 00000000 		.4byte	0
 3997              	.LLST19:
ARM GAS  C:\Users\miyag\AppData\Local\Temp\ccphtVl4.s 			page 97


 3998 024a 3C000000 		.4byte	.LVL42
 3999 024e 3E000000 		.4byte	.LVL43
 4000 0252 0100     		.2byte	0x1
 4001 0254 50       		.byte	0x50
 4002 0255 00000000 		.4byte	0
 4003 0259 00000000 		.4byte	0
 4004              	.LLST20:
 4005 025d 66000000 		.4byte	.LVL46
 4006 0261 68000000 		.4byte	.LVL47
 4007 0265 0200     		.2byte	0x2
 4008 0267 70       		.byte	0x70
 4009 0268 08       		.sleb128 8
 4010 0269 28010000 		.4byte	.LVL68
 4011 026d 2A010000 		.4byte	.LVL69
 4012 0271 0200     		.2byte	0x2
 4013 0273 31       		.byte	0x31
 4014 0274 9F       		.byte	0x9f
 4015 0275 2A010000 		.4byte	.LVL69
 4016 0279 36010000 		.4byte	.LVL70
 4017 027d 0100     		.2byte	0x1
 4018 027f 51       		.byte	0x51
 4019 0280 00000000 		.4byte	0
 4020 0284 00000000 		.4byte	0
 4021              	.LLST21:
 4022 0288 70000000 		.4byte	.LVL48
 4023 028c 74000000 		.4byte	.LVL49
 4024 0290 0200     		.2byte	0x2
 4025 0292 30       		.byte	0x30
 4026 0293 9F       		.byte	0x9f
 4027 0294 00000000 		.4byte	0
 4028 0298 00000000 		.4byte	0
 4029              	.LLST22:
 4030 029c 66000000 		.4byte	.LVL46
 4031 02a0 68000000 		.4byte	.LVL47
 4032 02a4 0200     		.2byte	0x2
 4033 02a6 31       		.byte	0x31
 4034 02a7 9F       		.byte	0x9f
 4035 02a8 70000000 		.4byte	.LVL48
 4036 02ac F2000000 		.4byte	.LVL59
 4037 02b0 0100     		.2byte	0x1
 4038 02b2 5A       		.byte	0x5a
 4039 02b3 F2000000 		.4byte	.LVL59
 4040 02b7 F4000000 		.4byte	.LVL60
 4041 02bb 0300     		.2byte	0x3
 4042 02bd 77       		.byte	0x77
 4043 02be 01       		.sleb128 1
 4044 02bf 9F       		.byte	0x9f
 4045 02c0 F4000000 		.4byte	.LVL60
 4046 02c4 FC000000 		.4byte	.LVL61
 4047 02c8 0300     		.2byte	0x3
 4048 02ca 7A       		.byte	0x7a
 4049 02cb 01       		.sleb128 1
 4050 02cc 9F       		.byte	0x9f
 4051 02cd FC000000 		.4byte	.LVL61
 4052 02d1 02010000 		.4byte	.LVL63
 4053 02d5 0200     		.2byte	0x2
 4054 02d7 30       		.byte	0x30
ARM GAS  C:\Users\miyag\AppData\Local\Temp\ccphtVl4.s 			page 98


 4055 02d8 9F       		.byte	0x9f
 4056 02d9 00000000 		.4byte	0
 4057 02dd 00000000 		.4byte	0
 4058              	.LLST23:
 4059 02e1 BC000000 		.4byte	.LVL50
 4060 02e5 C4000000 		.4byte	.LVL51
 4061 02e9 0100     		.2byte	0x1
 4062 02eb 51       		.byte	0x51
 4063 02ec C4000000 		.4byte	.LVL51
 4064 02f0 C8000000 		.4byte	.LVL52
 4065 02f4 0700     		.2byte	0x7
 4066 02f6 74       		.byte	0x74
 4067 02f7 03       		.sleb128 3
 4068 02f8 94       		.byte	0x94
 4069 02f9 01       		.byte	0x1
 4070 02fa 33       		.byte	0x33
 4071 02fb 1A       		.byte	0x1a
 4072 02fc 9F       		.byte	0x9f
 4073 02fd CC000000 		.4byte	.LVL53
 4074 0301 D2000000 		.4byte	.LVL54
 4075 0305 0100     		.2byte	0x1
 4076 0307 51       		.byte	0x51
 4077 0308 D2000000 		.4byte	.LVL54
 4078 030c D6000000 		.4byte	.LVL55
 4079 0310 0700     		.2byte	0x7
 4080 0312 74       		.byte	0x74
 4081 0313 03       		.sleb128 3
 4082 0314 94       		.byte	0x94
 4083 0315 01       		.byte	0x1
 4084 0316 33       		.byte	0x33
 4085 0317 1A       		.byte	0x1a
 4086 0318 9F       		.byte	0x9f
 4087 0319 00000000 		.4byte	0
 4088 031d 00000000 		.4byte	0
 4089              	.LLST24:
 4090 0321 4A000000 		.4byte	.LVL45
 4091 0325 68000000 		.4byte	.LVL47
 4092 0329 0200     		.2byte	0x2
 4093 032b 70       		.byte	0x70
 4094 032c 04       		.sleb128 4
 4095 032d 00000000 		.4byte	0
 4096 0331 00000000 		.4byte	0
 4097              	.LLST25:
 4098 0335 28010000 		.4byte	.LVL68
 4099 0339 2A010000 		.4byte	.LVL69
 4100 033d 0200     		.2byte	0x2
 4101 033f 30       		.byte	0x30
 4102 0340 9F       		.byte	0x9f
 4103 0341 2A010000 		.4byte	.LVL69
 4104 0345 38010000 		.4byte	.LVL71
 4105 0349 0100     		.2byte	0x1
 4106 034b 53       		.byte	0x53
 4107 034c 38010000 		.4byte	.LVL71
 4108 0350 3A010000 		.4byte	.LVL72
 4109 0354 0900     		.2byte	0x9
 4110 0356 71       		.byte	0x71
 4111 0357 7F       		.sleb128 -1
ARM GAS  C:\Users\miyag\AppData\Local\Temp\ccphtVl4.s 			page 99


 4112 0358 3C       		.byte	0x3c
 4113 0359 1E       		.byte	0x1e
 4114 035a 75       		.byte	0x75
 4115 035b 00       		.sleb128 0
 4116 035c 22       		.byte	0x22
 4117 035d 23       		.byte	0x23
 4118 035e 06       		.uleb128 0x6
 4119 035f 3A010000 		.4byte	.LVL72
 4120 0363 40010000 		.4byte	.LVL73
 4121 0367 0100     		.2byte	0x1
 4122 0369 53       		.byte	0x53
 4123 036a 44010000 		.4byte	.LVL74
 4124 036e 4D010000 		.4byte	.LVL76-1
 4125 0372 0100     		.2byte	0x1
 4126 0374 53       		.byte	0x53
 4127 0375 00000000 		.4byte	0
 4128 0379 00000000 		.4byte	0
 4129              	.LLST26:
 4130 037d 4A000000 		.4byte	.LVL45
 4131 0381 66000000 		.4byte	.LVL46
 4132 0385 0100     		.2byte	0x1
 4133 0387 50       		.byte	0x50
 4134 0388 66000000 		.4byte	.LVL46
 4135 038c 68000000 		.4byte	.LVL47
 4136 0390 0300     		.2byte	0x3
 4137 0392 70       		.byte	0x70
 4138 0393 08       		.sleb128 8
 4139 0394 9F       		.byte	0x9f
 4140 0395 68000000 		.4byte	.LVL47
 4141 0399 4A010000 		.4byte	.LVL75
 4142 039d 0300     		.2byte	0x3
 4143 039f 78       		.byte	0x78
 4144 03a0 08       		.sleb128 8
 4145 03a1 9F       		.byte	0x9f
 4146 03a2 00000000 		.4byte	0
 4147 03a6 00000000 		.4byte	0
 4148              	.LLST27:
 4149 03aa 70000000 		.4byte	.LVL48
 4150 03ae FC000000 		.4byte	.LVL61
 4151 03b2 0100     		.2byte	0x1
 4152 03b4 54       		.byte	0x54
 4153 03b5 FC000000 		.4byte	.LVL61
 4154 03b9 02010000 		.4byte	.LVL63
 4155 03bd 0100     		.2byte	0x1
 4156 03bf 53       		.byte	0x53
 4157 03c0 02010000 		.4byte	.LVL63
 4158 03c4 04010000 		.4byte	.LVL64
 4159 03c8 0300     		.2byte	0x3
 4160 03ca 72       		.byte	0x72
 4161 03cb 7E       		.sleb128 -2
 4162 03cc 9F       		.byte	0x9f
 4163 03cd 04010000 		.4byte	.LVL64
 4164 03d1 1C010000 		.4byte	.LVL65
 4165 03d5 0300     		.2byte	0x3
 4166 03d7 72       		.byte	0x72
 4167 03d8 76       		.sleb128 -10
 4168 03d9 9F       		.byte	0x9f
ARM GAS  C:\Users\miyag\AppData\Local\Temp\ccphtVl4.s 			page 100


 4169 03da 1C010000 		.4byte	.LVL65
 4170 03de 1E010000 		.4byte	.LVL66
 4171 03e2 0300     		.2byte	0x3
 4172 03e4 72       		.byte	0x72
 4173 03e5 7E       		.sleb128 -2
 4174 03e6 9F       		.byte	0x9f
 4175 03e7 1E010000 		.4byte	.LVL66
 4176 03eb 21010000 		.4byte	.LVL67-1
 4177 03ef 0300     		.2byte	0x3
 4178 03f1 72       		.byte	0x72
 4179 03f2 76       		.sleb128 -10
 4180 03f3 9F       		.byte	0x9f
 4181 03f4 00000000 		.4byte	0
 4182 03f8 00000000 		.4byte	0
 4183              	.LLST28:
 4184 03fc 3C000000 		.4byte	.LVL42
 4185 0400 68000000 		.4byte	.LVL47
 4186 0404 0200     		.2byte	0x2
 4187 0406 30       		.byte	0x30
 4188 0407 9F       		.byte	0x9f
 4189 0408 70000000 		.4byte	.LVL48
 4190 040c EB000000 		.4byte	.LVL56-1
 4191 0410 0100     		.2byte	0x1
 4192 0412 52       		.byte	0x52
 4193 0413 EE000000 		.4byte	.LVL57
 4194 0417 00010000 		.4byte	.LVL62
 4195 041b 0100     		.2byte	0x1
 4196 041d 52       		.byte	0x52
 4197 041e 00000000 		.4byte	0
 4198 0422 00000000 		.4byte	0
 4199              	.LLST29:
 4200 0426 00000000 		.4byte	.LVL77
 4201 042a 04000000 		.4byte	.LVL78
 4202 042e 0100     		.2byte	0x1
 4203 0430 50       		.byte	0x50
 4204 0431 04000000 		.4byte	.LVL78
 4205 0435 16000000 		.4byte	.LVL79
 4206 0439 0100     		.2byte	0x1
 4207 043b 50       		.byte	0x50
 4208 043c 00000000 		.4byte	0
 4209 0440 00000000 		.4byte	0
 4210              	.LLST30:
 4211 0444 08000000 		.4byte	.LVL81
 4212 0448 1A000000 		.4byte	.LVL82
 4213 044c 0100     		.2byte	0x1
 4214 044e 53       		.byte	0x53
 4215 044f 42000000 		.4byte	.LVL83
 4216 0453 54000000 		.4byte	.LFE10
 4217 0457 0100     		.2byte	0x1
 4218 0459 53       		.byte	0x53
 4219 045a 00000000 		.4byte	0
 4220 045e 00000000 		.4byte	0
 4221              	.LLST31:
 4222 0462 0A000000 		.4byte	.LVL85
 4223 0466 28000000 		.4byte	.LVL86
 4224 046a 0100     		.2byte	0x1
 4225 046c 52       		.byte	0x52
ARM GAS  C:\Users\miyag\AppData\Local\Temp\ccphtVl4.s 			page 101


 4226 046d 5E000000 		.4byte	.LVL87
 4227 0471 70000000 		.4byte	.LFE11
 4228 0475 0100     		.2byte	0x1
 4229 0477 52       		.byte	0x52
 4230 0478 00000000 		.4byte	0
 4231 047c 00000000 		.4byte	0
 4232              	.LLST32:
 4233 0480 00000000 		.4byte	.LVL88
 4234 0484 32000000 		.4byte	.LVL92
 4235 0488 0200     		.2byte	0x2
 4236 048a 30       		.byte	0x30
 4237 048b 9F       		.byte	0x9f
 4238 048c 32000000 		.4byte	.LVL92
 4239 0490 34000000 		.4byte	.LVL93
 4240 0494 0200     		.2byte	0x2
 4241 0496 31       		.byte	0x31
 4242 0497 9F       		.byte	0x9f
 4243 0498 34000000 		.4byte	.LVL93
 4244 049c 36000000 		.4byte	.LVL94
 4245 04a0 0200     		.2byte	0x2
 4246 04a2 30       		.byte	0x30
 4247 04a3 9F       		.byte	0x9f
 4248 04a4 36000000 		.4byte	.LVL94
 4249 04a8 48000000 		.4byte	.LFE12
 4250 04ac 0100     		.2byte	0x1
 4251 04ae 50       		.byte	0x50
 4252 04af 00000000 		.4byte	0
 4253 04b3 00000000 		.4byte	0
 4254              	.LLST33:
 4255 04b7 0C000000 		.4byte	.LVL89
 4256 04bb 38000000 		.4byte	.LVL95
 4257 04bf 0100     		.2byte	0x1
 4258 04c1 54       		.byte	0x54
 4259 04c2 00000000 		.4byte	0
 4260 04c6 00000000 		.4byte	0
 4261              	.LLST34:
 4262 04ca 14000000 		.4byte	.LVL90
 4263 04ce 28000000 		.4byte	.LVL91
 4264 04d2 0500     		.2byte	0x5
 4265 04d4 70       		.byte	0x70
 4266 04d5 04       		.sleb128 4
 4267 04d6 06       		.byte	0x6
 4268 04d7 23       		.byte	0x23
 4269 04d8 04       		.uleb128 0x4
 4270 04d9 34000000 		.4byte	.LVL93
 4271 04dd 36000000 		.4byte	.LVL94
 4272 04e1 0500     		.2byte	0x5
 4273 04e3 70       		.byte	0x70
 4274 04e4 04       		.sleb128 4
 4275 04e5 06       		.byte	0x6
 4276 04e6 23       		.byte	0x23
 4277 04e7 04       		.uleb128 0x4
 4278 04e8 36000000 		.4byte	.LVL94
 4279 04ec 38000000 		.4byte	.LVL95
 4280 04f0 0100     		.2byte	0x1
 4281 04f2 53       		.byte	0x53
 4282 04f3 00000000 		.4byte	0
ARM GAS  C:\Users\miyag\AppData\Local\Temp\ccphtVl4.s 			page 102


 4283 04f7 00000000 		.4byte	0
 4284              	.LLST35:
 4285 04fb 14000000 		.4byte	.LVL90
 4286 04ff 28000000 		.4byte	.LVL91
 4287 0503 0100     		.2byte	0x1
 4288 0505 50       		.byte	0x50
 4289 0506 34000000 		.4byte	.LVL93
 4290 050a 36000000 		.4byte	.LVL94
 4291 050e 0100     		.2byte	0x1
 4292 0510 50       		.byte	0x50
 4293 0511 00000000 		.4byte	0
 4294 0515 00000000 		.4byte	0
 4295              	.LLST36:
 4296 0519 00000000 		.4byte	.LVL96
 4297 051d 28020000 		.4byte	.LVL141
 4298 0521 0200     		.2byte	0x2
 4299 0523 30       		.byte	0x30
 4300 0524 9F       		.byte	0x9f
 4301 0525 00000000 		.4byte	0
 4302 0529 00000000 		.4byte	0
 4303              	.LLST37:
 4304 052d 8C010000 		.4byte	.LVL132
 4305 0531 98010000 		.4byte	.LVL133
 4306 0535 0100     		.2byte	0x1
 4307 0537 53       		.byte	0x53
 4308 0538 00000000 		.4byte	0
 4309 053c 00000000 		.4byte	0
 4310              	.LLST38:
 4311 0540 50010000 		.4byte	.LVL125
 4312 0544 56010000 		.4byte	.LVL126
 4313 0548 0100     		.2byte	0x1
 4314 054a 53       		.byte	0x53
 4315 054b 6C010000 		.4byte	.LVL128
 4316 054f 73010000 		.4byte	.LVL129-1
 4317 0553 0100     		.2byte	0x1
 4318 0555 53       		.byte	0x53
 4319 0556 00000000 		.4byte	0
 4320 055a 00000000 		.4byte	0
 4321              	.LLST39:
 4322 055e 0C000000 		.4byte	.LVL97
 4323 0562 3A000000 		.4byte	.LVL98
 4324 0566 0100     		.2byte	0x1
 4325 0568 53       		.byte	0x53
 4326 0569 DA000000 		.4byte	.LVL114
 4327 056d DE000000 		.4byte	.LVL115
 4328 0571 0100     		.2byte	0x1
 4329 0573 53       		.byte	0x53
 4330 0574 1C010000 		.4byte	.LVL118
 4331 0578 1E010000 		.4byte	.LVL119
 4332 057c 0100     		.2byte	0x1
 4333 057e 53       		.byte	0x53
 4334 057f 24010000 		.4byte	.LVL120
 4335 0583 26010000 		.4byte	.LVL121
 4336 0587 0100     		.2byte	0x1
 4337 0589 53       		.byte	0x53
 4338 058a 30010000 		.4byte	.LVL122
 4339 058e 48010000 		.4byte	.LVL123
ARM GAS  C:\Users\miyag\AppData\Local\Temp\ccphtVl4.s 			page 103


 4340 0592 0100     		.2byte	0x1
 4341 0594 53       		.byte	0x53
 4342 0595 4E010000 		.4byte	.LVL124
 4343 0599 50010000 		.4byte	.LVL125
 4344 059d 0100     		.2byte	0x1
 4345 059f 53       		.byte	0x53
 4346 05a0 7A010000 		.4byte	.LVL130
 4347 05a4 7D010000 		.4byte	.LVL131-1
 4348 05a8 0100     		.2byte	0x1
 4349 05aa 53       		.byte	0x53
 4350 05ab A8010000 		.4byte	.LVL135
 4351 05af AC010000 		.4byte	.LVL136
 4352 05b3 0100     		.2byte	0x1
 4353 05b5 53       		.byte	0x53
 4354 05b6 D8010000 		.4byte	.LVL138
 4355 05ba DC010000 		.4byte	.LVL139
 4356 05be 0100     		.2byte	0x1
 4357 05c0 53       		.byte	0x53
 4358 05c1 00000000 		.4byte	0
 4359 05c5 00000000 		.4byte	0
 4360              	.LLST40:
 4361 05c9 0C000000 		.4byte	.LVL97
 4362 05cd 76000000 		.4byte	.LVL101
 4363 05d1 0200     		.2byte	0x2
 4364 05d3 30       		.byte	0x30
 4365 05d4 9F       		.byte	0x9f
 4366 05d5 7E000000 		.4byte	.LVL102
 4367 05d9 88000000 		.4byte	.LVL103
 4368 05dd 0200     		.2byte	0x2
 4369 05df 30       		.byte	0x30
 4370 05e0 9F       		.byte	0x9f
 4371 05e1 88000000 		.4byte	.LVL103
 4372 05e5 C1000000 		.4byte	.LVL111-1
 4373 05e9 0100     		.2byte	0x1
 4374 05eb 53       		.byte	0x53
 4375 05ec C4000000 		.4byte	.LVL112
 4376 05f0 D2000000 		.4byte	.LVL113
 4377 05f4 0100     		.2byte	0x1
 4378 05f6 53       		.byte	0x53
 4379 05f7 D2000000 		.4byte	.LVL113
 4380 05fb 04010000 		.4byte	.LVL116
 4381 05ff 0200     		.2byte	0x2
 4382 0601 30       		.byte	0x30
 4383 0602 9F       		.byte	0x9f
 4384 0603 08010000 		.4byte	.LVL117
 4385 0607 28020000 		.4byte	.LVL141
 4386 060b 0200     		.2byte	0x2
 4387 060d 30       		.byte	0x30
 4388 060e 9F       		.byte	0x9f
 4389 060f 00000000 		.4byte	0
 4390 0613 00000000 		.4byte	0
 4391              	.LLST41:
 4392 0617 88000000 		.4byte	.LVL103
 4393 061b 92000000 		.4byte	.LVL104
 4394 061f 0100     		.2byte	0x1
 4395 0621 51       		.byte	0x51
 4396 0622 A4000000 		.4byte	.LVL106
ARM GAS  C:\Users\miyag\AppData\Local\Temp\ccphtVl4.s 			page 104


 4397 0626 A8000000 		.4byte	.LVL107
 4398 062a 0100     		.2byte	0x1
 4399 062c 51       		.byte	0x51
 4400 062d B0000000 		.4byte	.LVL109
 4401 0631 B2000000 		.4byte	.LVL110
 4402 0635 0100     		.2byte	0x1
 4403 0637 51       		.byte	0x51
 4404 0638 00000000 		.4byte	0
 4405 063c 00000000 		.4byte	0
 4406              	.LLST42:
 4407 0640 AE000000 		.4byte	.LVL108
 4408 0644 B2000000 		.4byte	.LVL110
 4409 0648 0100     		.2byte	0x1
 4410 064a 52       		.byte	0x52
 4411 064b 00000000 		.4byte	0
 4412 064f 00000000 		.4byte	0
 4413              	.LLST43:
 4414 0653 5E000000 		.4byte	.LVL99
 4415 0657 74000000 		.4byte	.LVL100
 4416 065b 0100     		.2byte	0x1
 4417 065d 50       		.byte	0x50
 4418 065e 74010000 		.4byte	.LVL129
 4419 0662 7A010000 		.4byte	.LVL130
 4420 0666 0100     		.2byte	0x1
 4421 0668 50       		.byte	0x50
 4422 0669 00000000 		.4byte	0
 4423 066d 00000000 		.4byte	0
 4424              		.section	.debug_aranges,"",%progbits
 4425 0000 7C000000 		.4byte	0x7c
 4426 0004 0200     		.2byte	0x2
 4427 0006 00000000 		.4byte	.Ldebug_info0
 4428 000a 04       		.byte	0x4
 4429 000b 00       		.byte	0
 4430 000c 0000     		.2byte	0
 4431 000e 0000     		.2byte	0
 4432 0010 00000000 		.4byte	.LFB1
 4433 0014 70000000 		.4byte	.LFE1-.LFB1
 4434 0018 00000000 		.4byte	.LFB2
 4435 001c 70000000 		.4byte	.LFE2-.LFB2
 4436 0020 00000000 		.4byte	.LFB3
 4437 0024 24000000 		.4byte	.LFE3-.LFB3
 4438 0028 00000000 		.4byte	.LFB6
 4439 002c 24000000 		.4byte	.LFE6-.LFB6
 4440 0030 00000000 		.4byte	.LFB5
 4441 0034 E8000000 		.4byte	.LFE5-.LFB5
 4442 0038 00000000 		.4byte	.LFB7
 4443 003c 18000000 		.4byte	.LFE7-.LFB7
 4444 0040 00000000 		.4byte	.LFB8
 4445 0044 20000000 		.4byte	.LFE8-.LFB8
 4446 0048 00000000 		.4byte	.LFB4
 4447 004c 6C010000 		.4byte	.LFE4-.LFB4
 4448 0050 00000000 		.4byte	.LFB9
 4449 0054 40000000 		.4byte	.LFE9-.LFB9
 4450 0058 00000000 		.4byte	.LFB10
 4451 005c 54000000 		.4byte	.LFE10-.LFB10
 4452 0060 00000000 		.4byte	.LFB11
 4453 0064 70000000 		.4byte	.LFE11-.LFB11
ARM GAS  C:\Users\miyag\AppData\Local\Temp\ccphtVl4.s 			page 105


 4454 0068 00000000 		.4byte	.LFB12
 4455 006c 48000000 		.4byte	.LFE12-.LFB12
 4456 0070 00000000 		.4byte	.LFB0
 4457 0074 74020000 		.4byte	.LFE0-.LFB0
 4458 0078 00000000 		.4byte	0
 4459 007c 00000000 		.4byte	0
 4460              		.section	.debug_ranges,"",%progbits
 4461              	.Ldebug_ranges0:
 4462 0000 3C000000 		.4byte	.LBB12
 4463 0004 46010000 		.4byte	.LBE12
 4464 0008 4A010000 		.4byte	.LBB17
 4465 000c 6C010000 		.4byte	.LBE17
 4466 0010 00000000 		.4byte	0
 4467 0014 00000000 		.4byte	0
 4468 0018 00000000 		.4byte	.LFB1
 4469 001c 70000000 		.4byte	.LFE1
 4470 0020 00000000 		.4byte	.LFB2
 4471 0024 70000000 		.4byte	.LFE2
 4472 0028 00000000 		.4byte	.LFB3
 4473 002c 24000000 		.4byte	.LFE3
 4474 0030 00000000 		.4byte	.LFB6
 4475 0034 24000000 		.4byte	.LFE6
 4476 0038 00000000 		.4byte	.LFB5
 4477 003c E8000000 		.4byte	.LFE5
 4478 0040 00000000 		.4byte	.LFB7
 4479 0044 18000000 		.4byte	.LFE7
 4480 0048 00000000 		.4byte	.LFB8
 4481 004c 20000000 		.4byte	.LFE8
 4482 0050 00000000 		.4byte	.LFB4
 4483 0054 6C010000 		.4byte	.LFE4
 4484 0058 00000000 		.4byte	.LFB9
 4485 005c 40000000 		.4byte	.LFE9
 4486 0060 00000000 		.4byte	.LFB10
 4487 0064 54000000 		.4byte	.LFE10
 4488 0068 00000000 		.4byte	.LFB11
 4489 006c 70000000 		.4byte	.LFE11
 4490 0070 00000000 		.4byte	.LFB12
 4491 0074 48000000 		.4byte	.LFE12
 4492 0078 00000000 		.4byte	.LFB0
 4493 007c 74020000 		.4byte	.LFE0
 4494 0080 00000000 		.4byte	0
 4495 0084 00000000 		.4byte	0
 4496              		.section	.debug_line,"",%progbits
 4497              	.Ldebug_line0:
 4498 0000 A1030000 		.section	.debug_str,"MS",%progbits,1
 4498      02007900 
 4498      00000201 
 4498      FB0E0D00 
 4498      01010101 
 4499              	.LASF37:
 4500 0000 70537461 		.ascii	"pStatusBlock\000"
 4500      74757342 
 4500      6C6F636B 
 4500      00
 4501              	.LASF35:
 4502 000d 636F756E 		.ascii	"count\000"
 4502      7400
ARM GAS  C:\Users\miyag\AppData\Local\Temp\ccphtVl4.s 			page 106


 4503              	.LASF10:
 4504 0013 75696E74 		.ascii	"uint16\000"
 4504      313600
 4505              	.LASF71:
 4506 001a 55534255 		.ascii	"USBUART_1_ReadDieID\000"
 4506      4152545F 
 4506      315F5265 
 4506      61644469 
 4506      65494400 
 4507              	.LASF95:
 4508 002e 55534255 		.ascii	"USBUART_1_device\000"
 4508      4152545F 
 4508      315F6465 
 4508      76696365 
 4508      00
 4509              	.LASF75:
 4510 003f 636F6E66 		.ascii	"confIndex\000"
 4510      496E6465 
 4510      7800
 4511              	.LASF7:
 4512 0049 6C6F6E67 		.ascii	"long long unsigned int\000"
 4512      206C6F6E 
 4512      6720756E 
 4512      7369676E 
 4512      65642069 
 4513              	.LASF22:
 4514 0060 61646472 		.ascii	"addr\000"
 4514      00
 4515              	.LASF102:
 4516 0065 55534255 		.ascii	"USBUART_1_MSOS_DESCRIPTOR\000"
 4516      4152545F 
 4516      315F4D53 
 4516      4F535F44 
 4516      45534352 
 4517              	.LASF47:
 4518 007f 65704366 		.ascii	"epCfg\000"
 4518      6700
 4519              	.LASF81:
 4520 0085 65704E75 		.ascii	"epNumber\000"
 4520      6D626572 
 4520      00
 4521              	.LASF31:
 4522 008e 545F5553 		.ascii	"T_USBUART_1_EP_SETTINGS_BLOCK\000"
 4522      42554152 
 4522      545F315F 
 4522      45505F53 
 4522      45545449 
 4523              	.LASF6:
 4524 00ac 6C6F6E67 		.ascii	"long long int\000"
 4524      206C6F6E 
 4524      6720696E 
 4524      7400
 4525              	.LASF0:
 4526 00ba 7369676E 		.ascii	"signed char\000"
 4526      65642063 
 4526      68617200 
 4527              	.LASF99:
ARM GAS  C:\Users\miyag\AppData\Local\Temp\ccphtVl4.s 			page 107


 4528 00c6 55534255 		.ascii	"USBUART_1_DEVICE0_DESCR\000"
 4528      4152545F 
 4528      315F4445 
 4528      56494345 
 4528      305F4445 
 4529              	.LASF76:
 4530 00de 55534255 		.ascii	"USBUART_1_GetConfigTablePtr\000"
 4530      4152545F 
 4530      315F4765 
 4530      74436F6E 
 4530      66696754 
 4531              	.LASF120:
 4532 00fa 636C6561 		.ascii	"clearAltSetting\000"
 4532      72416C74 
 4532      53657474 
 4532      696E6700 
 4533              	.LASF116:
 4534 010a 55534255 		.ascii	"USBUART_1_DispatchClassRqst\000"
 4534      4152545F 
 4534      315F4469 
 4534      73706174 
 4534      6368436C 
 4535              	.LASF73:
 4536 0126 55534255 		.ascii	"USBUART_1_EpStateInit\000"
 4536      4152545F 
 4536      315F4570 
 4536      53746174 
 4536      65496E69 
 4537              	.LASF40:
 4538 013c 545F5553 		.ascii	"T_USBUART_1_LUT\000"
 4538      42554152 
 4538      545F315F 
 4538      4C555400 
 4539              	.LASF66:
 4540 014c 55534255 		.ascii	"USBUART_1_Config\000"
 4540      4152545F 
 4540      315F436F 
 4540      6E666967 
 4540      00
 4541              	.LASF4:
 4542 015d 6C6F6E67 		.ascii	"long int\000"
 4542      20696E74 
 4542      00
 4543              	.LASF69:
 4544 0166 63646343 		.ascii	"cdcComNums\000"
 4544      6F6D4E75 
 4544      6D7300
 4545              	.LASF80:
 4546 0171 55534255 		.ascii	"USBUART_1_TerminateEP\000"
 4546      4152545F 
 4546      315F5465 
 4546      726D696E 
 4546      61746545 
 4547              	.LASF111:
 4548 0187 55534255 		.ascii	"USBUART_1_currentTD\000"
 4548      4152545F 
 4548      315F6375 
ARM GAS  C:\Users\miyag\AppData\Local\Temp\ccphtVl4.s 			page 108


 4548      7272656E 
 4548      74544400 
 4549              	.LASF9:
 4550 019b 75696E74 		.ascii	"uint8\000"
 4550      3800
 4551              	.LASF21:
 4552 01a1 6570546F 		.ascii	"epToggle\000"
 4552      67676C65 
 4552      00
 4553              	.LASF51:
 4554 01aa 72775761 		.ascii	"rwWa\000"
 4554      00
 4555              	.LASF13:
 4556 01af 646F7562 		.ascii	"double\000"
 4556      6C6500
 4557              	.LASF49:
 4558 01b6 65705372 		.ascii	"epSr\000"
 4558      00
 4559              	.LASF72:
 4560 01bb 55534255 		.ascii	"USBUART_1_ConfigReg\000"
 4560      4152545F 
 4560      315F436F 
 4560      6E666967 
 4560      52656700 
 4561              	.LASF11:
 4562 01cf 75696E74 		.ascii	"uint32\000"
 4562      333200
 4563              	.LASF65:
 4564 01d6 55534255 		.ascii	"USBUART_1_ConfigAltChanged\000"
 4564      4152545F 
 4564      315F436F 
 4564      6E666967 
 4564      416C7443 
 4565              	.LASF36:
 4566 01f1 70446174 		.ascii	"pData\000"
 4566      6100
 4567              	.LASF94:
 4568 01f7 55534255 		.ascii	"USBUART_1_tBuffer\000"
 4568      4152545F 
 4568      315F7442 
 4568      75666665 
 4568      7200
 4569              	.LASF23:
 4570 0209 65704D6F 		.ascii	"epMode\000"
 4570      646500
 4571              	.LASF62:
 4572 0210 65705479 		.ascii	"epType\000"
 4572      706500
 4573              	.LASF90:
 4574 0217 626D5265 		.ascii	"bmRequestType\000"
 4574      71756573 
 4574      74547970 
 4574      6500
 4575              	.LASF50:
 4576 0225 72657365 		.ascii	"reserved\000"
 4576      72766564 
 4576      00
ARM GAS  C:\Users\miyag\AppData\Local\Temp\ccphtVl4.s 			page 109


 4577              	.LASF58:
 4578 022e 55534255 		.ascii	"USBUART_1_sie_eps_struct\000"
 4578      4152545F 
 4578      315F7369 
 4578      655F6570 
 4578      735F7374 
 4579              	.LASF27:
 4580 0247 545F5553 		.ascii	"T_USBUART_1_EP_CTL_BLOCK\000"
 4580      42554152 
 4580      545F315F 
 4580      45505F43 
 4580      544C5F42 
 4581              	.LASF121:
 4582 0260 55534255 		.ascii	"USBUART_1_Cdc_EpInit\000"
 4582      4152545F 
 4582      315F4364 
 4582      635F4570 
 4582      496E6974 
 4583              	.LASF60:
 4584 0275 55534255 		.ascii	"USBUART_1_arb_eps_struct\000"
 4584      4152545F 
 4584      315F6172 
 4584      625F6570 
 4584      735F7374 
 4585              	.LASF98:
 4586 028e 55534255 		.ascii	"USBUART_1_deviceStatus\000"
 4586      4152545F 
 4586      315F6465 
 4586      76696365 
 4586      53746174 
 4587              	.LASF112:
 4588 02a5 43794765 		.ascii	"CyGetUniqueId\000"
 4588      74556E69 
 4588      71756549 
 4588      6400
 4589              	.LASF8:
 4590 02b3 756E7369 		.ascii	"unsigned int\000"
 4590      676E6564 
 4590      20696E74 
 4590      00
 4591              	.LASF117:
 4592 02c0 474E5520 		.ascii	"GNU C 4.9.3 20150303 (release) [ARM/embedded-4_9-br"
 4592      4320342E 
 4592      392E3320 
 4592      32303135 
 4592      30333033 
 4593 02f3 616E6368 		.ascii	"anch revision 221220] -mcpu=cortex-m3 -mthumb -g -O"
 4593      20726576 
 4593      6973696F 
 4593      6E203232 
 4593      31323230 
 4594 0326 73202D66 		.ascii	"s -ffunction-sections -ffat-lto-objects\000"
 4594      66756E63 
 4594      74696F6E 
 4594      2D736563 
 4594      74696F6E 
 4595              	.LASF114:
ARM GAS  C:\Users\miyag\AppData\Local\Temp\ccphtVl4.s 			page 110


 4596 034e 55534255 		.ascii	"USBUART_1_InitNoDataControlTransfer\000"
 4596      4152545F 
 4596      315F496E 
 4596      69744E6F 
 4596      44617461 
 4597              	.LASF5:
 4598 0372 6C6F6E67 		.ascii	"long unsigned int\000"
 4598      20756E73 
 4598      69676E65 
 4598      6420696E 
 4598      7400
 4599              	.LASF100:
 4600 0384 55534255 		.ascii	"USBUART_1_TABLE\000"
 4600      4152545F 
 4600      315F5441 
 4600      424C4500 
 4601              	.LASF97:
 4602 0394 55534255 		.ascii	"USBUART_1_configurationChanged\000"
 4602      4152545F 
 4602      315F636F 
 4602      6E666967 
 4602      75726174 
 4603              	.LASF3:
 4604 03b3 73686F72 		.ascii	"short unsigned int\000"
 4604      7420756E 
 4604      7369676E 
 4604      65642069 
 4604      6E7400
 4605              	.LASF67:
 4606 03c6 70446573 		.ascii	"pDescr\000"
 4606      637200
 4607              	.LASF78:
 4608 03cd 70496E74 		.ascii	"pInterfaceClass\000"
 4608      65726661 
 4608      6365436C 
 4608      61737300 
 4609              	.LASF107:
 4610 03dd 55534255 		.ascii	"USBUART_1_deviceAddress\000"
 4610      4152545F 
 4610      315F6465 
 4610      76696365 
 4610      41646472 
 4611              	.LASF56:
 4612 03f5 55534255 		.ascii	"USBUART_1_arb_ep_struct\000"
 4612      4152545F 
 4612      315F6172 
 4612      625F6570 
 4612      5F737472 
 4613              	.LASF113:
 4614 040d 55534255 		.ascii	"USBUART_1_GetDeviceTablePtr\000"
 4614      4152545F 
 4614      315F4765 
 4614      74446576 
 4614      69636554 
 4615              	.LASF59:
 4616 0429 61726245 		.ascii	"arbEp\000"
 4616      7000
ARM GAS  C:\Users\miyag\AppData\Local\Temp\ccphtVl4.s 			page 111


 4617              	.LASF26:
 4618 042f 696E7465 		.ascii	"interface\000"
 4618      72666163 
 4618      6500
 4619              	.LASF87:
 4620 0439 55534255 		.ascii	"USBUART_1_HandleStandardRqst\000"
 4620      4152545F 
 4620      315F4861 
 4620      6E646C65 
 4620      5374616E 
 4621              	.LASF118:
 4622 0456 2E5C4765 		.ascii	".\\Generated_Source\\PSoC5\\USBUART_1_std.c\000"
 4622      6E657261 
 4622      7465645F 
 4622      536F7572 
 4622      63655C50 
 4623              	.LASF61:
 4624 047f 63757245 		.ascii	"curEp\000"
 4624      7000
 4625              	.LASF20:
 4626 0485 68774570 		.ascii	"hwEpState\000"
 4626      53746174 
 4626      6500
 4627              	.LASF93:
 4628 048f 64657363 		.ascii	"descrLength\000"
 4628      724C656E 
 4628      67746800 
 4629              	.LASF17:
 4630 049b 73697A65 		.ascii	"sizetype\000"
 4630      74797065 
 4630      00
 4631              	.LASF57:
 4632 04a4 73696545 		.ascii	"sieEp\000"
 4632      7000
 4633              	.LASF64:
 4634 04aa 70546D70 		.ascii	"pTmp\000"
 4634      00
 4635              	.LASF39:
 4636 04af 705F6C69 		.ascii	"p_list\000"
 4636      737400
 4637              	.LASF68:
 4638 04b6 62756666 		.ascii	"buffCount\000"
 4638      436F756E 
 4638      7400
 4639              	.LASF18:
 4640 04c0 61747472 		.ascii	"attrib\000"
 4640      696200
 4641              	.LASF96:
 4642 04c7 55534255 		.ascii	"USBUART_1_configuration\000"
 4642      4152545F 
 4642      315F636F 
 4642      6E666967 
 4642      75726174 
 4643              	.LASF103:
 4644 04df 55534255 		.ascii	"USBUART_1_idSerialNumberStringDescriptor\000"
 4644      4152545F 
 4644      315F6964 
ARM GAS  C:\Users\miyag\AppData\Local\Temp\ccphtVl4.s 			page 112


 4644      53657269 
 4644      616C4E75 
 4645              	.LASF77:
 4646 0508 55534255 		.ascii	"USBUART_1_GetInterfaceClassTablePtr\000"
 4646      4152545F 
 4646      315F4765 
 4646      74496E74 
 4646      65726661 
 4647              	.LASF54:
 4648 052c 72775261 		.ascii	"rwRaMsb\000"
 4648      4D736200 
 4649              	.LASF43:
 4650 0534 6570436E 		.ascii	"epCnt0\000"
 4650      743000
 4651              	.LASF44:
 4652 053b 6570436E 		.ascii	"epCnt1\000"
 4652      743100
 4653              	.LASF45:
 4654 0542 65704372 		.ascii	"epCr0\000"
 4654      3000
 4655              	.LASF63:
 4656 0548 696E7465 		.ascii	"interfaceNum\000"
 4656      72666163 
 4656      654E756D 
 4656      00
 4657              	.LASF12:
 4658 0555 666C6F61 		.ascii	"float\000"
 4658      7400
 4659              	.LASF19:
 4660 055b 61706945 		.ascii	"apiEpState\000"
 4660      70537461 
 4660      746500
 4661              	.LASF89:
 4662 0566 636F6E66 		.ascii	"configurationN\000"
 4662      69677572 
 4662      6174696F 
 4662      6E4E00
 4663              	.LASF91:
 4664 0575 70537472 		.ascii	"pStr\000"
 4664      00
 4665              	.LASF16:
 4666 057a 72656738 		.ascii	"reg8\000"
 4666      00
 4667              	.LASF108:
 4668 057f 55534255 		.ascii	"USBUART_1_interfaceStatus\000"
 4668      4152545F 
 4668      315F696E 
 4668      74657266 
 4668      61636553 
 4669              	.LASF74:
 4670 0599 64657363 		.ascii	"descr\000"
 4670      7200
 4671              	.LASF1:
 4672 059f 756E7369 		.ascii	"unsigned char\000"
 4672      676E6564 
 4672      20636861 
 4672      7200
ARM GAS  C:\Users\miyag\AppData\Local\Temp\ccphtVl4.s 			page 113


 4673              	.LASF105:
 4674 05ad 55534255 		.ascii	"USBUART_1_interfaceSetting\000"
 4674      4152545F 
 4674      315F696E 
 4674      74657266 
 4674      61636553 
 4675              	.LASF109:
 4676 05c8 55534255 		.ascii	"USBUART_1_interfaceClass\000"
 4676      4152545F 
 4676      315F696E 
 4676      74657266 
 4676      61636543 
 4677              	.LASF2:
 4678 05e1 73686F72 		.ascii	"short int\000"
 4678      7420696E 
 4678      7400
 4679              	.LASF46:
 4680 05eb 55534255 		.ascii	"USBUART_1_sie_ep_struct\000"
 4680      4152545F 
 4680      315F7369 
 4680      655F6570 
 4680      5F737472 
 4681              	.LASF53:
 4682 0603 72775261 		.ascii	"rwRa\000"
 4682      00
 4683              	.LASF84:
 4684 0608 55534255 		.ascii	"USBUART_1_ClearEndpointHalt\000"
 4684      4152545F 
 4684      315F436C 
 4684      65617245 
 4684      6E64706F 
 4685              	.LASF52:
 4686 0624 72775761 		.ascii	"rwWaMsb\000"
 4686      4D736200 
 4687              	.LASF29:
 4688 062c 61747472 		.ascii	"attributes\000"
 4688      69627574 
 4688      657300
 4689              	.LASF85:
 4690 0637 55534255 		.ascii	"USBUART_1_ValidateAlternateSetting\000"
 4690      4152545F 
 4690      315F5661 
 4690      6C696461 
 4690      7465416C 
 4691              	.LASF28:
 4692 065a 616C7453 		.ascii	"altSetting\000"
 4692      65747469 
 4692      6E6700
 4693              	.LASF34:
 4694 0665 545F5553 		.ascii	"T_USBUART_1_XFER_STATUS_BLOCK\000"
 4694      42554152 
 4694      545F315F 
 4694      58464552 
 4694      5F535441 
 4695              	.LASF15:
 4696 0683 63686172 		.ascii	"char\000"
 4696      00
ARM GAS  C:\Users\miyag\AppData\Local\Temp\ccphtVl4.s 			page 114


 4697              	.LASF25:
 4698 0688 62756666 		.ascii	"bufferSize\000"
 4698      65725369 
 4698      7A6500
 4699              	.LASF83:
 4700 0693 72657175 		.ascii	"requestHandled\000"
 4700      65737448 
 4700      616E646C 
 4700      656400
 4701              	.LASF79:
 4702 06a2 63757272 		.ascii	"currentInterfacesNum\000"
 4702      656E7449 
 4702      6E746572 
 4702      66616365 
 4702      734E756D 
 4703              	.LASF24:
 4704 06b7 62756666 		.ascii	"buffOffset\000"
 4704      4F666673 
 4704      657400
 4705              	.LASF14:
 4706 06c2 63686172 		.ascii	"char8\000"
 4706      3800
 4707              	.LASF70:
 4708 06c8 756E6971 		.ascii	"uniqueId\000"
 4708      75654964 
 4708      00
 4709              	.LASF42:
 4710 06d1 55534255 		.ascii	"USBUART_1_ep0_data_struct\000"
 4710      4152545F 
 4710      315F6570 
 4710      305F6461 
 4710      74615F73 
 4711              	.LASF88:
 4712 06eb 696E7465 		.ascii	"interfaceNumber\000"
 4712      72666163 
 4712      654E756D 
 4712      62657200 
 4713              	.LASF115:
 4714 06fb 55534255 		.ascii	"USBUART_1_InitControlRead\000"
 4714      4152545F 
 4714      315F496E 
 4714      6974436F 
 4714      6E74726F 
 4715              	.LASF33:
 4716 0715 6C656E67 		.ascii	"length\000"
 4716      746800
 4717              	.LASF92:
 4718 071c 6E537472 		.ascii	"nStr\000"
 4718      00
 4719              	.LASF104:
 4720 0721 55534255 		.ascii	"USBUART_1_interfaceNumber\000"
 4720      4152545F 
 4720      315F696E 
 4720      74657266 
 4720      6163654E 
 4721              	.LASF106:
 4722 073b 55534255 		.ascii	"USBUART_1_interfaceSettingLast\000"
ARM GAS  C:\Users\miyag\AppData\Local\Temp\ccphtVl4.s 			page 115


 4722      4152545F 
 4722      315F696E 
 4722      74657266 
 4722      61636553 
 4723              	.LASF32:
 4724 075a 73746174 		.ascii	"status\000"
 4724      757300
 4725              	.LASF55:
 4726 0761 72774472 		.ascii	"rwDr\000"
 4726      00
 4727              	.LASF86:
 4728 0766 63757249 		.ascii	"curInterfacesNum\000"
 4728      6E746572 
 4728      66616365 
 4728      734E756D 
 4728      00
 4729              	.LASF41:
 4730 0777 65704461 		.ascii	"epData\000"
 4730      746100
 4731              	.LASF30:
 4732 077e 624D6973 		.ascii	"bMisc\000"
 4732      6300
 4733              	.LASF38:
 4734 0784 545F5553 		.ascii	"T_USBUART_1_TD\000"
 4734      42554152 
 4734      545F315F 
 4734      544400
 4735              	.LASF48:
 4736 0793 6570496E 		.ascii	"epIntEn\000"
 4736      74456E00 
 4737              	.LASF82:
 4738 079b 55534255 		.ascii	"USBUART_1_SetEndpointHalt\000"
 4738      4152545F 
 4738      315F5365 
 4738      74456E64 
 4738      706F696E 
 4739              	.LASF110:
 4740 07b5 55534255 		.ascii	"USBUART_1_EP\000"
 4740      4152545F 
 4740      315F4550 
 4740      00
 4741              	.LASF119:
 4742 07c2 433A5C54 		.ascii	"C:\\TIRI\\k3g2pmpm_20211223\\trobot_psoc_v6_73\\tro"
 4742      4952495C 
 4742      6B336732 
 4742      706D706D 
 4742      5F323032 
 4743 07f1 626F7436 		.ascii	"bot6_cir2_2wd.cydsn\000"
 4743      5F636972 
 4743      325F3277 
 4743      642E6379 
 4743      64736E00 
 4744              	.LASF101:
 4745 0805 55534255 		.ascii	"USBUART_1_STRING_DESCRIPTORS\000"
 4745      4152545F 
 4745      315F5354 
 4745      52494E47 
ARM GAS  C:\Users\miyag\AppData\Local\Temp\ccphtVl4.s 			page 116


 4745      5F444553 
 4746              		.ident	"GCC: (GNU Tools for ARM Embedded Processors) 4.9.3 20150303 (release) [ARM/embedded-4_9-br
